---
triple:          'arm64-apple-darwin'
binary-path:     make
relocations:
  - { offset: 0x5C, size: 0x8, addend: 0x0, symName: __ZNSt3__119piecewise_constructE, symObjAddr: 0x30C2F, symBinAddr: 0x100041A15, symSize: 0x0 }
  - { offset: 0x48E6, size: 0x8, addend: 0x0, symName: __ZNSt3__14__fs10filesystem5beginB8ne180100ENS1_18directory_iteratorE, symObjAddr: 0x7400, symBinAddr: 0x100008140, symSize: 0x38 }
  - { offset: 0x4913, size: 0x8, addend: 0x0, symName: __ZNSt3__14__fs10filesystem3endB8ne180100ENS1_18directory_iteratorE, symObjAddr: 0x7498, symBinAddr: 0x1000081D8, symSize: 0x34 }
  - { offset: 0x493C, size: 0x8, addend: 0x0, symName: __ZNSt3__14__fs10filesystemneB8ne180100ERKNS1_18directory_iteratorES4_, symObjAddr: 0x74CC, symBinAddr: 0x10000820C, symSize: 0x30 }
  - { offset: 0x4976, size: 0x8, addend: 0x0, symName: __ZNSt3__14__fs10filesystemeqB8ne180100ERKNS1_18directory_iteratorES4_, symObjAddr: 0x122D4, symBinAddr: 0x100013014, symSize: 0x2C }
  - { offset: 0xE892, size: 0x8, addend: 0x0, symName: __ZNSt3__111__sift_downB8ne180100INS_17_ClassicAlgPolicyERNS_8functionIFbRKNS_10shared_ptrI4NodeEES7_EEENS_11__wrap_iterIPS5_EEEEvT1_OT0_NS_15iterator_traitsISE_E15difference_typeESE_, symObjAddr: 0x9AD0, symBinAddr: 0x10000A810, symSize: 0x308 }
  - { offset: 0x10D4A, size: 0x8, addend: 0x0, symName: __ZNSt3__110__function10__not_nullB8ne180100I18more_than_specificEEbRKT_, symObjAddr: 0x18A04, symBinAddr: 0x100019744, symSize: 0x18 }
  - { offset: 0x10D7B, size: 0x8, addend: 0x0, symName: __ZNSt3__110__function10__not_nullB8ne180100I9h_functorEEbRKT_, symObjAddr: 0x25C70, symBinAddr: 0x1000269B0, symSize: 0x18 }
  - { offset: 0x11C98, size: 0x8, addend: 0x0, symName: __ZNSt3__117__floyd_sift_downB8ne180100INS_17_ClassicAlgPolicyERNS_8functionIFbRKNS_10shared_ptrI4NodeEES7_EEENS_11__wrap_iterIPS5_EEEET1_SE_OT0_NS_15iterator_traitsISE_E15difference_typeE, symObjAddr: 0xDC44, symBinAddr: 0x10000E984, symSize: 0x140 }
  - { offset: 0x16063, size: 0x8, addend: 0x0, symName: __ZNSt3__124__put_character_sequenceB8ne180100IcNS_11char_traitsIcEEEERNS_13basic_ostreamIT_T0_EES7_PKS4_m, symObjAddr: 0x13000, symBinAddr: 0x100013D40, symSize: 0x1E8 }
  - { offset: 0x22574, size: 0x8, addend: 0x0, symName: __ZNSt3__17advanceB8ne180100INS_11__wrap_iterIP4EdgeEEllvEEvRT_T0_, symObjAddr: 0x245B4, symBinAddr: 0x1000252F4, symSize: 0x38 }
  - { offset: 0x22605, size: 0x8, addend: 0x0, symName: __ZNSt3__17advanceB8ne180100IPdllvEEvRT_T0_, symObjAddr: 0x254FC, symBinAddr: 0x10002623C, symSize: 0x38 }
  - { offset: 0x23605, size: 0x8, addend: 0x0, symName: __ZNSt3__16__math3powB8ne180100IdiTnNS_9enable_ifIXaasr13is_arithmeticIT_EE5valuesr13is_arithmeticIT0_EE5valueEiE4typeELi0EEENS_9__promoteIS3_S4_vE4typeES3_S4_, symObjAddr: 0x27564, symBinAddr: 0x1000282A4, symSize: 0x38 }
  - { offset: 0x23662, size: 0x8, addend: 0x0, symName: __ZNSt3__16__math4ceilB8ne180100Ef, symObjAddr: 0xEBA8, symBinAddr: 0x10000F8E8, symSize: 0x18 }
  - { offset: 0x2368E, size: 0x8, addend: 0x0, symName: __ZNSt3__16__math3powB8ne180100IiEEddd, symObjAddr: 0x2759C, symBinAddr: 0x1000282DC, symSize: 0x2C }
  - { offset: 0x29AC2, size: 0x8, addend: 0x0, symName: __ZNSt3__1lsB8ne180100INS_11char_traitsIcEEEERNS_13basic_ostreamIcT_EES6_PKc, symObjAddr: 0x144, symBinAddr: 0x100000E84, symSize: 0x48 }
  - { offset: 0x29B08, size: 0x8, addend: 0x0, symName: __ZNSt3__14endlB8ne180100IcNS_11char_traitsIcEEEERNS_13basic_ostreamIT_T0_EES7_, symObjAddr: 0x1468, symBinAddr: 0x1000021A8, symSize: 0x58 }
  - { offset: 0x29E84, size: 0x8, addend: 0x0, symName: __ZNSt3__1neB8ne180100IPNS_12basic_stringIcNS_11char_traitsIcEENS_9allocatorIcEEEEEEbRKNS_11__wrap_iterIT_EESC_, symObjAddr: 0x32D8, symBinAddr: 0x100004018, symSize: 0x30 }
  - { offset: 0x2ACD6, size: 0x8, addend: 0x0, symName: __ZNSt3__1lsB8ne180100IcNS_11char_traitsIcEENS_9allocatorIcEEEERNS_13basic_ostreamIT_T0_EES9_RKNS_12basic_stringIS6_S7_T1_EE, symObjAddr: 0x34C8, symBinAddr: 0x100004208, symSize: 0x4C }
  - { offset: 0x2AD2E, size: 0x8, addend: 0x0, symName: __ZNSt3__17getlineB8ne180100IcNS_11char_traitsIcEENS_9allocatorIcEEEERNS_13basic_istreamIT_T0_EES9_RNS_12basic_stringIS6_S7_T1_EE, symObjAddr: 0x3564, symBinAddr: 0x1000042A4, symSize: 0x5C }
  - { offset: 0x2AD86, size: 0x8, addend: 0x0, symName: __ZNSt3__1eqB8ne180100IcNS_11char_traitsIcEENS_9allocatorIcEEEEbRKNS_12basic_stringIT_T0_T1_EEPKS6_, symObjAddr: 0x35C0, symBinAddr: 0x100004300, symSize: 0xA4 }
  - { offset: 0x2ADED, size: 0x8, addend: 0x0, symName: __ZNSt3__13maxB8ne180100ImEET_St16initializer_listIS1_E, symObjAddr: 0x38DC, symBinAddr: 0x10000461C, symSize: 0x50 }
  - { offset: 0x2B248, size: 0x8, addend: 0x0, symName: __ZNSt3__1rsB8ne180100IcNS_11char_traitsIcEENS_9allocatorIcEEEERNS_13basic_istreamIT_T0_EES9_RNS_12basic_stringIS6_S7_T1_EE, symObjAddr: 0x4024, symBinAddr: 0x100004D64, symSize: 0x2EC }
  - { offset: 0x2B315, size: 0x8, addend: 0x0, symName: __ZNSt3__111make_sharedB8ne180100I4NodeJddRmEvEENS_10shared_ptrIT_EEDpOT0_, symObjAddr: 0x4338, symBinAddr: 0x100005078, symSize: 0x50 }
  - { offset: 0x2BD85, size: 0x8, addend: 0x0, symName: __ZNSt3__111make_sharedB8ne180100I4NodeJRiS2_RmEvEENS_10shared_ptrIT_EEDpOT0_, symObjAddr: 0x5EFC, symBinAddr: 0x100006C3C, symSize: 0x50 }
  - { offset: 0x2BDF0, size: 0x8, addend: 0x0, symName: __ZNSt3__19make_pairB8ne180100IRiS1_EENS_4pairINS_18__unwrap_ref_decayIT_E4typeENS3_IT0_E4typeEEEOS4_OS7_, symObjAddr: 0x5FCC, symBinAddr: 0x100006D0C, symSize: 0x34 }
  - { offset: 0x2BF13, size: 0x8, addend: 0x0, symName: __ZNSt3__1neB8ne180100IP4EdgeEEbRKNS_11__wrap_iterIT_EES7_, symObjAddr: 0x63F4, symBinAddr: 0x100007134, symSize: 0x30 }
  - { offset: 0x2BF56, size: 0x8, addend: 0x0, symName: __ZNSt3__1neB8ne180100IPNS_6vectorI4EdgeNS_9allocatorIS2_EEEEEEbRKNS_11__wrap_iterIT_EESB_, symObjAddr: 0x6524, symBinAddr: 0x100007264, symSize: 0x30 }
  - { offset: 0x2BF99, size: 0x8, addend: 0x0, symName: __ZNSt3__1eqB8ne180100I4NodeEEbRKNS_10shared_ptrIT_EEDn, symObjAddr: 0x6F7C, symBinAddr: 0x100007CBC, symSize: 0x2C }
  - { offset: 0x2CAA8, size: 0x8, addend: 0x0, symName: __ZNSt3__1neB8ne180100ERKNS_19__hash_map_iteratorINS_15__hash_iteratorIPNS_11__hash_nodeINS_17__hash_value_typeINS_12basic_stringIcNS_11char_traitsIcEENS_9allocatorIcEEEENS_6vectorINSA_ImNS7_ImEEEENS7_ISC_EEEEEEPvEEEEEESM_, symObjAddr: 0x88BC, symBinAddr: 0x1000095FC, symSize: 0x2C }
  - { offset: 0x2CAE5, size: 0x8, addend: 0x0, symName: __ZNSt3__1neB8ne180100IPNS_6vectorImNS_9allocatorImEEEEEEbRKNS_11__wrap_iterIT_EESA_, symObjAddr: 0x8970, symBinAddr: 0x1000096B0, symSize: 0x30 }
  - { offset: 0x2CB28, size: 0x8, addend: 0x0, symName: __ZNSt3__15fixedB8ne180100ERNS_8ios_baseE, symObjAddr: 0x8B08, symBinAddr: 0x100009848, symSize: 0x30 }
  - { offset: 0x2CB56, size: 0x8, addend: 0x0, symName: __ZNSt3__1lsB8ne180100IcNS_11char_traitsIcEEEERNS_13basic_ostreamIT_T0_EES7_RKNS_8__iom_t5E, symObjAddr: 0x8B38, symBinAddr: 0x100009878, symSize: 0x40 }
  - { offset: 0x2CBA2, size: 0x8, addend: 0x0, symName: __ZNSt3__112setprecisionB8ne180100Ei, symObjAddr: 0x8B78, symBinAddr: 0x1000098B8, symSize: 0x2C }
  - { offset: 0x2DA3D, size: 0x8, addend: 0x0, symName: __ZNSt3__19make_heapB8ne180100INS_11__wrap_iterIPNS_10shared_ptrI4NodeEEEENS_8functionIFbRKS4_S9_EEEEEvT_SC_T0_, symObjAddr: 0x8D20, symBinAddr: 0x100009A60, symSize: 0x44 }
  - { offset: 0x2DA94, size: 0x8, addend: 0x0, symName: __ZNSt3__111make_sharedB8ne180100I4NodeJRdS2_RmNS_6vectorIdNS_9allocatorIdEEEEdEvEENS_10shared_ptrIT_EEDpOT0_, symObjAddr: 0x8DF8, symBinAddr: 0x100009B38, symSize: 0x60 }
  - { offset: 0x2DB27, size: 0x8, addend: 0x0, symName: __ZNSt3__19push_heapB8ne180100INS_11__wrap_iterIPNS_10shared_ptrI4NodeEEEENS_8functionIFbRKS4_S9_EEEEEvT_SC_T0_, symObjAddr: 0x8F54, symBinAddr: 0x100009C94, symSize: 0x44 }
  - { offset: 0x2DB7E, size: 0x8, addend: 0x0, symName: __ZNSt3__18pop_heapB8ne180100INS_11__wrap_iterIPNS_10shared_ptrI4NodeEEEENS_8functionIFbRKS4_S9_EEEEEvT_SC_T0_, symObjAddr: 0x8FBC, symBinAddr: 0x100009CFC, symSize: 0x60 }
  - { offset: 0x2DBE3, size: 0x8, addend: 0x0, symName: __ZNSt3__1neB8ne180100ERKNS_21__hash_const_iteratorIPNS_11__hash_nodeImPvEEEES7_, symObjAddr: 0x90B4, symBinAddr: 0x100009DF4, symSize: 0x30 }
  - { offset: 0x2DC20, size: 0x8, addend: 0x0, symName: __ZNSt3__1neB8ne180100IPK4EdgeEEbRKNS_11__wrap_iterIT_EES8_, symObjAddr: 0x9238, symBinAddr: 0x100009F78, symSize: 0x30 }
  - { offset: 0x2DC63, size: 0x8, addend: 0x0, symName: __ZNSt3__111make_sharedB8ne180100I4NodeJRdS2_RmRNS_6vectorIdNS_9allocatorIdEEEES2_RNS_10shared_ptrIS1_EEEvEENS9_IT_EEDpOT0_, symObjAddr: 0x92F4, symBinAddr: 0x10000A034, symSize: 0x68 }
  - { offset: 0x2DD0A, size: 0x8, addend: 0x0, symName: __ZNSt3__111__make_heapB8ne180100INS_17_ClassicAlgPolicyERNS_8functionIFbRKNS_10shared_ptrI4NodeEES7_EEENS_11__wrap_iterIPS5_EEEEvT1_SE_OT0_, symObjAddr: 0x99C0, symBinAddr: 0x10000A700, symSize: 0xC8 }
  - { offset: 0x2DDAD, size: 0x8, addend: 0x0, symName: __ZNSt3__1miB8ne180100IPNS_10shared_ptrI4NodeEES4_EEDTmicldtfp_4baseEcldtfp0_4baseEERKNS_11__wrap_iterIT_EERKNS6_IT0_EE, symObjAddr: 0x9A88, symBinAddr: 0x10000A7C8, symSize: 0x48 }
  - { offset: 0x2DF54, size: 0x8, addend: 0x0, symName: __ZNSt3__125__throw_bad_function_callB8ne180100Ev, symObjAddr: 0x9F68, symBinAddr: 0x10000ACA8, symSize: 0x38 }
  - { offset: 0x2DFD4, size: 0x8, addend: 0x0, symName: __ZNSt3__14swapB8ne180100IP4NodeEENS_9enable_ifIXaasr21is_move_constructibleIT_EE5valuesr18is_move_assignableIS4_EE5valueEvE4typeERS4_S7_, symObjAddr: 0xA0FC, symBinAddr: 0x10000AE3C, symSize: 0x3C }
  - { offset: 0x2E025, size: 0x8, addend: 0x0, symName: __ZNSt3__14swapB8ne180100IPNS_19__shared_weak_countEEENS_9enable_ifIXaasr21is_move_constructibleIT_EE5valuesr18is_move_assignableIS4_EE5valueEvE4typeERS4_S7_, symObjAddr: 0xA138, symBinAddr: 0x10000AE78, symSize: 0x3C }
  - { offset: 0x2E076, size: 0x8, addend: 0x0, symName: __ZNSt3__115allocate_sharedB8ne180100I4NodeNS_9allocatorIS1_EEJRdS4_RmNS_6vectorIdNS2_IdEEEEdEvEENS_10shared_ptrIT_EERKT0_DpOT1_, symObjAddr: 0xA350, symBinAddr: 0x10000B090, symSize: 0xB8 }
  - { offset: 0x2E43F, size: 0x8, addend: 0x0, symName: __ZNSt3__117__libcpp_allocateB8ne180100Emm, symObjAddr: 0xA794, symBinAddr: 0x10000B4D4, symSize: 0x60 }
  - { offset: 0x2E49B, size: 0x8, addend: 0x0, symName: __ZNSt3__124__is_overaligned_for_newB8ne180100Em, symObjAddr: 0xA80C, symBinAddr: 0x10000B54C, symSize: 0x1C }
  - { offset: 0x2E4C9, size: 0x8, addend: 0x0, symName: __ZNSt3__121__libcpp_operator_newB8ne180100IJmSt11align_val_tEEEPvDpT_, symObjAddr: 0xA828, symBinAddr: 0x10000B568, symSize: 0x2C }
  - { offset: 0x2E516, size: 0x8, addend: 0x0, symName: __ZNSt3__121__libcpp_operator_newB8ne180100IJmEEEPvDpT_, symObjAddr: 0xA854, symBinAddr: 0x10000B594, symSize: 0x24 }
  - { offset: 0x2E78E, size: 0x8, addend: 0x0, symName: __ZNSt3__134__libcpp_atomic_refcount_incrementB8ne180100IlEET_RS1_, symObjAddr: 0xB274, symBinAddr: 0x10000BFB4, symSize: 0x30 }
  - { offset: 0x2E7F7, size: 0x8, addend: 0x0, symName: __ZNSt3__119__libcpp_deallocateB8ne180100EPvmm, symObjAddr: 0xB4B0, symBinAddr: 0x10000C1F0, symSize: 0x60 }
  - { offset: 0x2E85E, size: 0x8, addend: 0x0, symName: __ZNSt3__127__do_deallocate_handle_sizeB8ne180100IJSt11align_val_tEEEvPvmDpT_, symObjAddr: 0xB510, symBinAddr: 0x10000C250, symSize: 0x30 }
  - { offset: 0x2E8B2, size: 0x8, addend: 0x0, symName: __ZNSt3__127__do_deallocate_handle_sizeB8ne180100IJEEEvPvmDpT_, symObjAddr: 0xB540, symBinAddr: 0x10000C280, symSize: 0x28 }
  - { offset: 0x2E8F1, size: 0x8, addend: 0x0, symName: __ZNSt3__124__libcpp_operator_deleteB8ne180100IJPvSt11align_val_tEEEvDpT_, symObjAddr: 0xB568, symBinAddr: 0x10000C2A8, symSize: 0x2C }
  - { offset: 0x2E93B, size: 0x8, addend: 0x0, symName: __ZNSt3__124__libcpp_operator_deleteB8ne180100IJPvEEEvDpT_, symObjAddr: 0xB594, symBinAddr: 0x10000C2D4, symSize: 0x24 }
  - { offset: 0x2E970, size: 0x8, addend: 0x0, symName: __ZNSt3__122__make_exception_guardB8ne180100INS_6vectorIdNS_9allocatorIdEEE16__destroy_vectorEEENS_28__exception_guard_exceptionsIT_EES7_, symObjAddr: 0xB824, symBinAddr: 0x10000C564, symSize: 0x40 }
  - { offset: 0x2E9A5, size: 0x8, addend: 0x0, symName: __ZNSt3__119__allocate_at_leastB8ne180100INS_9allocatorIdEEEENS_19__allocation_resultINS_16allocator_traitsIT_E7pointerEEERS5_m, symObjAddr: 0xBBF4, symBinAddr: 0x10000C934, symSize: 0x40 }
  - { offset: 0x2E9E8, size: 0x8, addend: 0x0, symName: __ZNSt3__13minB8ne180100ImEERKT_S3_S3_, symObjAddr: 0xBC48, symBinAddr: 0x10000C988, symSize: 0x2C }
  - { offset: 0x2EA2B, size: 0x8, addend: 0x0, symName: __ZNSt3__13minB8ne180100ImNS_6__lessIvvEEEERKT_S5_S5_T0_, symObjAddr: 0xBCC0, symBinAddr: 0x10000CA00, symSize: 0x54 }
  - { offset: 0x2EAFC, size: 0x8, addend: 0x0, symName: __ZNSt3__120__throw_length_errorB8ne180100EPKc, symObjAddr: 0xBD90, symBinAddr: 0x10000CAD0, symSize: 0x64 }
  - { offset: 0x2EB24, size: 0x8, addend: 0x0, symName: __ZNSt3__112__to_addressB8ne180100IdEEPT_S2_, symObjAddr: 0xBF30, symBinAddr: 0x10000CC70, symSize: 0x14 }
  - { offset: 0x2EB59, size: 0x8, addend: 0x0, symName: __ZNSt3__112__to_addressB8ne180100INS_10shared_ptrI4NodeEEEEPT_S5_, symObjAddr: 0xC5B0, symBinAddr: 0x10000D2F0, symSize: 0x14 }
  - { offset: 0x2EB8E, size: 0x8, addend: 0x0, symName: __ZNSt3__13maxB8ne180100ImEERKT_S3_S3_, symObjAddr: 0xC9A4, symBinAddr: 0x10000D6E4, symSize: 0x2C }
  - { offset: 0x2EBD1, size: 0x8, addend: 0x0, symName: __ZNSt3__13maxB8ne180100ImNS_6__lessIvvEEEERKT_S5_S5_T0_, symObjAddr: 0xCAC8, symBinAddr: 0x10000D808, symSize: 0x54 }
  - { offset: 0x2EC2B, size: 0x8, addend: 0x0, symName: __ZNSt3__119__allocate_at_leastB8ne180100INS_9allocatorINS_10shared_ptrI4NodeEEEEEENS_19__allocation_resultINS_16allocator_traitsIT_E7pointerEEERS8_m, symObjAddr: 0xCC24, symBinAddr: 0x10000D964, symSize: 0x40 }
  - { offset: 0x2EC6E, size: 0x8, addend: 0x0, symName: __ZNSt3__142__uninitialized_allocator_move_if_noexceptB8ne180100INS_9allocatorINS_10shared_ptrI4NodeEEEENS_16reverse_iteratorIPS4_EES8_S8_EET2_RT_T0_T1_S9_, symObjAddr: 0xCE00, symBinAddr: 0x10000DB40, symSize: 0x12C }
  - { offset: 0x2ED0E, size: 0x8, addend: 0x0, symName: __ZNSt3__14swapB8ne180100IPNS_10shared_ptrI4NodeEEEENS_9enable_ifIXaasr21is_move_constructibleIT_EE5valuesr18is_move_assignableIS6_EE5valueEvE4typeERS6_S9_, symObjAddr: 0xCF78, symBinAddr: 0x10000DCB8, symSize: 0x3C }
  - { offset: 0x2ED5F, size: 0x8, addend: 0x0, symName: __ZNSt3__122__make_exception_guardB8ne180100INS_29_AllocatorDestroyRangeReverseINS_9allocatorINS_10shared_ptrI4NodeEEEENS_16reverse_iteratorIPS5_EEEEEENS_28__exception_guard_exceptionsIT_EESC_, symObjAddr: 0xCFC8, symBinAddr: 0x10000DD08, symSize: 0x4C }
  - { offset: 0x2ED95, size: 0x8, addend: 0x0, symName: __ZNSt3__1neB8ne180100IPNS_10shared_ptrI4NodeEES4_EEbRKNS_16reverse_iteratorIT_EERKNS5_IT0_EE, symObjAddr: 0xD058, symBinAddr: 0x10000DD98, symSize: 0x44 }
  - { offset: 0x2EDE1, size: 0x8, addend: 0x0, symName: __ZNSt3__112__to_addressB8ne180100INS_16reverse_iteratorIPNS_10shared_ptrI4NodeEEEEvEEu7__decayIDTclsr19__to_address_helperIT_EE6__callclsr3stdE7declvalIRKS7_EEEEES9_, symObjAddr: 0xD0D0, symBinAddr: 0x10000DE10, symSize: 0x24 }
  - { offset: 0x2EE41, size: 0x8, addend: 0x0, symName: __ZNSt3__119__allocator_destroyB8ne180100INS_9allocatorINS_10shared_ptrI4NodeEEEENS_16reverse_iteratorINS6_IPS4_EEEES9_EEvRT_T0_T1_, symObjAddr: 0xD3AC, symBinAddr: 0x10000E0EC, symSize: 0x70 }
  - { offset: 0x2EEA6, size: 0x8, addend: 0x0, symName: __ZNSt3__1neB8ne180100INS_16reverse_iteratorIPNS_10shared_ptrI4NodeEEEES6_EEbRKNS1_IT_EERKNS1_IT0_EE, symObjAddr: 0xD458, symBinAddr: 0x10000E198, symSize: 0x5C }
  - { offset: 0x2EEF2, size: 0x8, addend: 0x0, symName: __ZNSt3__112__to_addressB8ne180100INS_16reverse_iteratorINS1_IPNS_10shared_ptrI4NodeEEEEEEvEEu7__decayIDTclsr19__to_address_helperIT_EE6__callclsr3stdE7declvalIRKS8_EEEEESA_, symObjAddr: 0xD4E0, symBinAddr: 0x10000E220, symSize: 0x24 }
  - { offset: 0x2EF51, size: 0x8, addend: 0x0, symName: __ZNSt3__111__push_heapB8ne180100INS_17_ClassicAlgPolicyENS_11__wrap_iterIPNS_10shared_ptrI4NodeEEEENS_8functionIFbRKS5_SA_EEEEEvT0_SD_RT1_, symObjAddr: 0xD8D8, symBinAddr: 0x10000E618, symSize: 0x5C }
  - { offset: 0x2EFBE, size: 0x8, addend: 0x0, symName: __ZNSt3__19__sift_upB8ne180100INS_17_ClassicAlgPolicyERNS_8functionIFbRKNS_10shared_ptrI4NodeEES7_EEENS_11__wrap_iterIPS5_EEEEvT1_SE_OT0_NS_15iterator_traitsISE_E15difference_typeE, symObjAddr: 0xD934, symBinAddr: 0x10000E674, symSize: 0x190 }
  - { offset: 0x2F05E, size: 0x8, addend: 0x0, symName: __ZNSt3__110__pop_heapB8ne180100INS_17_ClassicAlgPolicyENS_8functionIFbRKNS_10shared_ptrI4NodeEES7_EEENS_11__wrap_iterIPS5_EEEEvT1_SD_RT0_NS_15iterator_traitsISD_E15difference_typeE, symObjAddr: 0xDAE4, symBinAddr: 0x10000E824, symSize: 0x160 }
  - { offset: 0x2F106, size: 0x8, addend: 0x0, symName: __ZNSt3__1eqB8ne180100IPNS_10shared_ptrI4NodeEEEEbRKNS_11__wrap_iterIT_EES9_, symObjAddr: 0xDD84, symBinAddr: 0x10000EAC4, symSize: 0x44 }
  - { offset: 0x2F14A, size: 0x8, addend: 0x0, symName: __ZNSt3__1eqB8ne180100ERKNS_21__hash_const_iteratorIPNS_11__hash_nodeImPvEEEES7_, symObjAddr: 0xDEB0, symBinAddr: 0x10000EBF0, symSize: 0x2C }
  - { offset: 0x2F187, size: 0x8, addend: 0x0, symName: __ZNSt3__116__constrain_hashB8ne180100Emm, symObjAddr: 0xE10C, symBinAddr: 0x10000EE4C, symSize: 0x90 }
  - { offset: 0x2F1F4, size: 0x8, addend: 0x0, symName: __ZNSt3__116__is_hash_power2B8ne180100Em, symObjAddr: 0xEB5C, symBinAddr: 0x10000F89C, symSize: 0x4C }
  - { offset: 0x2F265, size: 0x8, addend: 0x0, symName: __ZNSt3__114__construct_atB8ne180100INS_11__hash_nodeImPvEEJDnRmEPS3_EEPT_S7_DpOT0_, symObjAddr: 0xEDD4, symBinAddr: 0x10000FB14, symSize: 0x48 }
  - { offset: 0x2F2EA, size: 0x8, addend: 0x0, symName: __ZNSt3__116__next_hash_pow2B8ne180100Em, symObjAddr: 0xF65C, symBinAddr: 0x10001039C, symSize: 0x68 }
  - { offset: 0x2F316, size: 0x8, addend: 0x0, symName: __ZNSt3__112__libcpp_clzB8ne180100Em, symObjAddr: 0xF9F4, symBinAddr: 0x100010734, symSize: 0x1C }
  - { offset: 0x2F342, size: 0x8, addend: 0x0, symName: __ZNSt3__112__destroy_atB8ne180100INS_11__hash_nodeImPvEETnNS_9enable_ifIXntsr8is_arrayIT_EE5valueEiE4typeELi0EEEvPS5_, symObjAddr: 0xFBB8, symBinAddr: 0x1000108F8, symSize: 0x24 }
  - { offset: 0x2F37A, size: 0x8, addend: 0x0, symName: __ZNSt3__112__destroy_atB8ne180100ImTnNS_9enable_ifIXntsr8is_arrayIT_EE5valueEiE4typeELi0EEEvPS2_, symObjAddr: 0xFC10, symBinAddr: 0x100010950, symSize: 0x10 }
  - { offset: 0x2F3B2, size: 0x8, addend: 0x0, symName: __ZNSt3__120__throw_out_of_rangeB8ne180100EPKc, symObjAddr: 0xFDE0, symBinAddr: 0x100010B20, symSize: 0x64 }
  - { offset: 0x2F3DA, size: 0x8, addend: 0x0, symName: __ZNSt3__1eqB8ne180100IPK4EdgeEEbRKNS_11__wrap_iterIT_EES8_, symObjAddr: 0xFF40, symBinAddr: 0x100010C80, symSize: 0x44 }
  - { offset: 0x2F41D, size: 0x8, addend: 0x0, symName: __ZNSt3__112__to_addressB8ne180100IK4EdgeEEPT_S4_, symObjAddr: 0xFF9C, symBinAddr: 0x100010CDC, symSize: 0x14 }
  - { offset: 0x2F452, size: 0x8, addend: 0x0, symName: __ZNSt3__130__uninitialized_allocator_copyB8ne180100INS_9allocatorIdEEPdS3_S3_EET2_RT_T0_T1_S4_, symObjAddr: 0x10194, symBinAddr: 0x100010ED4, symSize: 0x80 }
  - { offset: 0x2F4EF, size: 0x8, addend: 0x0, symName: __ZNSt3__114__unwrap_rangeB8ne180100IPdS1_EENS_4pairIT0_S3_EET_S5_, symObjAddr: 0x10214, symBinAddr: 0x100010F54, symSize: 0x60 }
  - { offset: 0x2F53B, size: 0x8, addend: 0x0, symName: __ZNSt3__135__uninitialized_allocator_copy_implB8ne180100INS_9allocatorIdEEdddTnPNS_9enable_ifIXaaaaaasr31is_trivially_copy_constructibleIT1_EE5valuesr28is_trivially_copy_assignableIS4_EE5valuesr7is_sameIu14__remove_constIT0_Eu14__remove_constIT2_EEE5valuesr38__allocator_has_trivial_copy_constructIT_S4_EE5valueEvE4typeELPv0EEEPS7_RS9_PS5_SG_SE_, symObjAddr: 0x10274, symBinAddr: 0x100010FB4, symSize: 0x38 }
  - { offset: 0x2F5BD, size: 0x8, addend: 0x0, symName: __ZNSt3__113__unwrap_iterB8ne180100IPdNS_18__unwrap_iter_implIS1_Lb1EEETnNS_9enable_ifIXsr21is_copy_constructibleIT_EE5valueEiE4typeELi0EEEDTclsrT0_8__unwrapclsr3stdE7declvalIS5_EEEES5_, symObjAddr: 0x102AC, symBinAddr: 0x100010FEC, symSize: 0x24 }
  - { offset: 0x2F601, size: 0x8, addend: 0x0, symName: __ZNSt3__113__rewrap_iterB8ne180100IPdS1_NS_18__unwrap_iter_implIS1_Lb1EEEEET_S4_T0_, symObjAddr: 0x102D0, symBinAddr: 0x100011010, symSize: 0x3C }
  - { offset: 0x2F656, size: 0x8, addend: 0x0, symName: __ZNSt3__19make_pairB8ne180100IPdS1_EENS_4pairINS_18__unwrap_ref_decayIT_E4typeENS3_IT0_E4typeEEEOS4_OS7_, symObjAddr: 0x1030C, symBinAddr: 0x10001104C, symSize: 0x38 }
  - { offset: 0x2F7A8, size: 0x8, addend: 0x0, symName: __ZNSt3__14copyB8ne180100IPdS1_EET0_T_S3_S2_, symObjAddr: 0x103B4, symBinAddr: 0x1000110F4, symSize: 0x40 }
  - { offset: 0x2F802, size: 0x8, addend: 0x0, symName: __ZNSt3__16__copyB8ne180100INS_17_ClassicAlgPolicyEPdS2_S2_EENS_4pairIT0_T2_EES4_T1_S5_, symObjAddr: 0x103F4, symBinAddr: 0x100011134, symSize: 0x44 }
  - { offset: 0x2F86E, size: 0x8, addend: 0x0, symName: __ZNSt3__123__dispatch_copy_or_moveB8ne180100INS_17_ClassicAlgPolicyENS_11__copy_loopIS1_EENS_14__copy_trivialEPdS5_S5_EENS_4pairIT2_T4_EES7_T3_S8_, symObjAddr: 0x10438, symBinAddr: 0x100011178, symSize: 0x44 }
  - { offset: 0x2F8EC, size: 0x8, addend: 0x0, symName: __ZNSt3__121__unwrap_and_dispatchB8ne180100INS_10__overloadINS_11__copy_loopINS_17_ClassicAlgPolicyEEENS_14__copy_trivialEEEPdS7_S7_TnNS_9enable_ifIXsr12__can_rewrapIT0_T1_T2_EE5valueEiE4typeELi0EEENS_4pairIS9_SB_EES9_SA_SB_, symObjAddr: 0x1047C, symBinAddr: 0x1000111BC, symSize: 0xB4 }
  - { offset: 0x2FA74, size: 0x8, addend: 0x0, symName: __ZNSt3__114__rewrap_rangeB8ne180100IPdS1_EET_S2_T0_, symObjAddr: 0x10578, symBinAddr: 0x1000112B8, symSize: 0x2C }
  - { offset: 0x2FAC0, size: 0x8, addend: 0x0, symName: __ZNSt3__119__copy_trivial_implB8ne180100IddEENS_4pairIPT_PT0_EES3_S3_S5_, symObjAddr: 0x105A4, symBinAddr: 0x1000112E4, symSize: 0x80 }
  - { offset: 0x2FB28, size: 0x8, addend: 0x0, symName: __ZNSt3__119__constexpr_memmoveB8ne180100IddTnNS_9enable_ifIXsr23__is_always_bitcastableIT0_T_EE5valueEiE4typeELi0EEEPS3_S6_PS2_NS_15__element_countE, symObjAddr: 0x10624, symBinAddr: 0x100011364, symSize: 0x60 }
  - { offset: 0x2FB96, size: 0x8, addend: 0x0, symName: __ZNSt3__19make_pairB8ne180100IRPdS1_EENS_4pairINS_18__unwrap_ref_decayIT_E4typeENS4_IT0_E4typeEEEOS5_OS8_, symObjAddr: 0x10684, symBinAddr: 0x1000113C4, symSize: 0x38 }
  - { offset: 0x2FC38, size: 0x8, addend: 0x0, symName: __ZNSt3__115allocate_sharedB8ne180100I4NodeNS_9allocatorIS1_EEJRdS4_RmRNS_6vectorIdNS2_IdEEEES4_RNS_10shared_ptrIS1_EEEvEENSA_IT_EERKT0_DpOT1_, symObjAddr: 0x107A0, symBinAddr: 0x1000114E0, symSize: 0xC0 }
  - { offset: 0x2FD15, size: 0x8, addend: 0x0, symName: __ZNSt3__111make_sharedB8ne180100I4NodeJRdS2_RmRNS_6vectorIdNS_9allocatorIdEEEES2_RKS7_RNS_10shared_ptrIS1_EEEvEENSB_IT_EEDpOT0_, symObjAddr: 0x10D40, symBinAddr: 0x100011A80, symSize: 0x70 }
  - { offset: 0x2FDD0, size: 0x8, addend: 0x0, symName: __ZNSt3__115allocate_sharedB8ne180100I4NodeNS_9allocatorIS1_EEJRdS4_RmRNS_6vectorIdNS2_IdEEEES4_RKS8_RNS_10shared_ptrIS1_EEEvEENSC_IT_EERKT0_DpOT1_, symObjAddr: 0x10DB0, symBinAddr: 0x100011AF0, symSize: 0xC8 }
  - { offset: 0x2FEC3, size: 0x8, addend: 0x0, symName: __ZNSt3__1eqB8ne180100IPNS_12basic_stringIcNS_11char_traitsIcEENS_9allocatorIcEEEEEEbRKNS_11__wrap_iterIT_EESC_, symObjAddr: 0x11358, symBinAddr: 0x100012098, symSize: 0x44 }
  - { offset: 0x2FF06, size: 0x8, addend: 0x0, symName: __ZNSt3__111max_elementB8ne180100IPKmNS_6__lessIvvEEEET_S5_S5_T0_, symObjAddr: 0x1140C, symBinAddr: 0x10001214C, symSize: 0x30 }
  - { offset: 0x2FF60, size: 0x8, addend: 0x0, symName: __ZNSt3__113__max_elementB8ne180100IRNS_6__lessIvvEEPKmEET0_S6_S6_T_, symObjAddr: 0x11474, symBinAddr: 0x1000121B4, symSize: 0x94 }
  - { offset: 0x2FFD7, size: 0x8, addend: 0x0, symName: __ZNSt3__1eqB8ne180100IP4EdgeEEbRKNS_11__wrap_iterIT_EES7_, symObjAddr: 0x1188C, symBinAddr: 0x1000125CC, symSize: 0x44 }
  - { offset: 0x3001A, size: 0x8, addend: 0x0, symName: __ZNSt3__112__to_addressB8ne180100I4EdgeEEPT_S3_, symObjAddr: 0x118E8, symBinAddr: 0x100012628, symSize: 0x14 }
  - { offset: 0x3004F, size: 0x8, addend: 0x0, symName: __ZNSt3__1eqB8ne180100IPNS_6vectorI4EdgeNS_9allocatorIS2_EEEEEEbRKNS_11__wrap_iterIT_EESB_, symObjAddr: 0x1191C, symBinAddr: 0x10001265C, symSize: 0x44 }
  - { offset: 0x30092, size: 0x8, addend: 0x0, symName: __ZNSt3__112__to_addressB8ne180100INS_6vectorI4EdgeNS_9allocatorIS2_EEEEEEPT_S7_, symObjAddr: 0x11978, symBinAddr: 0x1000126B8, symSize: 0x14 }
  - { offset: 0x300C7, size: 0x8, addend: 0x0, symName: __ZNSt3__134__libcpp_atomic_refcount_decrementB8ne180100IlEET_RS1_, symObjAddr: 0x12204, symBinAddr: 0x100012F44, symSize: 0x30 }
  - { offset: 0x300FC, size: 0x8, addend: 0x0, symName: __ZNSt3__1eqB8ne180100INS_4__fs10filesystem12__dir_streamES3_EEbRKNS_10shared_ptrIT_EERKNS4_IT0_EE, symObjAddr: 0x12300, symBinAddr: 0x100013040, symSize: 0x44 }
  - { offset: 0x3014B, size: 0x8, addend: 0x0, symName: __ZNSt3__112__to_addressB8ne180100INS_12basic_stringIcNS_11char_traitsIcEENS_9allocatorIcEEEEEEPT_S8_, symObjAddr: 0x12870, symBinAddr: 0x1000135B0, symSize: 0x14 }
  - { offset: 0x30180, size: 0x8, addend: 0x0, symName: __ZNSt3__1eqB8ne180100IPNS_6vectorImNS_9allocatorImEEEEEEbRKNS_11__wrap_iterIT_EESA_, symObjAddr: 0x128C0, symBinAddr: 0x100013600, symSize: 0x44 }
  - { offset: 0x301F6, size: 0x8, addend: 0x0, symName: __ZNSt3__112__to_addressB8ne180100IKcEEPT_S3_, symObjAddr: 0x12E44, symBinAddr: 0x100013B84, symSize: 0x14 }
  - { offset: 0x3025E, size: 0x8, addend: 0x0, symName: __ZNSt3__118__constexpr_strlenB8ne180100EPKc, symObjAddr: 0x12F9C, symBinAddr: 0x100013CDC, symSize: 0x24 }
  - { offset: 0x3028A, size: 0x8, addend: 0x0, symName: __ZNSt3__116__pad_and_outputB8ne180100IcNS_11char_traitsIcEEEENS_19ostreambuf_iteratorIT_T0_EES6_PKS4_S8_S8_RNS_8ios_baseES4_, symObjAddr: 0x13204, symBinAddr: 0x100013F44, symSize: 0x214 }
  - { offset: 0x30359, size: 0x8, addend: 0x0, symName: __ZNSt3__112__to_addressB8ne180100IcEEPT_S2_, symObjAddr: 0x13644, symBinAddr: 0x100014384, symSize: 0x14 }
  - { offset: 0x3038E, size: 0x8, addend: 0x0, symName: __ZNSt3__19use_facetB8ne180100INS_5ctypeIcEEEERKT_RKNS_6localeE, symObjAddr: 0x137EC, symBinAddr: 0x10001452C, symSize: 0x2C }
  - { offset: 0x3076C, size: 0x8, addend: 0x0, symName: __ZNSt3__122__make_exception_guardB8ne180100INS_6vectorINS1_I4EdgeNS_9allocatorIS2_EEEENS3_IS5_EEE16__destroy_vectorEEENS_28__exception_guard_exceptionsIT_EESA_, symObjAddr: 0x13E58, symBinAddr: 0x100014B98, symSize: 0x40 }
  - { offset: 0x307A1, size: 0x8, addend: 0x0, symName: __ZNSt3__119__allocate_at_leastB8ne180100INS_9allocatorINS_6vectorI4EdgeNS1_IS3_EEEEEEEENS_19__allocation_resultINS_16allocator_traitsIT_E7pointerEEERS9_m, symObjAddr: 0x14184, symBinAddr: 0x100014EC4, symSize: 0x40 }
  - { offset: 0x307E4, size: 0x8, addend: 0x0, symName: __ZNSt3__122__make_exception_guardB8ne180100INS_6vectorI4EdgeNS_9allocatorIS2_EEE16__destroy_vectorEEENS_28__exception_guard_exceptionsIT_EES8_, symObjAddr: 0x14728, symBinAddr: 0x100015468, symSize: 0x40 }
  - { offset: 0x30819, size: 0x8, addend: 0x0, symName: __ZNSt3__119__allocate_at_leastB8ne180100INS_9allocatorI4EdgeEEEENS_19__allocation_resultINS_16allocator_traitsIT_E7pointerEEERS6_m, symObjAddr: 0x149C0, symBinAddr: 0x100015700, symSize: 0x40 }
  - { offset: 0x3085C, size: 0x8, addend: 0x0, symName: __ZNSt3__130__uninitialized_allocator_copyB8ne180100INS_9allocatorI4EdgeEEPS2_S4_S4_EET2_RT_T0_T1_S5_, symObjAddr: 0x14B44, symBinAddr: 0x100015884, symSize: 0x80 }
  - { offset: 0x308F9, size: 0x8, addend: 0x0, symName: __ZNSt3__114__unwrap_rangeB8ne180100IP4EdgeS2_EENS_4pairIT0_S4_EET_S6_, symObjAddr: 0x14C3C, symBinAddr: 0x10001597C, symSize: 0x60 }
  - { offset: 0x30945, size: 0x8, addend: 0x0, symName: __ZNSt3__135__uninitialized_allocator_copy_implB8ne180100INS_9allocatorI4EdgeEEPS2_S4_S4_EET2_RT_T0_T1_S5_, symObjAddr: 0x14C9C, symBinAddr: 0x1000159DC, symSize: 0xF0 }
  - { offset: 0x309E3, size: 0x8, addend: 0x0, symName: __ZNSt3__113__unwrap_iterB8ne180100IP4EdgeNS_18__unwrap_iter_implIS2_Lb1EEETnNS_9enable_ifIXsr21is_copy_constructibleIT_EE5valueEiE4typeELi0EEEDTclsrT0_8__unwrapclsr3stdE7declvalIS6_EEEES6_, symObjAddr: 0x14D8C, symBinAddr: 0x100015ACC, symSize: 0x24 }
  - { offset: 0x30A27, size: 0x8, addend: 0x0, symName: __ZNSt3__113__rewrap_iterB8ne180100IP4EdgeS2_NS_18__unwrap_iter_implIS2_Lb1EEEEET_S5_T0_, symObjAddr: 0x14DB0, symBinAddr: 0x100015AF0, symSize: 0x3C }
  - { offset: 0x30A7C, size: 0x8, addend: 0x0, symName: __ZNSt3__19make_pairB8ne180100IP4EdgeS2_EENS_4pairINS_18__unwrap_ref_decayIT_E4typeENS4_IT0_E4typeEEEOS5_OS8_, symObjAddr: 0x14DEC, symBinAddr: 0x100015B2C, symSize: 0x38 }
  - { offset: 0x30B9F, size: 0x8, addend: 0x0, symName: __ZNSt3__122__make_exception_guardB8ne180100INS_29_AllocatorDestroyRangeReverseINS_9allocatorI4EdgeEEPS3_EEEENS_28__exception_guard_exceptionsIT_EES8_, symObjAddr: 0x14E94, symBinAddr: 0x100015BD4, symSize: 0x4C }
  - { offset: 0x30BD6, size: 0x8, addend: 0x0, symName: __ZNSt3__119__allocator_destroyB8ne180100INS_9allocatorI4EdgeEENS_16reverse_iteratorIPS2_EES6_EEvRT_T0_T1_, symObjAddr: 0x15124, symBinAddr: 0x100015E64, symSize: 0x70 }
  - { offset: 0x30C39, size: 0x8, addend: 0x0, symName: __ZNSt3__1neB8ne180100IP4EdgeS2_EEbRKNS_16reverse_iteratorIT_EERKNS3_IT0_EE, symObjAddr: 0x151C8, symBinAddr: 0x100015F08, symSize: 0x44 }
  - { offset: 0x30C85, size: 0x8, addend: 0x0, symName: __ZNSt3__112__to_addressB8ne180100INS_16reverse_iteratorIP4EdgeEEvEEu7__decayIDTclsr19__to_address_helperIT_EE6__callclsr3stdE7declvalIRKS5_EEEEES7_, symObjAddr: 0x1520C, symBinAddr: 0x100015F4C, symSize: 0x24 }
  - { offset: 0x30D37, size: 0x8, addend: 0x0, symName: __ZNSt3__142__uninitialized_allocator_move_if_noexceptB8ne180100INS_9allocatorI4EdgeEENS_16reverse_iteratorIPS2_EES6_S6_EET2_RT_T0_T1_S7_, symObjAddr: 0x15E18, symBinAddr: 0x100016B58, symSize: 0x11C }
  - { offset: 0x30DD7, size: 0x8, addend: 0x0, symName: __ZNSt3__14swapB8ne180100IP4EdgeEENS_9enable_ifIXaasr21is_move_constructibleIT_EE5valuesr18is_move_assignableIS4_EE5valueEvE4typeERS4_S7_, symObjAddr: 0x15F34, symBinAddr: 0x100016C74, symSize: 0x3C }
  - { offset: 0x30E28, size: 0x8, addend: 0x0, symName: __ZNSt3__122__make_exception_guardB8ne180100INS_29_AllocatorDestroyRangeReverseINS_9allocatorI4EdgeEENS_16reverse_iteratorIPS3_EEEEEENS_28__exception_guard_exceptionsIT_EESA_, symObjAddr: 0x15F70, symBinAddr: 0x100016CB0, symSize: 0x4C }
  - { offset: 0x30E5F, size: 0x8, addend: 0x0, symName: __ZNSt3__119__allocator_destroyB8ne180100INS_9allocatorI4EdgeEENS_16reverse_iteratorINS4_IPS2_EEEES7_EEvRT_T0_T1_, symObjAddr: 0x162C4, symBinAddr: 0x100017004, symSize: 0x70 }
  - { offset: 0x30EC4, size: 0x8, addend: 0x0, symName: __ZNSt3__1neB8ne180100INS_16reverse_iteratorIP4EdgeEES4_EEbRKNS1_IT_EERKNS1_IT0_EE, symObjAddr: 0x16370, symBinAddr: 0x1000170B0, symSize: 0x5C }
  - { offset: 0x30F10, size: 0x8, addend: 0x0, symName: __ZNSt3__112__to_addressB8ne180100INS_16reverse_iteratorINS1_IP4EdgeEEEEvEEu7__decayIDTclsr19__to_address_helperIT_EE6__callclsr3stdE7declvalIRKS6_EEEEES8_, symObjAddr: 0x163CC, symBinAddr: 0x10001710C, symSize: 0x24 }
  - { offset: 0x30F6F, size: 0x8, addend: 0x0, symName: __ZNSt3__130__uninitialized_allocator_copyB8ne180100INS_9allocatorIdEEPKdS4_PdEET2_RT_T0_T1_S6_, symObjAddr: 0x168F8, symBinAddr: 0x100017638, symSize: 0x80 }
  - { offset: 0x3100C, size: 0x8, addend: 0x0, symName: __ZNSt3__114__unwrap_rangeB8ne180100IPKdS2_EENS_4pairIT0_S4_EET_S6_, symObjAddr: 0x16978, symBinAddr: 0x1000176B8, symSize: 0x60 }
  - { offset: 0x31058, size: 0x8, addend: 0x0, symName: __ZNSt3__135__uninitialized_allocator_copy_implB8ne180100INS_9allocatorIdEEKdddTnPNS_9enable_ifIXaaaaaasr31is_trivially_copy_constructibleIT1_EE5valuesr28is_trivially_copy_assignableIS5_EE5valuesr7is_sameIu14__remove_constIT0_Eu14__remove_constIT2_EEE5valuesr38__allocator_has_trivial_copy_constructIT_S5_EE5valueEvE4typeELPv0EEEPS8_RSA_PS6_SH_SF_, symObjAddr: 0x169D8, symBinAddr: 0x100017718, symSize: 0x38 }
  - { offset: 0x310DA, size: 0x8, addend: 0x0, symName: __ZNSt3__19make_pairB8ne180100IPKdS2_EENS_4pairINS_18__unwrap_ref_decayIT_E4typeENS4_IT0_E4typeEEEOS5_OS8_, symObjAddr: 0x16A10, symBinAddr: 0x100017750, symSize: 0x38 }
  - { offset: 0x31129, size: 0x8, addend: 0x0, symName: __ZNSt3__113__unwrap_iterB8ne180100IPKdNS_18__unwrap_iter_implIS2_Lb1EEETnNS_9enable_ifIXsr21is_copy_constructibleIT_EE5valueEiE4typeELi0EEEDTclsrT0_8__unwrapclsr3stdE7declvalIS6_EEEES6_, symObjAddr: 0x16A48, symBinAddr: 0x100017788, symSize: 0x24 }
  - { offset: 0x31294, size: 0x8, addend: 0x0, symName: __ZNSt3__112__to_addressB8ne180100IKdEEPT_S3_, symObjAddr: 0x16B00, symBinAddr: 0x100017840, symSize: 0x14 }
  - { offset: 0x312C9, size: 0x8, addend: 0x0, symName: __ZNSt3__14copyB8ne180100IPKdPdEET0_T_S5_S4_, symObjAddr: 0x16B14, symBinAddr: 0x100017854, symSize: 0x40 }
  - { offset: 0x31323, size: 0x8, addend: 0x0, symName: __ZNSt3__16__copyB8ne180100INS_17_ClassicAlgPolicyEPKdS3_PdEENS_4pairIT0_T2_EES6_T1_S7_, symObjAddr: 0x16B54, symBinAddr: 0x100017894, symSize: 0x44 }
  - { offset: 0x3138F, size: 0x8, addend: 0x0, symName: __ZNSt3__123__dispatch_copy_or_moveB8ne180100INS_17_ClassicAlgPolicyENS_11__copy_loopIS1_EENS_14__copy_trivialEPKdS6_PdEENS_4pairIT2_T4_EES9_T3_SA_, symObjAddr: 0x16B98, symBinAddr: 0x1000178D8, symSize: 0x44 }
  - { offset: 0x3140D, size: 0x8, addend: 0x0, symName: __ZNSt3__121__unwrap_and_dispatchB8ne180100INS_10__overloadINS_11__copy_loopINS_17_ClassicAlgPolicyEEENS_14__copy_trivialEEEPKdS8_PdTnNS_9enable_ifIXsr12__can_rewrapIT0_T1_T2_EE5valueEiE4typeELi0EEENS_4pairISB_SD_EESB_SC_SD_, symObjAddr: 0x16BDC, symBinAddr: 0x10001791C, symSize: 0xB4 }
  - { offset: 0x3159E, size: 0x8, addend: 0x0, symName: __ZNSt3__19make_pairB8ne180100IPKdPdEENS_4pairINS_18__unwrap_ref_decayIT_E4typeENS5_IT0_E4typeEEEOS6_OS9_, symObjAddr: 0x16CD8, symBinAddr: 0x100017A18, symSize: 0x38 }
  - { offset: 0x315ED, size: 0x8, addend: 0x0, symName: __ZNSt3__114__rewrap_rangeB8ne180100IPKdS2_EET_S3_T0_, symObjAddr: 0x16D10, symBinAddr: 0x100017A50, symSize: 0x2C }
  - { offset: 0x31639, size: 0x8, addend: 0x0, symName: __ZNSt3__119__copy_trivial_implB8ne180100IKddEENS_4pairIPT_PT0_EES4_S4_S6_, symObjAddr: 0x16D3C, symBinAddr: 0x100017A7C, symSize: 0x80 }
  - { offset: 0x316A1, size: 0x8, addend: 0x0, symName: __ZNSt3__119__constexpr_memmoveB8ne180100IdKdTnNS_9enable_ifIXsr23__is_always_bitcastableIT0_T_EE5valueEiE4typeELi0EEEPS4_S7_PS3_NS_15__element_countE, symObjAddr: 0x16DBC, symBinAddr: 0x100017AFC, symSize: 0x60 }
  - { offset: 0x3170F, size: 0x8, addend: 0x0, symName: __ZNSt3__19make_pairB8ne180100IRPKdPdEENS_4pairINS_18__unwrap_ref_decayIT_E4typeENS6_IT0_E4typeEEEOS7_OSA_, symObjAddr: 0x16E1C, symBinAddr: 0x100017B5C, symSize: 0x38 }
  - { offset: 0x3175E, size: 0x8, addend: 0x0, symName: __ZNSt3__113__rewrap_iterB8ne180100IPKdS2_NS_18__unwrap_iter_implIS2_Lb1EEEEET_S5_T0_, symObjAddr: 0x16F34, symBinAddr: 0x100017C74, symSize: 0x3C }
  - { offset: 0x317B3, size: 0x8, addend: 0x0, symName: __ZNSt3__142__uninitialized_allocator_move_if_noexceptB8ne180100INS_9allocatorIdEENS_16reverse_iteratorIPdEES5_dvEET1_RT_T0_S9_S6_, symObjAddr: 0x1767C, symBinAddr: 0x1000183BC, symSize: 0x78 }
  - { offset: 0x31831, size: 0x8, addend: 0x0, symName: __ZNSt3__14swapB8ne180100IPdEENS_9enable_ifIXaasr21is_move_constructibleIT_EE5valuesr18is_move_assignableIS3_EE5valueEvE4typeERS3_S6_, symObjAddr: 0x17740, symBinAddr: 0x100018480, symSize: 0x3C }
  - { offset: 0x31882, size: 0x8, addend: 0x0, symName: __ZNSt3__14moveB8ne180100INS_16reverse_iteratorIPdEES3_EET0_T_S5_S4_, symObjAddr: 0x1777C, symBinAddr: 0x1000184BC, symSize: 0x78 }
  - { offset: 0x318DC, size: 0x8, addend: 0x0, symName: __ZNSt3__16__moveB8ne180100INS_17_ClassicAlgPolicyENS_16reverse_iteratorIPdEES4_S4_EENS_4pairIT0_T2_EES6_T1_S7_, symObjAddr: 0x177F4, symBinAddr: 0x100018534, symSize: 0x64 }
  - { offset: 0x31948, size: 0x8, addend: 0x0, symName: __ZNSt3__123__dispatch_copy_or_moveB8ne180100INS_17_ClassicAlgPolicyENS_11__move_loopIS1_EENS_14__move_trivialENS_16reverse_iteratorIPdEES7_S7_EENS_4pairIT2_T4_EES9_T3_SA_, symObjAddr: 0x17858, symBinAddr: 0x100018598, symSize: 0x64 }
  - { offset: 0x319C6, size: 0x8, addend: 0x0, symName: __ZNSt3__121__unwrap_and_dispatchB8ne180100INS_10__overloadINS_11__move_loopINS_17_ClassicAlgPolicyEEENS_14__move_trivialEEENS_16reverse_iteratorIPdEES9_S9_TnNS_9enable_ifIXsr12__can_rewrapIT0_T1_T2_EE5valueEiE4typeELi0EEENS_4pairISB_SD_EESB_SC_SD_, symObjAddr: 0x178BC, symBinAddr: 0x1000185FC, symSize: 0x12C }
  - { offset: 0x31A56, size: 0x8, addend: 0x0, symName: __ZNSt3__114__unwrap_rangeB8ne180100INS_16reverse_iteratorIPdEES3_EENS_4pairIT0_S5_EET_S7_, symObjAddr: 0x179E8, symBinAddr: 0x100018728, symSize: 0x84 }
  - { offset: 0x31C07, size: 0x8, addend: 0x0, symName: __ZNSt3__113__unwrap_iterB8ne180100INS_16reverse_iteratorIPdEENS_18__unwrap_iter_implIS3_Lb0EEETnNS_9enable_ifIXsr21is_copy_constructibleIT_EE5valueEiE4typeELi0EEEDTclsrT0_8__unwrapclsr3stdE7declvalIS7_EEEES7_, symObjAddr: 0x17B0C, symBinAddr: 0x10001884C, symSize: 0x44 }
  - { offset: 0x31C4B, size: 0x8, addend: 0x0, symName: __ZNSt3__19make_pairB8ne180100INS_16reverse_iteratorIPdEES3_EENS_4pairINS_18__unwrap_ref_decayIT_E4typeENS5_IT0_E4typeEEEOS6_OS9_, symObjAddr: 0x17B50, symBinAddr: 0x100018890, symSize: 0x38 }
  - { offset: 0x31C9A, size: 0x8, addend: 0x0, symName: __ZNSt3__114__rewrap_rangeB8ne180100INS_16reverse_iteratorIPdEES3_EET_S4_T0_, symObjAddr: 0x17B88, symBinAddr: 0x1000188C8, symSize: 0x5C }
  - { offset: 0x31CE6, size: 0x8, addend: 0x0, symName: __ZNSt3__113__rewrap_iterB8ne180100INS_16reverse_iteratorIPdEES3_NS_18__unwrap_iter_implIS3_Lb0EEEEET_S6_T0_, symObjAddr: 0x17BE4, symBinAddr: 0x100018924, symSize: 0x74 }
  - { offset: 0x31D3B, size: 0x8, addend: 0x0, symName: __ZNSt3__1neB8ne180100IPdS1_EEbRKNS_16reverse_iteratorIT_EERKNS2_IT0_EE, symObjAddr: 0x17C58, symBinAddr: 0x100018998, symSize: 0x44 }
  - { offset: 0x31DDA, size: 0x8, addend: 0x0, symName: __ZNSt3__112__to_addressB8ne180100INS_6vectorIdNS_9allocatorIdEEEEEEPT_S6_, symObjAddr: 0x18728, symBinAddr: 0x100019468, symSize: 0x14 }
  - { offset: 0x31F72, size: 0x8, addend: 0x0, symName: __ZNSt3__116forward_as_tupleB8ne180100IJ18more_than_specificEEENS_5tupleIJDpOT_EEES5_, symObjAddr: 0x18F84, symBinAddr: 0x100019CC4, symSize: 0x2C }
  - { offset: 0x31FAB, size: 0x8, addend: 0x0, symName: __ZNSt3__116forward_as_tupleB8ne180100IJNS_9allocatorI18more_than_specificEEEEENS_5tupleIJDpOT_EEES7_, symObjAddr: 0x18FB0, symBinAddr: 0x100019CF0, symSize: 0x2C }
  - { offset: 0x32029, size: 0x8, addend: 0x0, symName: __ZNSt3__13getB8ne180100ILm0EJO18more_than_specificEEERNS_13tuple_elementIXT_ENS_5tupleIJDpT0_EEEE4typeERS7_, symObjAddr: 0x192C8, symBinAddr: 0x10001A008, symSize: 0x24 }
  - { offset: 0x3206C, size: 0x8, addend: 0x0, symName: __ZNSt3__13getB8ne180100ILm0EJONS_9allocatorI18more_than_specificEEEEERNS_13tuple_elementIXT_ENS_5tupleIJDpT0_EEEE4typeERS9_, symObjAddr: 0x19304, symBinAddr: 0x10001A044, symSize: 0x24 }
  - { offset: 0x3258B, size: 0x8, addend: 0x0, symName: __ZNSt3__116forward_as_tupleB8ne180100IJRK18more_than_specificEEENS_5tupleIJDpOT_EEES7_, symObjAddr: 0x1988C, symBinAddr: 0x10001A5CC, symSize: 0x2C }
  - { offset: 0x325D9, size: 0x8, addend: 0x0, symName: __ZNSt3__13getB8ne180100ILm0EJRK18more_than_specificEEERNS_13tuple_elementIXT_ENS_5tupleIJDpT0_EEEE4typeERS8_, symObjAddr: 0x19A7C, symBinAddr: 0x10001A7BC, symSize: 0x24 }
  - { offset: 0x3261C, size: 0x8, addend: 0x0, symName: __ZNSt3__116forward_as_tupleB8ne180100IJRKNS_9allocatorI18more_than_specificEEEEENS_5tupleIJDpOT_EEES9_, symObjAddr: 0x19DC8, symBinAddr: 0x10001AB08, symSize: 0x2C }
  - { offset: 0x3266A, size: 0x8, addend: 0x0, symName: __ZNSt3__13getB8ne180100ILm0EJRKNS_9allocatorI18more_than_specificEEEEERNS_13tuple_elementIXT_ENS_5tupleIJDpT0_EEEE4typeERSA_, symObjAddr: 0x19FAC, symBinAddr: 0x10001ACEC, symSize: 0x24 }
  - { offset: 0x326FC, size: 0x8, addend: 0x0, symName: __ZNSt3__18__invokeB8ne180100IR18more_than_specificJRKNS_10shared_ptrI4NodeEES7_EEEDTclclsr3stdE7declvalIT_EEspclsr3stdE7declvalIT0_EEEEOS8_DpOS9_, symObjAddr: 0x1A088, symBinAddr: 0x10001ADC8, symSize: 0x34 }
  - { offset: 0x32761, size: 0x8, addend: 0x0, symName: __ZNSt3__119__allocate_at_leastB8ne180100INS_9allocatorINS_6vectorIdNS1_IdEEEEEEEENS_19__allocation_resultINS_16allocator_traitsIT_E7pointerEEERS8_m, symObjAddr: 0x1A99C, symBinAddr: 0x10001B6DC, symSize: 0x40 }
  - { offset: 0x327A4, size: 0x8, addend: 0x0, symName: __ZNSt3__142__uninitialized_allocator_move_if_noexceptB8ne180100INS_9allocatorINS_6vectorIdNS1_IdEEEEEENS_16reverse_iteratorIPS4_EES8_S8_EET2_RT_T0_T1_S9_, symObjAddr: 0x1AB50, symBinAddr: 0x10001B890, symSize: 0x12C }
  - { offset: 0x32844, size: 0x8, addend: 0x0, symName: __ZNSt3__14swapB8ne180100IPNS_6vectorIdNS_9allocatorIdEEEEEENS_9enable_ifIXaasr21is_move_constructibleIT_EE5valuesr18is_move_assignableIS7_EE5valueEvE4typeERS7_SA_, symObjAddr: 0x1ACC8, symBinAddr: 0x10001BA08, symSize: 0x3C }
  - { offset: 0x32895, size: 0x8, addend: 0x0, symName: __ZNSt3__122__make_exception_guardB8ne180100INS_29_AllocatorDestroyRangeReverseINS_9allocatorINS_6vectorIdNS2_IdEEEEEENS_16reverse_iteratorIPS5_EEEEEENS_28__exception_guard_exceptionsIT_EESC_, symObjAddr: 0x1AD18, symBinAddr: 0x10001BA58, symSize: 0x4C }
  - { offset: 0x328CB, size: 0x8, addend: 0x0, symName: __ZNSt3__1neB8ne180100IPNS_6vectorIdNS_9allocatorIdEEEES5_EEbRKNS_16reverse_iteratorIT_EERKNS6_IT0_EE, symObjAddr: 0x1ADA8, symBinAddr: 0x10001BAE8, symSize: 0x44 }
  - { offset: 0x32917, size: 0x8, addend: 0x0, symName: __ZNSt3__112__to_addressB8ne180100INS_16reverse_iteratorIPNS_6vectorIdNS_9allocatorIdEEEEEEvEEu7__decayIDTclsr19__to_address_helperIT_EE6__callclsr3stdE7declvalIRKS8_EEEEESA_, symObjAddr: 0x1AE20, symBinAddr: 0x10001BB60, symSize: 0x24 }
  - { offset: 0x32977, size: 0x8, addend: 0x0, symName: __ZNSt3__119__allocator_destroyB8ne180100INS_9allocatorINS_6vectorIdNS1_IdEEEEEENS_16reverse_iteratorINS6_IPS4_EEEES9_EEvRT_T0_T1_, symObjAddr: 0x1B0FC, symBinAddr: 0x10001BE3C, symSize: 0x70 }
  - { offset: 0x329DC, size: 0x8, addend: 0x0, symName: __ZNSt3__1neB8ne180100INS_16reverse_iteratorIPNS_6vectorIdNS_9allocatorIdEEEEEES7_EEbRKNS1_IT_EERKNS1_IT0_EE, symObjAddr: 0x1B1A8, symBinAddr: 0x10001BEE8, symSize: 0x5C }
  - { offset: 0x32A28, size: 0x8, addend: 0x0, symName: __ZNSt3__112__to_addressB8ne180100INS_16reverse_iteratorINS1_IPNS_6vectorIdNS_9allocatorIdEEEEEEEEvEEu7__decayIDTclsr19__to_address_helperIT_EE6__callclsr3stdE7declvalIRKS9_EEEEESB_, symObjAddr: 0x1B204, symBinAddr: 0x10001BF44, symSize: 0x24 }
  - { offset: 0x32A87, size: 0x8, addend: 0x0, symName: __ZNSt3__122__make_exception_guardB8ne180100INS_6vectorINS1_IdNS_9allocatorIdEEEENS2_IS4_EEE16__destroy_vectorEEENS_28__exception_guard_exceptionsIT_EES9_, symObjAddr: 0x1B750, symBinAddr: 0x10001C490, symSize: 0x40 }
  - { offset: 0x32ABC, size: 0x8, addend: 0x0, symName: __ZNSt3__130__uninitialized_allocator_copyB8ne180100INS_9allocatorINS_6vectorIdNS1_IdEEEEEEPS4_S6_S6_EET2_RT_T0_T1_S7_, symObjAddr: 0x1B96C, symBinAddr: 0x10001C6AC, symSize: 0x80 }
  - { offset: 0x32B59, size: 0x8, addend: 0x0, symName: __ZNSt3__114__unwrap_rangeB8ne180100IPNS_6vectorIdNS_9allocatorIdEEEES5_EENS_4pairIT0_S7_EET_S9_, symObjAddr: 0x1B9EC, symBinAddr: 0x10001C72C, symSize: 0x60 }
  - { offset: 0x32BA5, size: 0x8, addend: 0x0, symName: __ZNSt3__135__uninitialized_allocator_copy_implB8ne180100INS_9allocatorINS_6vectorIdNS1_IdEEEEEEPS4_S6_S6_EET2_RT_T0_T1_S7_, symObjAddr: 0x1BA4C, symBinAddr: 0x10001C78C, symSize: 0xF0 }
  - { offset: 0x32C43, size: 0x8, addend: 0x0, symName: __ZNSt3__113__unwrap_iterB8ne180100IPNS_6vectorIdNS_9allocatorIdEEEENS_18__unwrap_iter_implIS5_Lb1EEETnNS_9enable_ifIXsr21is_copy_constructibleIT_EE5valueEiE4typeELi0EEEDTclsrT0_8__unwrapclsr3stdE7declvalIS9_EEEES9_, symObjAddr: 0x1BB3C, symBinAddr: 0x10001C87C, symSize: 0x24 }
  - { offset: 0x32C87, size: 0x8, addend: 0x0, symName: __ZNSt3__113__rewrap_iterB8ne180100IPNS_6vectorIdNS_9allocatorIdEEEES5_NS_18__unwrap_iter_implIS5_Lb1EEEEET_S8_T0_, symObjAddr: 0x1BB60, symBinAddr: 0x10001C8A0, symSize: 0x3C }
  - { offset: 0x32CDC, size: 0x8, addend: 0x0, symName: __ZNSt3__19make_pairB8ne180100IPNS_6vectorIdNS_9allocatorIdEEEES5_EENS_4pairINS_18__unwrap_ref_decayIT_E4typeENS7_IT0_E4typeEEEOS8_OSB_, symObjAddr: 0x1BB9C, symBinAddr: 0x10001C8DC, symSize: 0x38 }
  - { offset: 0x32DFF, size: 0x8, addend: 0x0, symName: __ZNSt3__122__make_exception_guardB8ne180100INS_29_AllocatorDestroyRangeReverseINS_9allocatorINS_6vectorIdNS2_IdEEEEEEPS5_EEEENS_28__exception_guard_exceptionsIT_EESA_, symObjAddr: 0x1BC44, symBinAddr: 0x10001C984, symSize: 0x4C }
  - { offset: 0x32E36, size: 0x8, addend: 0x0, symName: __ZNSt3__119__allocator_destroyB8ne180100INS_9allocatorINS_6vectorIdNS1_IdEEEEEENS_16reverse_iteratorIPS4_EES8_EEvRT_T0_T1_, symObjAddr: 0x1BED4, symBinAddr: 0x10001CC14, symSize: 0x70 }
  - { offset: 0x32EEC, size: 0x8, addend: 0x0, symName: __ZNSt3__112__to_addressB8ne180100IiEEPT_S2_, symObjAddr: 0x1C2B0, symBinAddr: 0x10001CFF0, symSize: 0x14 }
  - { offset: 0x32F21, size: 0x8, addend: 0x0, symName: __ZNSt3__119__str_find_first_ofB8ne180100IcmNS_11char_traitsIcEETnT0_Lm18446744073709551615EEES3_PKT_S3_S6_S3_S3_, symObjAddr: 0x1CB00, symBinAddr: 0x10001D840, symSize: 0xE0 }
  - { offset: 0x32FC8, size: 0x8, addend: 0x0, symName: __ZNSt3__118__find_first_of_ceB8ne180100IPKcS2_RDoFbccEEET_S5_S5_T0_S6_OT1_, symObjAddr: 0x1CBE0, symBinAddr: 0x10001D920, symSize: 0xC8 }
  - { offset: 0x33064, size: 0x8, addend: 0x0, symName: __ZNSt3__119__allocate_at_leastB8ne180100INS_9allocatorINS_12basic_stringIcNS_11char_traitsIcEENS1_IcEEEEEEEENS_19__allocation_resultINS_16allocator_traitsIT_E7pointerEEERSA_m, symObjAddr: 0x1D588, symBinAddr: 0x10001E2C8, symSize: 0x40 }
  - { offset: 0x330A7, size: 0x8, addend: 0x0, symName: __ZNSt3__142__uninitialized_allocator_move_if_noexceptB8ne180100INS_9allocatorINS_12basic_stringIcNS_11char_traitsIcEENS1_IcEEEEEENS_16reverse_iteratorIPS6_EESA_SA_EET2_RT_T0_T1_SB_, symObjAddr: 0x1D768, symBinAddr: 0x10001E4A8, symSize: 0x12C }
  - { offset: 0x33147, size: 0x8, addend: 0x0, symName: __ZNSt3__14swapB8ne180100IPNS_12basic_stringIcNS_11char_traitsIcEENS_9allocatorIcEEEEEENS_9enable_ifIXaasr21is_move_constructibleIT_EE5valuesr18is_move_assignableIS9_EE5valueEvE4typeERS9_SC_, symObjAddr: 0x1D8E0, symBinAddr: 0x10001E620, symSize: 0x3C }
  - { offset: 0x33198, size: 0x8, addend: 0x0, symName: __ZNSt3__122__make_exception_guardB8ne180100INS_29_AllocatorDestroyRangeReverseINS_9allocatorINS_12basic_stringIcNS_11char_traitsIcEENS2_IcEEEEEENS_16reverse_iteratorIPS7_EEEEEENS_28__exception_guard_exceptionsIT_EESE_, symObjAddr: 0x1D930, symBinAddr: 0x10001E670, symSize: 0x4C }
  - { offset: 0x331CE, size: 0x8, addend: 0x0, symName: __ZNSt3__1neB8ne180100IPNS_12basic_stringIcNS_11char_traitsIcEENS_9allocatorIcEEEES7_EEbRKNS_16reverse_iteratorIT_EERKNS8_IT0_EE, symObjAddr: 0x1D9C0, symBinAddr: 0x10001E700, symSize: 0x44 }
  - { offset: 0x3321A, size: 0x8, addend: 0x0, symName: __ZNSt3__112__to_addressB8ne180100INS_16reverse_iteratorIPNS_12basic_stringIcNS_11char_traitsIcEENS_9allocatorIcEEEEEEvEEu7__decayIDTclsr19__to_address_helperIT_EE6__callclsr3stdE7declvalIRKSA_EEEEESC_, symObjAddr: 0x1DA04, symBinAddr: 0x10001E744, symSize: 0x24 }
  - { offset: 0x3327A, size: 0x8, addend: 0x0, symName: __ZNSt3__119__allocator_destroyB8ne180100INS_9allocatorINS_12basic_stringIcNS_11char_traitsIcEENS1_IcEEEEEENS_16reverse_iteratorINS8_IPS6_EEEESB_EEvRT_T0_T1_, symObjAddr: 0x1DCB0, symBinAddr: 0x10001E9F0, symSize: 0x70 }
  - { offset: 0x332DF, size: 0x8, addend: 0x0, symName: __ZNSt3__1neB8ne180100INS_16reverse_iteratorIPNS_12basic_stringIcNS_11char_traitsIcEENS_9allocatorIcEEEEEES9_EEbRKNS1_IT_EERKNS1_IT0_EE, symObjAddr: 0x1DD5C, symBinAddr: 0x10001EA9C, symSize: 0x5C }
  - { offset: 0x3332B, size: 0x8, addend: 0x0, symName: __ZNSt3__112__to_addressB8ne180100INS_16reverse_iteratorINS1_IPNS_12basic_stringIcNS_11char_traitsIcEENS_9allocatorIcEEEEEEEEvEEu7__decayIDTclsr19__to_address_helperIT_EE6__callclsr3stdE7declvalIRKSB_EEEEESD_, symObjAddr: 0x1DDE4, symBinAddr: 0x10001EB24, symSize: 0x24 }
  - { offset: 0x3338A, size: 0x8, addend: 0x0, symName: __ZNSt3__17getlineB8ne180100IcNS_11char_traitsIcEENS_9allocatorIcEEEERNS_13basic_istreamIT_T0_EES9_RNS_12basic_stringIS6_S7_T1_EES6_, symObjAddr: 0x1E588, symBinAddr: 0x10001F2C8, symSize: 0x224 }
  - { offset: 0x33448, size: 0x8, addend: 0x0, symName: __ZNSt3__115allocate_sharedB8ne180100I4NodeNS_9allocatorIS1_EEJddRmEvEENS_10shared_ptrIT_EERKT0_DpOT1_, symObjAddr: 0x1F20C, symBinAddr: 0x10001FF4C, symSize: 0xA8 }
  - { offset: 0x334EA, size: 0x8, addend: 0x0, symName: __ZNSt3__122__make_exception_guardB8ne180100INS_6vectorIcNS_9allocatorIcEEE16__destroy_vectorEEENS_28__exception_guard_exceptionsIT_EES7_, symObjAddr: 0x1F610, symBinAddr: 0x100020350, symSize: 0x40 }
  - { offset: 0x3351F, size: 0x8, addend: 0x0, symName: __ZNSt3__119__allocate_at_leastB8ne180100INS_9allocatorIcEEEENS_19__allocation_resultINS_16allocator_traitsIT_E7pointerEEERS5_m, symObjAddr: 0x1F988, symBinAddr: 0x1000206C8, symSize: 0x40 }
  - { offset: 0x33562, size: 0x8, addend: 0x0, symName: __ZNSt3__122__make_exception_guardB8ne180100INS_6vectorINS1_IcNS_9allocatorIcEEEENS2_IS4_EEE16__destroy_vectorEEENS_28__exception_guard_exceptionsIT_EES9_, symObjAddr: 0x20000, symBinAddr: 0x100020D40, symSize: 0x40 }
  - { offset: 0x33597, size: 0x8, addend: 0x0, symName: __ZNSt3__119__allocate_at_leastB8ne180100INS_9allocatorINS_6vectorIcNS1_IcEEEEEEEENS_19__allocation_resultINS_16allocator_traitsIT_E7pointerEEERS8_m, symObjAddr: 0x203F4, symBinAddr: 0x100021134, symSize: 0x40 }
  - { offset: 0x335DA, size: 0x8, addend: 0x0, symName: __ZNSt3__112__to_addressB8ne180100INS_6vectorIcNS_9allocatorIcEEEEEEPT_S6_, symObjAddr: 0x2066C, symBinAddr: 0x1000213AC, symSize: 0x14 }
  - { offset: 0x3360F, size: 0x8, addend: 0x0, symName: __ZNSt3__130__uninitialized_allocator_copyB8ne180100INS_9allocatorIcEEPcS3_S3_EET2_RT_T0_T1_S4_, symObjAddr: 0x209F8, symBinAddr: 0x100021738, symSize: 0x80 }
  - { offset: 0x336AC, size: 0x8, addend: 0x0, symName: __ZNSt3__114__unwrap_rangeB8ne180100IPcS1_EENS_4pairIT0_S3_EET_S5_, symObjAddr: 0x20A78, symBinAddr: 0x1000217B8, symSize: 0x60 }
  - { offset: 0x336F8, size: 0x8, addend: 0x0, symName: __ZNSt3__135__uninitialized_allocator_copy_implB8ne180100INS_9allocatorIcEEcccTnPNS_9enable_ifIXaaaaaasr31is_trivially_copy_constructibleIT1_EE5valuesr28is_trivially_copy_assignableIS4_EE5valuesr7is_sameIu14__remove_constIT0_Eu14__remove_constIT2_EEE5valuesr38__allocator_has_trivial_copy_constructIT_S4_EE5valueEvE4typeELPv0EEEPS7_RS9_PS5_SG_SE_, symObjAddr: 0x20AD8, symBinAddr: 0x100021818, symSize: 0x38 }
  - { offset: 0x3377A, size: 0x8, addend: 0x0, symName: __ZNSt3__113__unwrap_iterB8ne180100IPcNS_18__unwrap_iter_implIS1_Lb1EEETnNS_9enable_ifIXsr21is_copy_constructibleIT_EE5valueEiE4typeELi0EEEDTclsrT0_8__unwrapclsr3stdE7declvalIS5_EEEES5_, symObjAddr: 0x20B10, symBinAddr: 0x100021850, symSize: 0x24 }
  - { offset: 0x337BE, size: 0x8, addend: 0x0, symName: __ZNSt3__113__rewrap_iterB8ne180100IPcS1_NS_18__unwrap_iter_implIS1_Lb1EEEEET_S4_T0_, symObjAddr: 0x20B34, symBinAddr: 0x100021874, symSize: 0x3C }
  - { offset: 0x33813, size: 0x8, addend: 0x0, symName: __ZNSt3__19make_pairB8ne180100IPcS1_EENS_4pairINS_18__unwrap_ref_decayIT_E4typeENS3_IT0_E4typeEEEOS4_OS7_, symObjAddr: 0x20B70, symBinAddr: 0x1000218B0, symSize: 0x38 }
  - { offset: 0x33965, size: 0x8, addend: 0x0, symName: __ZNSt3__14copyB8ne180100IPcS1_EET0_T_S3_S2_, symObjAddr: 0x20C18, symBinAddr: 0x100021958, symSize: 0x40 }
  - { offset: 0x339BF, size: 0x8, addend: 0x0, symName: __ZNSt3__16__copyB8ne180100INS_17_ClassicAlgPolicyEPcS2_S2_EENS_4pairIT0_T2_EES4_T1_S5_, symObjAddr: 0x20C58, symBinAddr: 0x100021998, symSize: 0x44 }
  - { offset: 0x33A2B, size: 0x8, addend: 0x0, symName: __ZNSt3__123__dispatch_copy_or_moveB8ne180100INS_17_ClassicAlgPolicyENS_11__copy_loopIS1_EENS_14__copy_trivialEPcS5_S5_EENS_4pairIT2_T4_EES7_T3_S8_, symObjAddr: 0x20C9C, symBinAddr: 0x1000219DC, symSize: 0x44 }
  - { offset: 0x33AA9, size: 0x8, addend: 0x0, symName: __ZNSt3__121__unwrap_and_dispatchB8ne180100INS_10__overloadINS_11__copy_loopINS_17_ClassicAlgPolicyEEENS_14__copy_trivialEEEPcS7_S7_TnNS_9enable_ifIXsr12__can_rewrapIT0_T1_T2_EE5valueEiE4typeELi0EEENS_4pairIS9_SB_EES9_SA_SB_, symObjAddr: 0x20CE0, symBinAddr: 0x100021A20, symSize: 0xB4 }
  - { offset: 0x33B37, size: 0x8, addend: 0x0, symName: __ZNSt3__114__rewrap_rangeB8ne180100IPcS1_EET_S2_T0_, symObjAddr: 0x20DDC, symBinAddr: 0x100021B1C, symSize: 0x2C }
  - { offset: 0x33B83, size: 0x8, addend: 0x0, symName: __ZNSt3__119__copy_trivial_implB8ne180100IccEENS_4pairIPT_PT0_EES3_S3_S5_, symObjAddr: 0x20E08, symBinAddr: 0x100021B48, symSize: 0x78 }
  - { offset: 0x33BEB, size: 0x8, addend: 0x0, symName: __ZNSt3__119__constexpr_memmoveB8ne180100IccTnNS_9enable_ifIXsr23__is_always_bitcastableIT0_T_EE5valueEiE4typeELi0EEEPS3_S6_PS2_NS_15__element_countE, symObjAddr: 0x20E80, symBinAddr: 0x100021BC0, symSize: 0x60 }
  - { offset: 0x33C59, size: 0x8, addend: 0x0, symName: __ZNSt3__19make_pairB8ne180100IRPcS1_EENS_4pairINS_18__unwrap_ref_decayIT_E4typeENS4_IT0_E4typeEEEOS5_OS8_, symObjAddr: 0x20EE0, symBinAddr: 0x100021C20, symSize: 0x38 }
  - { offset: 0x33CFB, size: 0x8, addend: 0x0, symName: __ZNSt3__112__destroy_atB8ne180100INS_11__hash_nodeINS_17__hash_value_typeINS_4pairIddEEmEEPvEETnNS_9enable_ifIXntsr8is_arrayIT_EE5valueEiE4typeELi0EEEvPS9_, symObjAddr: 0x21BB4, symBinAddr: 0x1000228F4, symSize: 0x24 }
  - { offset: 0x33D66, size: 0x8, addend: 0x0, symName: __ZNSt3__112__destroy_atB8ne180100INS_4pairIKNS1_IddEEmEETnNS_9enable_ifIXntsr8is_arrayIT_EE5valueEiE4typeELi0EEEvPS6_, symObjAddr: 0x21C58, symBinAddr: 0x100022998, symSize: 0x10 }
  - { offset: 0x33D9D, size: 0x8, addend: 0x0, symName: __ZNSt3__17launderB8ne180100INS_4pairIKNS1_IddEEmEEEEPT_S6_, symObjAddr: 0x21C8C, symBinAddr: 0x1000229CC, symSize: 0x24 }
  - { offset: 0x33DD5, size: 0x8, addend: 0x0, symName: __ZNSt3__19__launderB8ne180100INS_4pairIKNS1_IddEEmEEEEPT_S6_, symObjAddr: 0x21CB0, symBinAddr: 0x1000229F0, symSize: 0x14 }
  - { offset: 0x33E0C, size: 0x8, addend: 0x0, symName: __ZNSt3__115allocate_sharedB8ne180100I4NodeNS_9allocatorIS1_EEJRiS4_RmEvEENS_10shared_ptrIT_EERKT0_DpOT1_, symObjAddr: 0x21FF0, symBinAddr: 0x100022D30, symSize: 0xA8 }
  - { offset: 0x33EE5, size: 0x8, addend: 0x0, symName: __ZNSt3__116forward_as_tupleB8ne180100IJNS_4pairIddEEEEENS_5tupleIJDpOT_EEES6_, symObjAddr: 0x226E0, symBinAddr: 0x100023420, symSize: 0x2C }
  - { offset: 0x33F1F, size: 0x8, addend: 0x0, symName: __ZNSt3__116forward_as_tupleB8ne180100IJEEENS_5tupleIJDpOT_EEES4_, symObjAddr: 0x2270C, symBinAddr: 0x10002344C, symSize: 0x4 }
  - { offset: 0x33FD7, size: 0x8, addend: 0x0, symName: __ZNSt3__1eqB8ne180100IddddEEbRKNS_4pairIT_T0_EERKNS1_IT1_T2_EE, symObjAddr: 0x22E30, symBinAddr: 0x100023B70, symSize: 0x60 }
  - { offset: 0x34038, size: 0x8, addend: 0x0, symName: __ZNSt3__17launderB8ne180100IKNS_4pairIKNS1_IddEEmEEEEPT_S7_, symObjAddr: 0x22E90, symBinAddr: 0x100023BD0, symSize: 0x24 }
  - { offset: 0x34070, size: 0x8, addend: 0x0, symName: __ZNSt3__19__launderB8ne180100IKNS_4pairIKNS1_IddEEmEEEEPT_S7_, symObjAddr: 0x22EB4, symBinAddr: 0x100023BF4, symSize: 0x14 }
  - { offset: 0x340EC, size: 0x8, addend: 0x0, symName: __ZNSt3__114__construct_atB8ne180100INS_11__hash_nodeINS_17__hash_value_typeINS_4pairIddEEmEEPvEEJDnRmEPS7_EEPT_SB_DpOT0_, symObjAddr: 0x22F70, symBinAddr: 0x100023CB0, symSize: 0x48 }
  - { offset: 0x34171, size: 0x8, addend: 0x0, symName: __ZNSt3__13getB8ne180100ILm0EJONS_4pairIddEEEEERNS_13tuple_elementIXT_ENS_5tupleIJDpT0_EEEE4typeERS8_, symObjAddr: 0x23400, symBinAddr: 0x100024140, symSize: 0x24 }
  - { offset: 0x341FC, size: 0x8, addend: 0x0, symName: __ZNSt3__18distanceB8ne180100INS_11__wrap_iterIP4EdgeEEEENS_15iterator_traitsIT_E15difference_typeES6_S6_, symObjAddr: 0x244F4, symBinAddr: 0x100025234, symSize: 0x3C }
  - { offset: 0x3423F, size: 0x8, addend: 0x0, symName: __ZNSt3__1miB8ne180100IPK4EdgePS1_EEDTmicldtfp_4baseEcldtfp0_4baseEERKNS_11__wrap_iterIT_EERKNS6_IT0_EE, symObjAddr: 0x24530, symBinAddr: 0x100025270, symSize: 0x48 }
  - { offset: 0x3428B, size: 0x8, addend: 0x0, symName: __ZNSt3__14nextB8ne180100INS_11__wrap_iterIP4EdgeEETnNS_9enable_ifIXsr29__has_input_iterator_categoryIT_EE5valueEiE4typeELi0EEES6_S6_NS_15iterator_traitsIS6_E15difference_typeE, symObjAddr: 0x24578, symBinAddr: 0x1000252B8, symSize: 0x3C }
  - { offset: 0x342D4, size: 0x8, addend: 0x0, symName: __ZNSt3__14copyB8ne180100INS_11__wrap_iterIP4EdgeEES3_EET0_T_S6_S5_, symObjAddr: 0x247C0, symBinAddr: 0x100025500, symSize: 0x50 }
  - { offset: 0x3432E, size: 0x8, addend: 0x0, symName: __ZNSt3__121__convert_to_integralB8ne180100El, symObjAddr: 0x24A28, symBinAddr: 0x100025768, symSize: 0x14 }
  - { offset: 0x3435A, size: 0x8, addend: 0x0, symName: __ZNSt3__19__advanceB8ne180100INS_11__wrap_iterIP4EdgeEEEEvRT_NS_15iterator_traitsIS5_E15difference_typeENS_26random_access_iterator_tagE, symObjAddr: 0x24A3C, symBinAddr: 0x10002577C, symSize: 0x2C }
  - { offset: 0x343A3, size: 0x8, addend: 0x0, symName: __ZNSt3__130__uninitialized_allocator_copyB8ne180100INS_9allocatorI4EdgeEENS_11__wrap_iterIPS2_EES6_S5_EET2_RT_T0_T1_S7_, symObjAddr: 0x24A98, symBinAddr: 0x1000257D8, symSize: 0x90 }
  - { offset: 0x34440, size: 0x8, addend: 0x0, symName: __ZNSt3__114__unwrap_rangeB8ne180100INS_11__wrap_iterIP4EdgeEES3_EENS_4pairIT0_S6_EET_S8_, symObjAddr: 0x24B28, symBinAddr: 0x100025868, symSize: 0x70 }
  - { offset: 0x3448C, size: 0x8, addend: 0x0, symName: __ZNSt3__113__unwrap_iterB8ne180100INS_11__wrap_iterIP4EdgeEENS_18__unwrap_iter_implIS4_Lb1EEETnNS_9enable_ifIXsr21is_copy_constructibleIT_EE5valueEiE4typeELi0EEEDTclsrT0_8__unwrapclsr3stdE7declvalIS8_EEEES8_, symObjAddr: 0x24B98, symBinAddr: 0x1000258D8, symSize: 0x2C }
  - { offset: 0x34523, size: 0x8, addend: 0x0, symName: __ZNSt3__112__to_addressB8ne180100INS_11__wrap_iterIP4EdgeEEvEEu7__decayIDTclsr19__to_address_helperIT_EE6__callclsr3stdE7declvalIRKS5_EEEEES7_, symObjAddr: 0x24BEC, symBinAddr: 0x10002592C, symSize: 0x24 }
  - { offset: 0x345FE, size: 0x8, addend: 0x0, symName: __ZNSt3__113move_backwardB8ne180100IP4EdgeS2_EET0_T_S4_S3_, symObjAddr: 0x24C6C, symBinAddr: 0x1000259AC, symSize: 0x40 }
  - { offset: 0x34658, size: 0x8, addend: 0x0, symName: __ZNSt3__115__move_backwardB8ne180100INS_17_ClassicAlgPolicyEP4EdgeS3_S3_EENS_4pairIT0_T2_EES5_T1_S6_, symObjAddr: 0x24CAC, symBinAddr: 0x1000259EC, symSize: 0x44 }
  - { offset: 0x346C4, size: 0x8, addend: 0x0, symName: __ZNSt3__123__dispatch_copy_or_moveB8ne180100INS_17_ClassicAlgPolicyENS_20__move_backward_loopIS1_EENS_23__move_backward_trivialEP4EdgeS6_S6_EENS_4pairIT2_T4_EES8_T3_S9_, symObjAddr: 0x24CF0, symBinAddr: 0x100025A30, symSize: 0x44 }
  - { offset: 0x34742, size: 0x8, addend: 0x0, symName: __ZNSt3__121__unwrap_and_dispatchB8ne180100INS_10__overloadINS_20__move_backward_loopINS_17_ClassicAlgPolicyEEENS_23__move_backward_trivialEEEP4EdgeS8_S8_TnNS_9enable_ifIXsr12__can_rewrapIT0_T1_T2_EE5valueEiE4typeELi0EEENS_4pairISA_SC_EESA_SB_SC_, symObjAddr: 0x24D34, symBinAddr: 0x100025A74, symSize: 0xB4 }
  - { offset: 0x34822, size: 0x8, addend: 0x0, symName: __ZNSt3__114__rewrap_rangeB8ne180100IP4EdgeS2_EET_S3_T0_, symObjAddr: 0x24E88, symBinAddr: 0x100025BC8, symSize: 0x2C }
  - { offset: 0x34879, size: 0x8, addend: 0x0, symName: __ZNSt3__16__copyB8ne180100INS_17_ClassicAlgPolicyENS_11__wrap_iterIP4EdgeEES5_S4_EENS_4pairIT0_T2_EES7_T1_S8_, symObjAddr: 0x24F40, symBinAddr: 0x100025C80, symSize: 0x54 }
  - { offset: 0x348E5, size: 0x8, addend: 0x0, symName: __ZNSt3__123__dispatch_copy_or_moveB8ne180100INS_17_ClassicAlgPolicyENS_11__copy_loopIS1_EENS_14__copy_trivialENS_11__wrap_iterIP4EdgeEES8_S7_EENS_4pairIT2_T4_EESA_T3_SB_, symObjAddr: 0x24F94, symBinAddr: 0x100025CD4, symSize: 0x54 }
  - { offset: 0x34963, size: 0x8, addend: 0x0, symName: __ZNSt3__121__unwrap_and_dispatchB8ne180100INS_10__overloadINS_11__copy_loopINS_17_ClassicAlgPolicyEEENS_14__copy_trivialEEENS_11__wrap_iterIP4EdgeEESA_S9_TnNS_9enable_ifIXsr12__can_rewrapIT0_T1_T2_EE5valueEiE4typeELi0EEENS_4pairISC_SE_EESC_SD_SE_, symObjAddr: 0x24FE8, symBinAddr: 0x100025D28, symSize: 0xCC }
  - { offset: 0x34A43, size: 0x8, addend: 0x0, symName: __ZNSt3__19make_pairB8ne180100INS_11__wrap_iterIP4EdgeEES3_EENS_4pairINS_18__unwrap_ref_decayIT_E4typeENS6_IT0_E4typeEEEOS7_OSA_, symObjAddr: 0x25138, symBinAddr: 0x100025E78, symSize: 0x38 }
  - { offset: 0x34A92, size: 0x8, addend: 0x0, symName: __ZNSt3__114__rewrap_rangeB8ne180100INS_11__wrap_iterIP4EdgeEES3_EET_S5_T0_, symObjAddr: 0x25170, symBinAddr: 0x100025EB0, symSize: 0x3C }
  - { offset: 0x34ADE, size: 0x8, addend: 0x0, symName: __ZNSt3__18distanceB8ne180100IPdEENS_15iterator_traitsIT_E15difference_typeES3_S3_, symObjAddr: 0x25450, symBinAddr: 0x100026190, symSize: 0x2C }
  - { offset: 0x34B21, size: 0x8, addend: 0x0, symName: __ZNSt3__14nextB8ne180100IPdTnNS_9enable_ifIXsr29__has_input_iterator_categoryIT_EE5valueEiE4typeELi0EEES3_S3_NS_15iterator_traitsIS3_E15difference_typeE, symObjAddr: 0x2547C, symBinAddr: 0x1000261BC, symSize: 0x34 }
  - { offset: 0x34B6B, size: 0x8, addend: 0x0, symName: __ZNSt3__19__advanceB8ne180100IPdEEvRT_NS_15iterator_traitsIS2_E15difference_typeENS_26random_access_iterator_tagE, symObjAddr: 0x25534, symBinAddr: 0x100026274, symSize: 0x28 }
  - { offset: 0x34BB4, size: 0x8, addend: 0x0, symName: __ZNSt3__110__distanceB8ne180100IPdEENS_15iterator_traitsIT_E15difference_typeES3_S3_NS_26random_access_iterator_tagE, symObjAddr: 0x2555C, symBinAddr: 0x10002629C, symSize: 0x28 }
  - { offset: 0x34CD5, size: 0x8, addend: 0x0, symName: __ZNSt3__113__rewrap_iterB8ne180100INS_11__wrap_iterIP4EdgeEES3_NS_18__unwrap_iter_implIS4_Lb1EEEEET_S7_T0_, symObjAddr: 0x255F4, symBinAddr: 0x100026334, symSize: 0x4C }
  - { offset: 0x34D2A, size: 0x8, addend: 0x0, symName: __ZNSt3__142__uninitialized_allocator_move_if_noexceptB8ne180100INS_9allocatorI4EdgeEEPS2_S4_S4_EET2_RT_T0_T1_S5_, symObjAddr: 0x257AC, symBinAddr: 0x1000264EC, symSize: 0xF0 }
  - { offset: 0x34DC8, size: 0x8, addend: 0x0, symName: __ZNSt3__110__distanceB8ne180100INS_11__wrap_iterIP4EdgeEEEENS_15iterator_traitsIT_E15difference_typeES6_S6_NS_26random_access_iterator_tagE, symObjAddr: 0x2589C, symBinAddr: 0x1000265DC, symSize: 0x30 }
  - { offset: 0x34E15, size: 0x8, addend: 0x0, symName: __ZNSt3__1miB8ne180100IP4EdgeS2_EEDTmicldtfp_4baseEcldtfp0_4baseEERKNS_11__wrap_iterIT_EERKNS4_IT0_EE, symObjAddr: 0x258CC, symBinAddr: 0x10002660C, symSize: 0x48 }
  - { offset: 0x34FC4, size: 0x8, addend: 0x0, symName: __ZNSt3__116forward_as_tupleB8ne180100IJ9h_functorEEENS_5tupleIJDpOT_EEES5_, symObjAddr: 0x261F0, symBinAddr: 0x100026F30, symSize: 0x2C }
  - { offset: 0x34FFD, size: 0x8, addend: 0x0, symName: __ZNSt3__116forward_as_tupleB8ne180100IJNS_9allocatorI9h_functorEEEEENS_5tupleIJDpOT_EEES7_, symObjAddr: 0x2621C, symBinAddr: 0x100026F5C, symSize: 0x2C }
  - { offset: 0x35060, size: 0x8, addend: 0x0, symName: __ZNSt3__13getB8ne180100ILm0EJO9h_functorEEERNS_13tuple_elementIXT_ENS_5tupleIJDpT0_EEEE4typeERS7_, symObjAddr: 0x26534, symBinAddr: 0x100027274, symSize: 0x24 }
  - { offset: 0x350A3, size: 0x8, addend: 0x0, symName: __ZNSt3__13getB8ne180100ILm0EJONS_9allocatorI9h_functorEEEEERNS_13tuple_elementIXT_ENS_5tupleIJDpT0_EEEE4typeERS9_, symObjAddr: 0x26570, symBinAddr: 0x1000272B0, symSize: 0x24 }
  - { offset: 0x355C2, size: 0x8, addend: 0x0, symName: __ZNSt3__116forward_as_tupleB8ne180100IJRK9h_functorEEENS_5tupleIJDpOT_EEES7_, symObjAddr: 0x26AF8, symBinAddr: 0x100027838, symSize: 0x2C }
  - { offset: 0x35610, size: 0x8, addend: 0x0, symName: __ZNSt3__13getB8ne180100ILm0EJRK9h_functorEEERNS_13tuple_elementIXT_ENS_5tupleIJDpT0_EEEE4typeERS8_, symObjAddr: 0x26CE8, symBinAddr: 0x100027A28, symSize: 0x24 }
  - { offset: 0x35653, size: 0x8, addend: 0x0, symName: __ZNSt3__116forward_as_tupleB8ne180100IJRKNS_9allocatorI9h_functorEEEEENS_5tupleIJDpOT_EEES9_, symObjAddr: 0x27034, symBinAddr: 0x100027D74, symSize: 0x2C }
  - { offset: 0x356A1, size: 0x8, addend: 0x0, symName: __ZNSt3__13getB8ne180100ILm0EJRKNS_9allocatorI9h_functorEEEEERNS_13tuple_elementIXT_ENS_5tupleIJDpT0_EEEE4typeERSA_, symObjAddr: 0x27218, symBinAddr: 0x100027F58, symSize: 0x24 }
  - { offset: 0x35733, size: 0x8, addend: 0x0, symName: __ZNSt3__18__invokeB8ne180100IR9h_functorJRKNS_10shared_ptrI4NodeEES7_EEEDTclclsr3stdE7declvalIT_EEspclsr3stdE7declvalIT0_EEEEOS8_DpOS9_, symObjAddr: 0x272F4, symBinAddr: 0x100028034, symSize: 0x34 }
  - { offset: 0x35798, size: 0x8, addend: 0x0, symName: __ZNSt3__116forward_as_tupleB8ne180100IJRKNS_12basic_stringIcNS_11char_traitsIcEENS_9allocatorIcEEEEEEENS_5tupleIJDpOT_EEESC_, symObjAddr: 0x27B74, symBinAddr: 0x1000288B4, symSize: 0x2C }
  - { offset: 0x357D1, size: 0x8, addend: 0x0, symName: __ZNSt3__116__do_string_hashB8ne180100IPKcEEmT_S3_, symObjAddr: 0x28140, symBinAddr: 0x100028E80, symSize: 0x3C }
  - { offset: 0x35817, size: 0x8, addend: 0x0, symName: __ZNSt3__110__loadwordB8ne180100ImEET_PKv, symObjAddr: 0x28B1C, symBinAddr: 0x10002985C, symSize: 0x20 }
  - { offset: 0x3585A, size: 0x8, addend: 0x0, symName: __ZNSt3__14swapB8ne180100ImEENS_9enable_ifIXaasr21is_move_constructibleIT_EE5valuesr18is_move_assignableIS2_EE5valueEvE4typeERS2_S5_, symObjAddr: 0x28CD0, symBinAddr: 0x100029A10, symSize: 0x3C }
  - { offset: 0x358AB, size: 0x8, addend: 0x0, symName: __ZNSt3__110__loadwordB8ne180100IjEET_PKv, symObjAddr: 0x28D60, symBinAddr: 0x100029AA0, symSize: 0x20 }
  - { offset: 0x358EE, size: 0x8, addend: 0x0, symName: __ZNSt3__1eqB8ne180100INS_9allocatorIcEEEEbRKNS_12basic_stringIcNS_11char_traitsIcEET_EES9_, symObjAddr: 0x29038, symBinAddr: 0x100029D78, symSize: 0x134 }
  - { offset: 0x35961, size: 0x8, addend: 0x0, symName: __ZNSt3__17launderB8ne180100IKNS_4pairIKNS_12basic_stringIcNS_11char_traitsIcEENS_9allocatorIcEEEENS_6vectorINS9_ImNS5_ImEEEENS5_ISB_EEEEEEEEPT_SH_, symObjAddr: 0x291A0, symBinAddr: 0x100029EE0, symSize: 0x24 }
  - { offset: 0x35999, size: 0x8, addend: 0x0, symName: __ZNSt3__19__launderB8ne180100IKNS_4pairIKNS_12basic_stringIcNS_11char_traitsIcEENS_9allocatorIcEEEENS_6vectorINS9_ImNS5_ImEEEENS5_ISB_EEEEEEEEPT_SH_, symObjAddr: 0x291C4, symBinAddr: 0x100029F04, symSize: 0x14 }
  - { offset: 0x35A48, size: 0x8, addend: 0x0, symName: __ZNSt3__114__construct_atB8ne180100INS_11__hash_nodeINS_17__hash_value_typeINS_12basic_stringIcNS_11char_traitsIcEENS_9allocatorIcEEEENS_6vectorINS9_ImNS6_ImEEEENS6_ISB_EEEEEEPvEEJDnRmEPSG_EEPT_SK_DpOT0_, symObjAddr: 0x292BC, symBinAddr: 0x100029FFC, symSize: 0x48 }
  - { offset: 0x35ACD, size: 0x8, addend: 0x0, symName: __ZNSt3__13getB8ne180100ILm0EJRKNS_12basic_stringIcNS_11char_traitsIcEENS_9allocatorIcEEEEEEERNS_13tuple_elementIXT_ENS_5tupleIJDpT0_EEEE4typeERSD_, symObjAddr: 0x297A0, symBinAddr: 0x10002A4E0, symSize: 0x24 }
  - { offset: 0x35B10, size: 0x8, addend: 0x0, symName: __ZNSt3__112__destroy_atB8ne180100INS_11__hash_nodeINS_17__hash_value_typeINS_12basic_stringIcNS_11char_traitsIcEENS_9allocatorIcEEEENS_6vectorINS9_ImNS6_ImEEEENS6_ISB_EEEEEEPvEETnNS_9enable_ifIXntsr8is_arrayIT_EE5valueEiE4typeELi0EEEvPSI_, symObjAddr: 0x2A2B0, symBinAddr: 0x10002AFF0, symSize: 0x24 }
  - { offset: 0x35B47, size: 0x8, addend: 0x0, symName: __ZNSt3__112__destroy_atB8ne180100INS_4pairIKNS_12basic_stringIcNS_11char_traitsIcEENS_9allocatorIcEEEENS_6vectorINS9_ImNS5_ImEEEENS5_ISB_EEEEEETnNS_9enable_ifIXntsr8is_arrayIT_EE5valueEiE4typeELi0EEEvPSG_, symObjAddr: 0x2A308, symBinAddr: 0x10002B048, symSize: 0x24 }
  - { offset: 0x35B7E, size: 0x8, addend: 0x0, symName: __ZNSt3__112__to_addressB8ne180100INS_6vectorImNS_9allocatorImEEEEEEPT_S6_, symObjAddr: 0x2A664, symBinAddr: 0x10002B3A4, symSize: 0x14 }
  - { offset: 0x35BFB, size: 0x8, addend: 0x0, symName: __ZNSt3__17launderB8ne180100INS_4pairIKNS_12basic_stringIcNS_11char_traitsIcEENS_9allocatorIcEEEENS_6vectorINS9_ImNS5_ImEEEENS5_ISB_EEEEEEEEPT_SG_, symObjAddr: 0x2A958, symBinAddr: 0x10002B698, symSize: 0x24 }
  - { offset: 0x35C33, size: 0x8, addend: 0x0, symName: __ZNSt3__19__launderB8ne180100INS_4pairIKNS_12basic_stringIcNS_11char_traitsIcEENS_9allocatorIcEEEENS_6vectorINS9_ImNS5_ImEEEENS5_ISB_EEEEEEEEPT_SG_, symObjAddr: 0x2A97C, symBinAddr: 0x10002B6BC, symSize: 0x14 }
  - { offset: 0x35C6A, size: 0x8, addend: 0x0, symName: __ZNSt3__119__allocate_at_leastB8ne180100INS_9allocatorINS_6vectorImNS1_ImEEEEEEEENS_19__allocation_resultINS_16allocator_traitsIT_E7pointerEEERS8_m, symObjAddr: 0x2B38C, symBinAddr: 0x10002C0CC, symSize: 0x40 }
  - { offset: 0x35CAD, size: 0x8, addend: 0x0, symName: __ZNSt3__142__uninitialized_allocator_move_if_noexceptB8ne180100INS_9allocatorINS_6vectorImNS1_ImEEEEEENS_16reverse_iteratorIPS4_EES8_S8_EET2_RT_T0_T1_S9_, symObjAddr: 0x2B540, symBinAddr: 0x10002C280, symSize: 0x12C }
  - { offset: 0x35D4D, size: 0x8, addend: 0x0, symName: __ZNSt3__14swapB8ne180100IPNS_6vectorImNS_9allocatorImEEEEEENS_9enable_ifIXaasr21is_move_constructibleIT_EE5valuesr18is_move_assignableIS7_EE5valueEvE4typeERS7_SA_, symObjAddr: 0x2B6B8, symBinAddr: 0x10002C3F8, symSize: 0x3C }
  - { offset: 0x35D9E, size: 0x8, addend: 0x0, symName: __ZNSt3__122__make_exception_guardB8ne180100INS_29_AllocatorDestroyRangeReverseINS_9allocatorINS_6vectorImNS2_ImEEEEEENS_16reverse_iteratorIPS5_EEEEEENS_28__exception_guard_exceptionsIT_EESC_, symObjAddr: 0x2B708, symBinAddr: 0x10002C448, symSize: 0x4C }
  - { offset: 0x35DD4, size: 0x8, addend: 0x0, symName: __ZNSt3__1neB8ne180100IPNS_6vectorImNS_9allocatorImEEEES5_EEbRKNS_16reverse_iteratorIT_EERKNS6_IT0_EE, symObjAddr: 0x2B798, symBinAddr: 0x10002C4D8, symSize: 0x44 }
  - { offset: 0x35E20, size: 0x8, addend: 0x0, symName: __ZNSt3__112__to_addressB8ne180100INS_16reverse_iteratorIPNS_6vectorImNS_9allocatorImEEEEEEvEEu7__decayIDTclsr19__to_address_helperIT_EE6__callclsr3stdE7declvalIRKS8_EEEEESA_, symObjAddr: 0x2B7DC, symBinAddr: 0x10002C51C, symSize: 0x24 }
  - { offset: 0x35E80, size: 0x8, addend: 0x0, symName: __ZNSt3__119__allocator_destroyB8ne180100INS_9allocatorINS_6vectorImNS1_ImEEEEEENS_16reverse_iteratorINS6_IPS4_EEEES9_EEvRT_T0_T1_, symObjAddr: 0x2BA88, symBinAddr: 0x10002C7C8, symSize: 0x70 }
  - { offset: 0x35EE5, size: 0x8, addend: 0x0, symName: __ZNSt3__1neB8ne180100INS_16reverse_iteratorIPNS_6vectorImNS_9allocatorImEEEEEES7_EEbRKNS1_IT_EERKNS1_IT0_EE, symObjAddr: 0x2BB34, symBinAddr: 0x10002C874, symSize: 0x5C }
  - { offset: 0x35F31, size: 0x8, addend: 0x0, symName: __ZNSt3__112__to_addressB8ne180100INS_16reverse_iteratorINS1_IPNS_6vectorImNS_9allocatorImEEEEEEEEvEEu7__decayIDTclsr19__to_address_helperIT_EE6__callclsr3stdE7declvalIRKS9_EEEEESB_, symObjAddr: 0x2BB90, symBinAddr: 0x10002C8D0, symSize: 0x24 }
  - { offset: 0x35F90, size: 0x8, addend: 0x0, symName: __ZNSt3__122__make_exception_guardB8ne180100INS_6vectorImNS_9allocatorImEEE16__destroy_vectorEEENS_28__exception_guard_exceptionsIT_EES7_, symObjAddr: 0x2C044, symBinAddr: 0x10002CD84, symSize: 0x40 }
  - { offset: 0x35FC5, size: 0x8, addend: 0x0, symName: __ZNSt3__119__allocate_at_leastB8ne180100INS_9allocatorImEEEENS_19__allocation_resultINS_16allocator_traitsIT_E7pointerEEERS5_m, symObjAddr: 0x2C3EC, symBinAddr: 0x10002D12C, symSize: 0x40 }
  - { offset: 0x36008, size: 0x8, addend: 0x0, symName: __ZNSt3__130__uninitialized_allocator_copyB8ne180100INS_9allocatorImEEPKmS4_PmEET2_RT_T0_T1_S6_, symObjAddr: 0x2C568, symBinAddr: 0x10002D2A8, symSize: 0x80 }
  - { offset: 0x360A5, size: 0x8, addend: 0x0, symName: __ZNSt3__114__unwrap_rangeB8ne180100IPKmS2_EENS_4pairIT0_S4_EET_S6_, symObjAddr: 0x2C658, symBinAddr: 0x10002D398, symSize: 0x60 }
  - { offset: 0x360F1, size: 0x8, addend: 0x0, symName: __ZNSt3__135__uninitialized_allocator_copy_implB8ne180100INS_9allocatorImEEKmmmTnPNS_9enable_ifIXaaaaaasr31is_trivially_copy_constructibleIT1_EE5valuesr28is_trivially_copy_assignableIS5_EE5valuesr7is_sameIu14__remove_constIT0_Eu14__remove_constIT2_EEE5valuesr38__allocator_has_trivial_copy_constructIT_S5_EE5valueEvE4typeELPv0EEEPS8_RSA_PS6_SH_SF_, symObjAddr: 0x2C6B8, symBinAddr: 0x10002D3F8, symSize: 0x38 }
  - { offset: 0x36173, size: 0x8, addend: 0x0, symName: __ZNSt3__113__unwrap_iterB8ne180100IPmNS_18__unwrap_iter_implIS1_Lb1EEETnNS_9enable_ifIXsr21is_copy_constructibleIT_EE5valueEiE4typeELi0EEEDTclsrT0_8__unwrapclsr3stdE7declvalIS5_EEEES5_, symObjAddr: 0x2C6F0, symBinAddr: 0x10002D430, symSize: 0x24 }
  - { offset: 0x361B7, size: 0x8, addend: 0x0, symName: __ZNSt3__113__rewrap_iterB8ne180100IPmS1_NS_18__unwrap_iter_implIS1_Lb1EEEEET_S4_T0_, symObjAddr: 0x2C714, symBinAddr: 0x10002D454, symSize: 0x3C }
  - { offset: 0x3620C, size: 0x8, addend: 0x0, symName: __ZNSt3__19make_pairB8ne180100IPKmS2_EENS_4pairINS_18__unwrap_ref_decayIT_E4typeENS4_IT0_E4typeEEEOS5_OS8_, symObjAddr: 0x2C750, symBinAddr: 0x10002D490, symSize: 0x38 }
  - { offset: 0x3625B, size: 0x8, addend: 0x0, symName: __ZNSt3__113__unwrap_iterB8ne180100IPKmNS_18__unwrap_iter_implIS2_Lb1EEETnNS_9enable_ifIXsr21is_copy_constructibleIT_EE5valueEiE4typeELi0EEEDTclsrT0_8__unwrapclsr3stdE7declvalIS6_EEEES6_, symObjAddr: 0x2C788, symBinAddr: 0x10002D4C8, symSize: 0x24 }
  - { offset: 0x363C6, size: 0x8, addend: 0x0, symName: __ZNSt3__112__to_addressB8ne180100IKmEEPT_S3_, symObjAddr: 0x2C840, symBinAddr: 0x10002D580, symSize: 0x14 }
  - { offset: 0x363FB, size: 0x8, addend: 0x0, symName: __ZNSt3__14copyB8ne180100IPKmPmEET0_T_S5_S4_, symObjAddr: 0x2C854, symBinAddr: 0x10002D594, symSize: 0x40 }
  - { offset: 0x36455, size: 0x8, addend: 0x0, symName: __ZNSt3__16__copyB8ne180100INS_17_ClassicAlgPolicyEPKmS3_PmEENS_4pairIT0_T2_EES6_T1_S7_, symObjAddr: 0x2C894, symBinAddr: 0x10002D5D4, symSize: 0x44 }
  - { offset: 0x364C1, size: 0x8, addend: 0x0, symName: __ZNSt3__123__dispatch_copy_or_moveB8ne180100INS_17_ClassicAlgPolicyENS_11__copy_loopIS1_EENS_14__copy_trivialEPKmS6_PmEENS_4pairIT2_T4_EES9_T3_SA_, symObjAddr: 0x2C8D8, symBinAddr: 0x10002D618, symSize: 0x44 }
  - { offset: 0x3653F, size: 0x8, addend: 0x0, symName: __ZNSt3__121__unwrap_and_dispatchB8ne180100INS_10__overloadINS_11__copy_loopINS_17_ClassicAlgPolicyEEENS_14__copy_trivialEEEPKmS8_PmTnNS_9enable_ifIXsr12__can_rewrapIT0_T1_T2_EE5valueEiE4typeELi0EEENS_4pairISB_SD_EESB_SC_SD_, symObjAddr: 0x2C91C, symBinAddr: 0x10002D65C, symSize: 0xB4 }
  - { offset: 0x366D0, size: 0x8, addend: 0x0, symName: __ZNSt3__19make_pairB8ne180100IPKmPmEENS_4pairINS_18__unwrap_ref_decayIT_E4typeENS5_IT0_E4typeEEEOS6_OS9_, symObjAddr: 0x2CA18, symBinAddr: 0x10002D758, symSize: 0x38 }
  - { offset: 0x3671F, size: 0x8, addend: 0x0, symName: __ZNSt3__114__rewrap_rangeB8ne180100IPKmS2_EET_S3_T0_, symObjAddr: 0x2CA50, symBinAddr: 0x10002D790, symSize: 0x2C }
  - { offset: 0x3676B, size: 0x8, addend: 0x0, symName: __ZNSt3__119__copy_trivial_implB8ne180100IKmmEENS_4pairIPT_PT0_EES4_S4_S6_, symObjAddr: 0x2CA7C, symBinAddr: 0x10002D7BC, symSize: 0x80 }
  - { offset: 0x367D3, size: 0x8, addend: 0x0, symName: __ZNSt3__119__constexpr_memmoveB8ne180100ImKmTnNS_9enable_ifIXsr23__is_always_bitcastableIT0_T_EE5valueEiE4typeELi0EEEPS4_S7_PS3_NS_15__element_countE, symObjAddr: 0x2CAFC, symBinAddr: 0x10002D83C, symSize: 0x60 }
  - { offset: 0x36841, size: 0x8, addend: 0x0, symName: __ZNSt3__19make_pairB8ne180100IRPKmPmEENS_4pairINS_18__unwrap_ref_decayIT_E4typeENS6_IT0_E4typeEEEOS7_OSA_, symObjAddr: 0x2CB5C, symBinAddr: 0x10002D89C, symSize: 0x38 }
  - { offset: 0x36890, size: 0x8, addend: 0x0, symName: __ZNSt3__113__rewrap_iterB8ne180100IPKmS2_NS_18__unwrap_iter_implIS2_Lb1EEEEET_S5_T0_, symObjAddr: 0x2CC74, symBinAddr: 0x10002D9B4, symSize: 0x3C }
  - { offset: 0x36938, size: 0x8, addend: 0x0, symName: __ZNSt3__112__to_addressB8ne180100ImEEPT_S2_, symObjAddr: 0x2CD24, symBinAddr: 0x10002DA64, symSize: 0x14 }
  - { offset: 0x3696D, size: 0x8, addend: 0x0, symName: __ZNSt3__18distanceB8ne180100IPKcEENS_15iterator_traitsIT_E15difference_typeES4_S4_, symObjAddr: 0x2D450, symBinAddr: 0x10002E190, symSize: 0x2C }
  - { offset: 0x369B0, size: 0x8, addend: 0x0, symName: __ZNSt3__110__distanceB8ne180100IPKcEENS_15iterator_traitsIT_E15difference_typeES4_S4_NS_26random_access_iterator_tagE, symObjAddr: 0x2D620, symBinAddr: 0x10002E360, symSize: 0x20 }
  - { offset: 0x369FD, size: 0x8, addend: 0x0, symName: __ZNSt3__121__is_pointer_in_rangeB8ne180100IccTnNS_9enable_ifIXsr25__is_less_than_comparableIPKT_PKT0_EE5valueEiE4typeELi0EEEbS4_S4_S7_, symObjAddr: 0x2D640, symBinAddr: 0x10002E380, symSize: 0x68 }
  - { offset: 0x36A5D, size: 0x8, addend: 0x0, symName: __ZNSt3__1miB8ne180100IPKNS_12basic_stringIcNS_11char_traitsIcEENS_9allocatorIcEEEES8_EEDTmicldtfp_4baseEcldtfp0_4baseEERKNS_11__wrap_iterIT_EERKNSA_IT0_EE, symObjAddr: 0x2DAF0, symBinAddr: 0x10002E830, symSize: 0x48 }
  - { offset: 0x36AA9, size: 0x8, addend: 0x0, symName: __ZNSt3__14moveB8ne180100IPNS_12basic_stringIcNS_11char_traitsIcEENS_9allocatorIcEEEES7_EET0_T_S9_S8_, symObjAddr: 0x2DBB0, symBinAddr: 0x10002E8F0, symSize: 0x40 }
  - { offset: 0x36B03, size: 0x8, addend: 0x0, symName: __ZNSt3__16__moveB8ne180100INS_17_ClassicAlgPolicyEPNS_12basic_stringIcNS_11char_traitsIcEENS_9allocatorIcEEEES8_S8_EENS_4pairIT0_T2_EESA_T1_SB_, symObjAddr: 0x2DCD0, symBinAddr: 0x10002EA10, symSize: 0x44 }
  - { offset: 0x36B6F, size: 0x8, addend: 0x0, symName: __ZNSt3__123__dispatch_copy_or_moveB8ne180100INS_17_ClassicAlgPolicyENS_11__move_loopIS1_EENS_14__move_trivialEPNS_12basic_stringIcNS_11char_traitsIcEENS_9allocatorIcEEEESB_SB_EENS_4pairIT2_T4_EESD_T3_SE_, symObjAddr: 0x2DD14, symBinAddr: 0x10002EA54, symSize: 0x44 }
  - { offset: 0x36BED, size: 0x8, addend: 0x0, symName: __ZNSt3__121__unwrap_and_dispatchB8ne180100INS_10__overloadINS_11__move_loopINS_17_ClassicAlgPolicyEEENS_14__move_trivialEEEPNS_12basic_stringIcNS_11char_traitsIcEENS_9allocatorIcEEEESD_SD_TnNS_9enable_ifIXsr12__can_rewrapIT0_T1_T2_EE5valueEiE4typeELi0EEENS_4pairISF_SH_EESF_SG_SH_, symObjAddr: 0x2DD58, symBinAddr: 0x10002EA98, symSize: 0xB4 }
  - { offset: 0x36C7B, size: 0x8, addend: 0x0, symName: __ZNSt3__114__unwrap_rangeB8ne180100IPNS_12basic_stringIcNS_11char_traitsIcEENS_9allocatorIcEEEES7_EENS_4pairIT0_S9_EET_SB_, symObjAddr: 0x2DE0C, symBinAddr: 0x10002EB4C, symSize: 0x60 }
  - { offset: 0x36D9B, size: 0x8, addend: 0x0, symName: __ZNSt3__113__unwrap_iterB8ne180100IPNS_12basic_stringIcNS_11char_traitsIcEENS_9allocatorIcEEEENS_18__unwrap_iter_implIS7_Lb1EEETnNS_9enable_ifIXsr21is_copy_constructibleIT_EE5valueEiE4typeELi0EEEDTclsrT0_8__unwrapclsr3stdE7declvalISB_EEEESB_, symObjAddr: 0x2DEF8, symBinAddr: 0x10002EC38, symSize: 0x24 }
  - { offset: 0x36DDF, size: 0x8, addend: 0x0, symName: __ZNSt3__19make_pairB8ne180100IPNS_12basic_stringIcNS_11char_traitsIcEENS_9allocatorIcEEEES7_EENS_4pairINS_18__unwrap_ref_decayIT_E4typeENS9_IT0_E4typeEEEOSA_OSD_, symObjAddr: 0x2DF1C, symBinAddr: 0x10002EC5C, symSize: 0x38 }
  - { offset: 0x36E2E, size: 0x8, addend: 0x0, symName: __ZNSt3__114__rewrap_rangeB8ne180100IPNS_12basic_stringIcNS_11char_traitsIcEENS_9allocatorIcEEEES7_EET_S8_T0_, symObjAddr: 0x2DF54, symBinAddr: 0x10002EC94, symSize: 0x2C }
  - { offset: 0x36E7A, size: 0x8, addend: 0x0, symName: __ZNSt3__113__rewrap_iterB8ne180100IPNS_12basic_stringIcNS_11char_traitsIcEENS_9allocatorIcEEEES7_NS_18__unwrap_iter_implIS7_Lb1EEEEET_SA_T0_, symObjAddr: 0x2DF80, symBinAddr: 0x10002ECC0, symSize: 0x3C }
  - { offset: 0x36F2D, size: 0x8, addend: 0x0, symName: __ZNSt3__122__make_exception_guardB8ne180100INS_6vectorINS_12basic_stringIcNS_11char_traitsIcEENS_9allocatorIcEEEENS5_IS7_EEE16__destroy_vectorEEENS_28__exception_guard_exceptionsIT_EESC_, symObjAddr: 0x2E2C4, symBinAddr: 0x10002F004, symSize: 0x40 }
  - { offset: 0x36F62, size: 0x8, addend: 0x0, symName: __ZNSt3__130__uninitialized_allocator_copyB8ne180100INS_9allocatorINS_12basic_stringIcNS_11char_traitsIcEENS1_IcEEEEEEPS6_S8_S8_EET2_RT_T0_T1_S9_, symObjAddr: 0x2E4E0, symBinAddr: 0x10002F220, symSize: 0x80 }
  - { offset: 0x36FFF, size: 0x8, addend: 0x0, symName: __ZNSt3__135__uninitialized_allocator_copy_implB8ne180100INS_9allocatorINS_12basic_stringIcNS_11char_traitsIcEENS1_IcEEEEEEPS6_S8_S8_EET2_RT_T0_T1_S9_, symObjAddr: 0x2E560, symBinAddr: 0x10002F2A0, symSize: 0xF0 }
  - { offset: 0x3709D, size: 0x8, addend: 0x0, symName: __ZNSt3__122__make_exception_guardB8ne180100INS_29_AllocatorDestroyRangeReverseINS_9allocatorINS_12basic_stringIcNS_11char_traitsIcEENS2_IcEEEEEEPS7_EEEENS_28__exception_guard_exceptionsIT_EESC_, symObjAddr: 0x2E650, symBinAddr: 0x10002F390, symSize: 0x4C }
  - { offset: 0x370D4, size: 0x8, addend: 0x0, symName: __ZNSt3__119__allocator_destroyB8ne180100INS_9allocatorINS_12basic_stringIcNS_11char_traitsIcEENS1_IcEEEEEENS_16reverse_iteratorIPS6_EESA_EEvRT_T0_T1_, symObjAddr: 0x2E8E0, symBinAddr: 0x10002F620, symSize: 0x70 }
  - { offset: 0x37137, size: 0x8, addend: 0x0, symName: __ZNSt3__1neB8ne180100ERKNS_15__hash_iteratorIPNS_11__hash_nodeINS_17__hash_value_typeINS_12basic_stringIcNS_11char_traitsIcEENS_9allocatorIcEEEENS_6vectorINS9_ImNS6_ImEEEENS6_ISB_EEEEEEPvEEEESK_, symObjAddr: 0x2F25C, symBinAddr: 0x10002FF9C, symSize: 0x30 }
  - { offset: 0x37175, size: 0x8, addend: 0x0, symName: __ZNSt3__1eqB8ne180100ERKNS_15__hash_iteratorIPNS_11__hash_nodeINS_17__hash_value_typeINS_12basic_stringIcNS_11char_traitsIcEENS_9allocatorIcEEEENS_6vectorINS9_ImNS6_ImEEEENS6_ISB_EEEEEEPvEEEESK_, symObjAddr: 0x2F28C, symBinAddr: 0x10002FFCC, symSize: 0x2C }
  - { offset: 0x38DC1, size: 0x8, addend: 0x0, symName: __ZSt28__throw_bad_array_new_lengthB8ne180100v, symObjAddr: 0xA760, symBinAddr: 0x10000B4A0, symSize: 0x34 }
  - { offset: 0x3A0EA, size: 0x8, addend: 0x0, symName: __ZNSt3__16vectorINS_10shared_ptrI4NodeEENS_9allocatorIS3_EEE26__swap_out_circular_bufferERNS_14__split_bufferIS3_RS5_EE, symObjAddr: 0xC7AC, symBinAddr: 0x10000D4EC, symSize: 0x110 }
  - { offset: 0x3AC00, size: 0x8, addend: 0x0, symName: __ZNSt3__16vectorI4EdgeNS_9allocatorIS1_EEE26__swap_out_circular_bufferERNS_14__split_bufferIS1_RS3_EE, symObjAddr: 0x15AAC, symBinAddr: 0x1000167EC, symSize: 0x110 }
  - { offset: 0x3AC88, size: 0x8, addend: 0x0, symName: __ZNSt3__16vectorIdNS_9allocatorIdEEE26__swap_out_circular_bufferERNS_14__split_bufferIdRS2_EE, symObjAddr: 0x1731C, symBinAddr: 0x10001805C, symSize: 0x110 }
  - { offset: 0x3B0FC, size: 0x8, addend: 0x0, symName: __ZNSt3__16vectorINS0_IdNS_9allocatorIdEEEENS1_IS3_EEE26__swap_out_circular_bufferERNS_14__split_bufferIS3_RS4_EE, symObjAddr: 0x1A634, symBinAddr: 0x10001B374, symSize: 0x110 }
  - { offset: 0x3B4EC, size: 0x8, addend: 0x0, symName: __ZNSt3__16vectorINS_12basic_stringIcNS_11char_traitsIcEENS_9allocatorIcEEEENS4_IS6_EEE26__swap_out_circular_bufferERNS_14__split_bufferIS6_RS7_EE, symObjAddr: 0x1D180, symBinAddr: 0x10001DEC0, symSize: 0x110 }
  - { offset: 0x3BC68, size: 0x8, addend: 0x0, symName: __ZNSt3__16vectorI4EdgeNS_9allocatorIS1_EEE26__swap_out_circular_bufferERNS_14__split_bufferIS1_RS3_EEPS1_, symObjAddr: 0x248DC, symBinAddr: 0x10002561C, symSize: 0x14C }
  - { offset: 0x3C72E, size: 0x8, addend: 0x0, symName: __ZNSt3__16vectorINS0_ImNS_9allocatorImEEEENS1_IS3_EEE26__swap_out_circular_bufferERNS_14__split_bufferIS3_RS4_EE, symObjAddr: 0x2B024, symBinAddr: 0x10002BD64, symSize: 0x110 }
  - { offset: 0x3C8AC, size: 0x8, addend: 0x0, symName: __ZlsRNSt3__113basic_ostreamIcNS_11char_traitsIcEEEERK4Edge, symObjAddr: 0x0, symBinAddr: 0x100000D40, symSize: 0x144 }
  - { offset: 0x3C904, size: 0x8, addend: 0x0, symName: __ZNKSt3__16vectorIdNS_9allocatorIdEEEixB8ne180100Em, symObjAddr: 0x18C, symBinAddr: 0x100000ECC, symSize: 0x24 }
  - { offset: 0x3C93B, size: 0x8, addend: 0x0, symName: __ZNKSt3__16vectorIdNS_9allocatorIdEEE4sizeB8ne180100Ev, symObjAddr: 0x1B0, symBinAddr: 0x100000EF0, symSize: 0x28 }
  - { offset: 0x3C961, size: 0x8, addend: 0x0, symName: __Z4VBGARK9AdjMatrixRKNSt3__16vectorINS2_10shared_ptrI4NodeEENS2_9allocatorIS6_EEEERNS2_8functionIFdRKS6_SE_EEEimm13voting_method, symObjAddr: 0x1D8, symBinAddr: 0x100000F18, symSize: 0x1154 }
  - { offset: 0x3CC22, size: 0x8, addend: 0x0, symName: __ZlsRNSt3__113basic_ostreamIcNS_11char_traitsIcEEEERK4Node, symObjAddr: 0x132C, symBinAddr: 0x10000206C, symSize: 0xD4 }
  - { offset: 0x3CC5D, size: 0x8, addend: 0x0, symName: __ZNKSt3__16vectorINS_10shared_ptrI4NodeEENS_9allocatorIS3_EEEixB8ne180100Em, symObjAddr: 0x1400, symBinAddr: 0x100002140, symSize: 0x24 }
  - { offset: 0x3CC94, size: 0x8, addend: 0x0, symName: __ZNKSt3__110shared_ptrI4NodeE3getB8ne180100Ev, symObjAddr: 0x1424, symBinAddr: 0x100002164, symSize: 0x18 }
  - { offset: 0x3CCBA, size: 0x8, addend: 0x0, symName: __ZNSt3__113basic_ostreamIcNS_11char_traitsIcEEElsB8ne180100EPFRS3_S4_E, symObjAddr: 0x143C, symBinAddr: 0x10000217C, symSize: 0x2C }
  - { offset: 0x3CEE5, size: 0x8, addend: 0x0, symName: __ZN5ASTARC1ERK9AdjMatrixRKNSt3__16vectorINS3_10shared_ptrI4NodeEENS3_9allocatorIS7_EEEE, symObjAddr: 0x14C0, symBinAddr: 0x100002200, symSize: 0x3C }
  - { offset: 0x3CF2D, size: 0x8, addend: 0x0, symName: __ZNSt3__16vectorINS0_IdNS_9allocatorIdEEEENS1_IS3_EEEC1B8ne180100Ev, symObjAddr: 0x14FC, symBinAddr: 0x10000223C, symSize: 0x2C }
  - { offset: 0x3CF57, size: 0x8, addend: 0x0, symName: __ZNK9AdjMatrix13get_obj_countEv, symObjAddr: 0x1528, symBinAddr: 0x100002268, symSize: 0x18 }
  - { offset: 0x3CF7D, size: 0x8, addend: 0x0, symName: __ZN18more_than_specificC1Em, symObjAddr: 0x1540, symBinAddr: 0x100002280, symSize: 0x34 }
  - { offset: 0x3CFB6, size: 0x8, addend: 0x0, symName: __ZNSt3__18functionIFbRKNS_10shared_ptrI4NodeEES5_EEC1I18more_than_specificvEET_, symObjAddr: 0x1574, symBinAddr: 0x1000022B4, symSize: 0x34 }
  - { offset: 0x3CFF9, size: 0x8, addend: 0x0, symName: __ZNSt3__16vectorINS0_IdNS_9allocatorIdEEEENS1_IS3_EEE9push_backB8ne180100ERKS3_, symObjAddr: 0x15A8, symBinAddr: 0x1000022E8, symSize: 0x8C }
  - { offset: 0x3D03F, size: 0x8, addend: 0x0, symName: __ZN5ASTARclEmmRNSt3__18functionIFdRKNS0_10shared_ptrI4NodeEES6_EEERNS1_IFbS6_S6_EEE, symObjAddr: 0x1634, symBinAddr: 0x100002374, symSize: 0x73C }
  - { offset: 0x3D180, size: 0x8, addend: 0x0, symName: __ZNKSt3__110shared_ptrI4NodeEptB8ne180100Ev, symObjAddr: 0x1D70, symBinAddr: 0x100002AB0, symSize: 0x18 }
  - { offset: 0x3D1A6, size: 0x8, addend: 0x0, symName: __ZNSt3__110shared_ptrI4NodeED1B8ne180100Ev, symObjAddr: 0x1D88, symBinAddr: 0x100002AC8, symSize: 0x2C }
  - { offset: 0x3D1D0, size: 0x8, addend: 0x0, symName: __ZNSt3__18functionIFbRKNS_10shared_ptrI4NodeEES5_EED1Ev, symObjAddr: 0x1DB4, symBinAddr: 0x100002AF4, symSize: 0x2C }
  - { offset: 0x3D1FC, size: 0x8, addend: 0x0, symName: __ZNSt3__16vectorINS0_IdNS_9allocatorIdEEEENS1_IS3_EEEC1ERKS5_, symObjAddr: 0x1DE0, symBinAddr: 0x100002B20, symSize: 0x34 }
  - { offset: 0x3D237, size: 0x8, addend: 0x0, symName: __ZNSt3__16vectorINS0_IdNS_9allocatorIdEEEENS1_IS3_EEED1B8ne180100Ev, symObjAddr: 0x1E14, symBinAddr: 0x100002B54, symSize: 0x2C }
  - { offset: 0x3D261, size: 0x8, addend: 0x0, symName: __ZNKSt3__16vectorINS0_IdNS_9allocatorIdEEEENS1_IS3_EEE4sizeB8ne180100Ev, symObjAddr: 0x1E40, symBinAddr: 0x100002B80, symSize: 0x28 }
  - { offset: 0x3D287, size: 0x8, addend: 0x0, symName: __ZNSt3__16vectorINS0_IdNS_9allocatorIdEEEENS1_IS3_EEEixB8ne180100Em, symObjAddr: 0x1E68, symBinAddr: 0x100002BA8, symSize: 0x2C }
  - { offset: 0x3D2BE, size: 0x8, addend: 0x0, symName: __ZNSt3__16vectorIdNS_9allocatorIdEEEixB8ne180100Em, symObjAddr: 0x1E94, symBinAddr: 0x100002BD4, symSize: 0x24 }
  - { offset: 0x3D2F5, size: 0x8, addend: 0x0, symName: __ZNSt3__16vectorINS0_IdNS_9allocatorIdEEEENS1_IS3_EEE9push_backB8ne180100EOS3_, symObjAddr: 0x1EB8, symBinAddr: 0x100002BF8, symSize: 0x8C }
  - { offset: 0x3D33B, size: 0x8, addend: 0x0, symName: __ZNSt3__16vectorIiNS_9allocatorIiEEEixB8ne180100Em, symObjAddr: 0x1F44, symBinAddr: 0x100002C84, symSize: 0x24 }
  - { offset: 0x3D372, size: 0x8, addend: 0x0, symName: __ZNSt3__16vectorIdNS_9allocatorIdEEED1B8ne180100Ev, symObjAddr: 0x1F68, symBinAddr: 0x100002CA8, symSize: 0x2C }
  - { offset: 0x3D44D, size: 0x8, addend: 0x0, symName: __ZN14WEIGHTED_ASTARC1ERK9AdjMatrixRKNSt3__16vectorINS3_10shared_ptrI4NodeEENS3_9allocatorIS7_EEEERKNS4_IdNS8_IdEEEE, symObjAddr: 0x1F94, symBinAddr: 0x100002CD4, symSize: 0x44 }
  - { offset: 0x3D4A4, size: 0x8, addend: 0x0, symName: __ZN14WEIGHTED_ASTARclEmmRNSt3__18functionIFdRKNS0_10shared_ptrI4NodeEES6_EEERNS1_IFbS6_S6_EEE, symObjAddr: 0x1FD8, symBinAddr: 0x100002D18, symSize: 0x744 }
  - { offset: 0x3D5E5, size: 0x8, addend: 0x0, symName: __ZNSt3__16vectorINS0_IdNS_9allocatorIdEEEENS1_IS3_EEEaSB8ne180100EOS5_, symObjAddr: 0x271C, symBinAddr: 0x10000345C, symSize: 0x34 }
  - { offset: 0x3D61C, size: 0x8, addend: 0x0, symName: __ZNSt3__16vectorIdNS_9allocatorIdEEEaSB8ne180100EOS3_, symObjAddr: 0x2750, symBinAddr: 0x100003490, symSize: 0x34 }
  - { offset: 0x3D653, size: 0x8, addend: 0x0, symName: __ZNSt3__16vectorIiNS_9allocatorIiEEEaSB8ne180100EOS3_, symObjAddr: 0x2784, symBinAddr: 0x1000034C4, symSize: 0x34 }
  - { offset: 0x3D68A, size: 0x8, addend: 0x0, symName: __ZNSt3__16vectorIiNS_9allocatorIiEEED1B8ne180100Ev, symObjAddr: 0x27B8, symBinAddr: 0x1000034F8, symSize: 0x2C }
  - { offset: 0x3D6B4, size: 0x8, addend: 0x0, symName: __ZNSt3__16vectorIdNS_9allocatorIdEEEC1B8ne180100Ev, symObjAddr: 0x27E4, symBinAddr: 0x100003524, symSize: 0x2C }
  - { offset: 0x3D6DE, size: 0x8, addend: 0x0, symName: __ZNSt3__16vectorINS0_IdNS_9allocatorIdEEEENS1_IS3_EEE5clearB8ne180100Ev, symObjAddr: 0x2810, symBinAddr: 0x100003550, symSize: 0x44 }
  - { offset: 0x3D713, size: 0x8, addend: 0x0, symName: __Z12split_stringNSt3__112basic_stringIcNS_11char_traitsIcEENS_9allocatorIcEEEES5_RNS_6vectorIS5_NS3_IS5_EEEE, symObjAddr: 0x2854, symBinAddr: 0x100003594, symSize: 0x114 }
  - { offset: 0x3D76D, size: 0x8, addend: 0x0, symName: __ZNKSt3__112basic_stringIcNS_11char_traitsIcEENS_9allocatorIcEEE13find_first_ofB8ne180100ERKS5_m, symObjAddr: 0x2968, symBinAddr: 0x1000036A8, symSize: 0x78 }
  - { offset: 0x3D7B3, size: 0x8, addend: 0x0, symName: __ZNSt3__16vectorINS_12basic_stringIcNS_11char_traitsIcEENS_9allocatorIcEEEENS4_IS6_EEE9push_backB8ne180100EOS6_, symObjAddr: 0x29E0, symBinAddr: 0x100003720, symSize: 0x8C }
  - { offset: 0x3D7F9, size: 0x8, addend: 0x0, symName: __ZNKSt3__112basic_stringIcNS_11char_traitsIcEENS_9allocatorIcEEE6substrB8ne180100Emm, symObjAddr: 0x2A6C, symBinAddr: 0x1000037AC, symSize: 0x68 }
  - { offset: 0x3D83D, size: 0x8, addend: 0x0, symName: __ZNSt3__112basic_stringIcNS_11char_traitsIcEENS_9allocatorIcEEEaSB8ne180100EOS5_, symObjAddr: 0x2AD4, symBinAddr: 0x100003814, symSize: 0x34 }
  - { offset: 0x3D872, size: 0x8, addend: 0x0, symName: __ZNKSt3__112basic_stringIcNS_11char_traitsIcEENS_9allocatorIcEEE6lengthB8ne180100Ev, symObjAddr: 0x2B08, symBinAddr: 0x100003848, symSize: 0x24 }
  - { offset: 0x3D898, size: 0x8, addend: 0x0, symName: __ZNSt3__16vectorINS_12basic_stringIcNS_11char_traitsIcEENS_9allocatorIcEEEENS4_IS6_EEE9push_backB8ne180100ERKS6_, symObjAddr: 0x2B2C, symBinAddr: 0x10000386C, symSize: 0x8C }
  - { offset: 0x3D8DD, size: 0x8, addend: 0x0, symName: __Z13load_gr_filesNSt3__16vectorINS_12basic_stringIcNS_11char_traitsIcEENS_9allocatorIcEEEENS4_IS6_EEEERNS0_I4EdgeNS4_IS9_EEEERm, symObjAddr: 0x2BB8, symBinAddr: 0x1000038F8, symSize: 0x6C0 }
  - { offset: 0x3D9FF, size: 0x8, addend: 0x0, symName: __ZNSt3__16vectorINS_12basic_stringIcNS_11char_traitsIcEENS_9allocatorIcEEEENS4_IS6_EEE5beginB8ne180100Ev, symObjAddr: 0x3278, symBinAddr: 0x100003FB8, symSize: 0x30 }
  - { offset: 0x3DA27, size: 0x8, addend: 0x0, symName: __ZNSt3__16vectorINS_12basic_stringIcNS_11char_traitsIcEENS_9allocatorIcEEEENS4_IS6_EEE3endB8ne180100Ev, symObjAddr: 0x32A8, symBinAddr: 0x100003FE8, symSize: 0x30 }
  - { offset: 0x3DA4F, size: 0x8, addend: 0x0, symName: __ZNKSt3__111__wrap_iterIPNS_12basic_stringIcNS_11char_traitsIcEENS_9allocatorIcEEEEEdeB8ne180100Ev, symObjAddr: 0x3308, symBinAddr: 0x100004048, symSize: 0x18 }
  - { offset: 0x3DA75, size: 0x8, addend: 0x0, symName: __ZNKSt3__112basic_stringIcNS_11char_traitsIcEENS_9allocatorIcEEE5c_strB8ne180100Ev, symObjAddr: 0x3320, symBinAddr: 0x100004060, symSize: 0x24 }
  - { offset: 0x3DDD0, size: 0x8, addend: 0x0, symName: __ZNSt3__114basic_ifstreamIcNS_11char_traitsIcEEEC1EPKcj, symObjAddr: 0x3344, symBinAddr: 0x100004084, symSize: 0x15C }
  - { offset: 0x3DE1A, size: 0x8, addend: 0x0, symName: __ZNKSt3__114basic_ifstreamIcNS_11char_traitsIcEEE7is_openEv, symObjAddr: 0x34A0, symBinAddr: 0x1000041E0, symSize: 0x28 }
  - { offset: 0x3DE42, size: 0x8, addend: 0x0, symName: __ZNSt3__112basic_stringIcNS_11char_traitsIcEENS_9allocatorIcEEEC1B8ne180100Ev, symObjAddr: 0x3514, symBinAddr: 0x100004254, symSize: 0x2C }
  - { offset: 0x3DE6C, size: 0x8, addend: 0x0, symName: __ZNKSt3__19basic_iosIcNS_11char_traitsIcEEE3eofB8ne180100Ev, symObjAddr: 0x3540, symBinAddr: 0x100004280, symSize: 0x24 }
  - { offset: 0x3DE92, size: 0x8, addend: 0x0, symName: __ZNSt3__16vectorINS_12basic_stringIcNS_11char_traitsIcEENS_9allocatorIcEEEENS4_IS6_EEEC1B8ne180100Ev, symObjAddr: 0x3664, symBinAddr: 0x1000043A4, symSize: 0x2C }
  - { offset: 0x3DEC2, size: 0x8, addend: 0x0, symName: __ZNSt3__112basic_stringIcNS_11char_traitsIcEENS_9allocatorIcEEEC1B8ne180100ILi0EEEPKc, symObjAddr: 0x3690, symBinAddr: 0x1000043D0, symSize: 0x34 }
  - { offset: 0x3DF01, size: 0x8, addend: 0x0, symName: __ZNSt3__16vectorINS_12basic_stringIcNS_11char_traitsIcEENS_9allocatorIcEEEENS4_IS6_EEEixB8ne180100Em, symObjAddr: 0x36C4, symBinAddr: 0x100004404, symSize: 0x2C }
  - { offset: 0x3DF38, size: 0x8, addend: 0x0, symName: __ZNKSt3__16vectorI4EdgeNS_9allocatorIS1_EEE4sizeB8ne180100Ev, symObjAddr: 0x36F0, symBinAddr: 0x100004430, symSize: 0x28 }
  - { offset: 0x3DF5E, size: 0x8, addend: 0x0, symName: __ZNSt3__16vectorI4EdgeNS_9allocatorIS1_EEEixB8ne180100Em, symObjAddr: 0x3718, symBinAddr: 0x100004458, symSize: 0x2C }
  - { offset: 0x3DF95, size: 0x8, addend: 0x0, symName: __ZNSt3__16vectorIdNS_9allocatorIdEEE9push_backB8ne180100EOd, symObjAddr: 0x3744, symBinAddr: 0x100004484, symSize: 0x8C }
  - { offset: 0x3DFDB, size: 0x8, addend: 0x0, symName: __ZNSt3__16vectorIdNS_9allocatorIdEEEC1B8ne180100ESt16initializer_listIdE, symObjAddr: 0x37D0, symBinAddr: 0x100004510, symSize: 0x3C }
  - { offset: 0x3E016, size: 0x8, addend: 0x0, symName: __ZN4EdgeC1EmmNSt3__16vectorIdNS0_9allocatorIdEEEE, symObjAddr: 0x380C, symBinAddr: 0x10000454C, symSize: 0x44 }
  - { offset: 0x3E06B, size: 0x8, addend: 0x0, symName: __ZNSt3__16vectorI4EdgeNS_9allocatorIS1_EEE9push_backB8ne180100ERKS1_, symObjAddr: 0x3850, symBinAddr: 0x100004590, symSize: 0x8C }
  - { offset: 0x3E0B1, size: 0x8, addend: 0x0, symName: __ZN4EdgeD1Ev, symObjAddr: 0x392C, symBinAddr: 0x10000466C, symSize: 0x2C }
  - { offset: 0x3E0DD, size: 0x8, addend: 0x0, symName: __ZNSt3__16vectorINS_12basic_stringIcNS_11char_traitsIcEENS_9allocatorIcEEEENS4_IS6_EEED1B8ne180100Ev, symObjAddr: 0x3958, symBinAddr: 0x100004698, symSize: 0x2C }
  - { offset: 0x3E107, size: 0x8, addend: 0x0, symName: __ZNSt3__114basic_ifstreamIcNS_11char_traitsIcEEE5closeEv, symObjAddr: 0x3984, symBinAddr: 0x1000046C4, symSize: 0x50 }
  - { offset: 0x3E135, size: 0x8, addend: 0x0, symName: __ZNSt3__114basic_ifstreamIcNS_11char_traitsIcEEED1Ev, symObjAddr: 0x39D4, symBinAddr: 0x100004714, symSize: 0x40 }
  - { offset: 0x3E162, size: 0x8, addend: 0x0, symName: __ZNSt3__111__wrap_iterIPNS_12basic_stringIcNS_11char_traitsIcEENS_9allocatorIcEEEEEppB8ne180100Ev, symObjAddr: 0x3A14, symBinAddr: 0x100004754, symSize: 0x20 }
  - { offset: 0x3E188, size: 0x8, addend: 0x0, symName: __Z12getNodes_DOTNSt3__112basic_stringIcNS_11char_traitsIcEENS_9allocatorIcEEEERNS_6vectorINS_10shared_ptrI4NodeEENS3_IS9_EEEE, symObjAddr: 0x3A34, symBinAddr: 0x100004774, symSize: 0x370 }
  - { offset: 0x3E26A, size: 0x8, addend: 0x0, symName: __ZNSt3__113basic_fstreamIcNS_11char_traitsIcEEEC1ERKNS_12basic_stringIcS2_NS_9allocatorIcEEEEj, symObjAddr: 0x3DA4, symBinAddr: 0x100004AE4, symSize: 0x168 }
  - { offset: 0x3E2B4, size: 0x8, addend: 0x0, symName: __ZNSt3__16vectorINS_10shared_ptrI4NodeEENS_9allocatorIS3_EEE5clearB8ne180100Ev, symObjAddr: 0x3F0C, symBinAddr: 0x100004C4C, symSize: 0x44 }
  - { offset: 0x3E2E9, size: 0x8, addend: 0x0, symName: __ZNSt3__16vectorINS_10shared_ptrI4NodeEENS_9allocatorIS3_EEE9push_backB8ne180100EOS3_, symObjAddr: 0x3F50, symBinAddr: 0x100004C90, symSize: 0x8C }
  - { offset: 0x3E32F, size: 0x8, addend: 0x0, symName: __ZNSt3__110shared_ptrI4NodeEC1B8ne180100EDn, symObjAddr: 0x3FDC, symBinAddr: 0x100004D1C, symSize: 0x34 }
  - { offset: 0x3E365, size: 0x8, addend: 0x0, symName: __ZNSt3__114numeric_limitsIlE3maxB8ne180100Ev, symObjAddr: 0x4010, symBinAddr: 0x100004D50, symSize: 0x14 }
  - { offset: 0x3E379, size: 0x8, addend: 0x0, symName: __ZNKSt3__19basic_iosIcNS_11char_traitsIcEEEcvbB8ne180100Ev, symObjAddr: 0x4310, symBinAddr: 0x100005050, symSize: 0x28 }
  - { offset: 0x3E39F, size: 0x8, addend: 0x0, symName: __ZNSt3__113basic_fstreamIcNS_11char_traitsIcEEE5closeEv, symObjAddr: 0x4388, symBinAddr: 0x1000050C8, symSize: 0x50 }
  - { offset: 0x3E3CD, size: 0x8, addend: 0x0, symName: __ZNSt3__113basic_fstreamIcNS_11char_traitsIcEEED1Ev, symObjAddr: 0x43D8, symBinAddr: 0x100005118, symSize: 0x40 }
  - { offset: 0x3E3F9, size: 0x8, addend: 0x0, symName: __Z14getNodes_ASCIINSt3__112basic_stringIcNS_11char_traitsIcEENS_9allocatorIcEEEERNS_6vectorINS_10shared_ptrI4NodeEENS3_IS9_EEEER9AdjMatrix, symObjAddr: 0x4418, symBinAddr: 0x100005158, symSize: 0x1984 }
  - { offset: 0x3E67D, size: 0x8, addend: 0x0, symName: __ZNSt3__16vectorIcNS_9allocatorIcEEEC1Em, symObjAddr: 0x5D9C, symBinAddr: 0x100006ADC, symSize: 0x34 }
  - { offset: 0x3E6B8, size: 0x8, addend: 0x0, symName: __ZNSt3__16vectorINS0_IcNS_9allocatorIcEEEENS1_IS3_EEEC1EmRKS3_, symObjAddr: 0x5DD0, symBinAddr: 0x100006B10, symSize: 0x3C }
  - { offset: 0x3E702, size: 0x8, addend: 0x0, symName: __ZNSt3__16vectorIcNS_9allocatorIcEEED1B8ne180100Ev, symObjAddr: 0x5E0C, symBinAddr: 0x100006B4C, symSize: 0x2C }
  - { offset: 0x3E7CC, size: 0x8, addend: 0x0, symName: __ZNSt3__113unordered_mapINS_4pairIddEEm9pair_hashNS_8equal_toIS2_EENS_9allocatorINS1_IKS2_mEEEEEC1B8ne180100Ev, symObjAddr: 0x5E38, symBinAddr: 0x100006B78, symSize: 0x2C }
  - { offset: 0x3E7F6, size: 0x8, addend: 0x0, symName: __ZNSt3__112basic_stringIcNS_11char_traitsIcEENS_9allocatorIcEEEixB8ne180100Em, symObjAddr: 0x5E64, symBinAddr: 0x100006BA4, symSize: 0x48 }
  - { offset: 0x3E82B, size: 0x8, addend: 0x0, symName: __ZNSt3__16vectorINS0_IcNS_9allocatorIcEEEENS1_IS3_EEEixB8ne180100Em, symObjAddr: 0x5EAC, symBinAddr: 0x100006BEC, symSize: 0x2C }
  - { offset: 0x3E862, size: 0x8, addend: 0x0, symName: __ZNSt3__16vectorIcNS_9allocatorIcEEEixB8ne180100Em, symObjAddr: 0x5ED8, symBinAddr: 0x100006C18, symSize: 0x24 }
  - { offset: 0x3E899, size: 0x8, addend: 0x0, symName: __ZNSt3__113unordered_mapINS_4pairIddEEm9pair_hashNS_8equal_toIS2_EENS_9allocatorINS1_IKS2_mEEEEEixEOS2_, symObjAddr: 0x5F4C, symBinAddr: 0x100006C8C, symSize: 0x80 }
  - { offset: 0x3E8ED, size: 0x8, addend: 0x0, symName: __ZNSt3__14pairIddEC1B8ne180100IiiTnNS_9enable_ifIXclsr10_CheckArgsE17__enable_implicitIT_T0_EEEiE4typeELi0EEEONS0_IS4_S5_EE, symObjAddr: 0x6000, symBinAddr: 0x100006D40, symSize: 0x34 }
  - { offset: 0x3E93D, size: 0x8, addend: 0x0, symName: __ZNSt3__16vectorI4EdgeNS_9allocatorIS1_EEEC1B8ne180100Ev, symObjAddr: 0x6034, symBinAddr: 0x100006D74, symSize: 0x2C }
  - { offset: 0x3E967, size: 0x8, addend: 0x0, symName: __ZNSt3__123mersenne_twister_engineIjLm32ELm624ELm397ELm31ELj2567483615ELm11ELj4294967295ELm7ELj2636928640ELm15ELj4022730752ELm18ELj1812433253EEC1B8ne180100Ej, symObjAddr: 0x6060, symBinAddr: 0x100006DA0, symSize: 0x34 }
  - { offset: 0x3E99F, size: 0x8, addend: 0x0, symName: __ZNSt3__16vectorI4EdgeNS_9allocatorIS1_EEE9push_backB8ne180100EOS1_, symObjAddr: 0x6094, symBinAddr: 0x100006DD4, symSize: 0x8C }
  - { offset: 0x3E9E5, size: 0x8, addend: 0x0, symName: __ZNSt3__14pairIddEC1B8ne180100IRdS3_TnNS_9enable_ifIXclsr10_CheckArgsE17__enable_implicitIT_T0_EEEiE4typeELi0EEEOS5_OS6_, symObjAddr: 0x6120, symBinAddr: 0x100006E60, symSize: 0x3C }
  - { offset: 0x3EA49, size: 0x8, addend: 0x0, symName: __ZNSt3__14pairIddEC1B8ne180100IdRdTnNS_9enable_ifIXclsr10_CheckArgsE17__enable_implicitIT_T0_EEEiE4typeELi0EEEOS5_OS6_, symObjAddr: 0x615C, symBinAddr: 0x100006E9C, symSize: 0x3C }
  - { offset: 0x3EAA7, size: 0x8, addend: 0x0, symName: __ZNSt3__123mersenne_twister_engineIjLm32ELm624ELm397ELm31ELj2567483615ELm11ELj4294967295ELm7ELj2636928640ELm15ELj4022730752ELm18ELj1812433253EEclEv, symObjAddr: 0x6198, symBinAddr: 0x100006ED8, symSize: 0x14C }
  - { offset: 0x3EB1A, size: 0x8, addend: 0x0, symName: __ZNSt3__14pairIddEC1B8ne180100IddTnNS_9enable_ifIXclsr10_CheckArgsE17__enable_implicitIT_T0_EEEiE4typeELi0EEEOS4_OS5_, symObjAddr: 0x62E4, symBinAddr: 0x100007024, symSize: 0x3C }
  - { offset: 0x3EB78, size: 0x8, addend: 0x0, symName: __ZNSt3__14pairIddEC1B8ne180100IRddTnNS_9enable_ifIXclsr10_CheckArgsE17__enable_implicitIT_T0_EEEiE4typeELi0EEEOS5_OS6_, symObjAddr: 0x6320, symBinAddr: 0x100007060, symSize: 0x3C }
  - { offset: 0x3EBD6, size: 0x8, addend: 0x0, symName: __ZNSt3__16vectorINS0_I4EdgeNS_9allocatorIS1_EEEENS2_IS4_EEEC1EmRKS4_, symObjAddr: 0x635C, symBinAddr: 0x10000709C, symSize: 0x3C }
  - { offset: 0x3EC20, size: 0x8, addend: 0x0, symName: __ZNSt3__16vectorI4EdgeNS_9allocatorIS1_EEED1B8ne180100Ev, symObjAddr: 0x6398, symBinAddr: 0x1000070D8, symSize: 0x2C }
  - { offset: 0x3EC4A, size: 0x8, addend: 0x0, symName: __ZNSt3__16vectorI4EdgeNS_9allocatorIS1_EEE5beginB8ne180100Ev, symObjAddr: 0x63C4, symBinAddr: 0x100007104, symSize: 0x30 }
  - { offset: 0x3EC72, size: 0x8, addend: 0x0, symName: __ZNSt3__16vectorI4EdgeNS_9allocatorIS1_EEE3endB8ne180100Ev, symObjAddr: 0x6424, symBinAddr: 0x100007164, symSize: 0x30 }
  - { offset: 0x3EC9A, size: 0x8, addend: 0x0, symName: __ZNSt3__16vectorINS0_I4EdgeNS_9allocatorIS1_EEEENS2_IS4_EEEixB8ne180100Em, symObjAddr: 0x6454, symBinAddr: 0x100007194, symSize: 0x2C }
  - { offset: 0x3ECD1, size: 0x8, addend: 0x0, symName: __ZNKSt3__111__wrap_iterIP4EdgeEptB8ne180100Ev, symObjAddr: 0x6480, symBinAddr: 0x1000071C0, symSize: 0x28 }
  - { offset: 0x3ECF7, size: 0x8, addend: 0x0, symName: __ZNKSt3__111__wrap_iterIP4EdgeEdeB8ne180100Ev, symObjAddr: 0x64A8, symBinAddr: 0x1000071E8, symSize: 0x18 }
  - { offset: 0x3ED1D, size: 0x8, addend: 0x0, symName: __ZNSt3__111__wrap_iterIP4EdgeEppB8ne180100Ei, symObjAddr: 0x64C0, symBinAddr: 0x100007200, symSize: 0x34 }
  - { offset: 0x3ED5B, size: 0x8, addend: 0x0, symName: __ZNSt3__16vectorINS0_I4EdgeNS_9allocatorIS1_EEEENS2_IS4_EEE5beginB8ne180100Ev, symObjAddr: 0x64F4, symBinAddr: 0x100007234, symSize: 0x30 }
  - { offset: 0x3ED83, size: 0x8, addend: 0x0, symName: __ZNSt3__16vectorINS0_I4EdgeNS_9allocatorIS1_EEEENS2_IS4_EEE3endB8ne180100Ev, symObjAddr: 0x6554, symBinAddr: 0x100007294, symSize: 0x30 }
  - { offset: 0x3EDAB, size: 0x8, addend: 0x0, symName: __ZNKSt3__111__wrap_iterIPNS_6vectorI4EdgeNS_9allocatorIS2_EEEEEptB8ne180100Ev, symObjAddr: 0x6584, symBinAddr: 0x1000072C4, symSize: 0x28 }
  - { offset: 0x3EDD1, size: 0x8, addend: 0x0, symName: __ZNSt3__16vectorIdNS_9allocatorIdEEE9push_backB8ne180100ERKd, symObjAddr: 0x65AC, symBinAddr: 0x1000072EC, symSize: 0x8C }
  - { offset: 0x3EE17, size: 0x8, addend: 0x0, symName: __ZNSt3__111__wrap_iterIPNS_6vectorI4EdgeNS_9allocatorIS2_EEEEEppB8ne180100Ei, symObjAddr: 0x6638, symBinAddr: 0x100007378, symSize: 0x34 }
  - { offset: 0x3EE55, size: 0x8, addend: 0x0, symName: __ZNSt3__16vectorI4EdgeNS_9allocatorIS1_EEE5clearB8ne180100Ev, symObjAddr: 0x666C, symBinAddr: 0x1000073AC, symSize: 0x44 }
  - { offset: 0x3EE8A, size: 0x8, addend: 0x0, symName: __ZNSt3__16vectorI4EdgeNS_9allocatorIS1_EEE6insertINS_11__wrap_iterIPS1_EETnNS_9enable_ifIXaasr31__has_forward_iterator_categoryIT_EE5valuesr16is_constructibleIS1_NS_15iterator_traitsISA_E9referenceEEE5valueEiE4typeELi0EEES8_NS6_IPKS1_EESA_SA_, symObjAddr: 0x66B0, symBinAddr: 0x1000073F0, symSize: 0x84 }
  - { offset: 0x3EEF2, size: 0x8, addend: 0x0, symName: __ZNSt3__111__wrap_iterIPK4EdgeEC1B8ne180100IPS1_TnNS_9enable_ifIXsr14is_convertibleIT_S3_EE5valueEiE4typeELi0EEERKNS0_IS8_EE, symObjAddr: 0x6734, symBinAddr: 0x100007474, symSize: 0x34 }
  - { offset: 0x3EF39, size: 0x8, addend: 0x0, symName: __ZNSt3__16vectorINS0_I4EdgeNS_9allocatorIS1_EEEENS2_IS4_EEE5clearB8ne180100Ev, symObjAddr: 0x6768, symBinAddr: 0x1000074A8, symSize: 0x44 }
  - { offset: 0x3EF6E, size: 0x8, addend: 0x0, symName: __ZNSt3__16vectorINS0_I4EdgeNS_9allocatorIS1_EEEENS2_IS4_EEEaSB8ne180100EOS6_, symObjAddr: 0x67AC, symBinAddr: 0x1000074EC, symSize: 0x34 }
  - { offset: 0x3EFA5, size: 0x8, addend: 0x0, symName: __ZNSt3__16vectorINS0_I4EdgeNS_9allocatorIS1_EEEENS2_IS4_EEED1B8ne180100Ev, symObjAddr: 0x67E0, symBinAddr: 0x100007520, symSize: 0x2C }
  - { offset: 0x3EFCF, size: 0x8, addend: 0x0, symName: __ZNKSt3__16vectorINS0_I4EdgeNS_9allocatorIS1_EEEENS2_IS4_EEE4sizeB8ne180100Ev, symObjAddr: 0x680C, symBinAddr: 0x10000754C, symSize: 0x28 }
  - { offset: 0x3EFF5, size: 0x8, addend: 0x0, symName: __ZN9AdjMatrixC1EmRNSt3__16vectorI4EdgeNS0_9allocatorIS2_EEEEb, symObjAddr: 0x6834, symBinAddr: 0x100007574, symSize: 0x48 }
  - { offset: 0x3F055, size: 0x8, addend: 0x0, symName: __ZN9AdjMatrixaSEOS_, symObjAddr: 0x687C, symBinAddr: 0x1000075BC, symSize: 0x40 }
  - { offset: 0x3F086, size: 0x8, addend: 0x0, symName: __ZN9AdjMatrixD1Ev, symObjAddr: 0x68BC, symBinAddr: 0x1000075FC, symSize: 0x2C }
  - { offset: 0x3F0B2, size: 0x8, addend: 0x0, symName: __ZNSt3__113unordered_mapINS_4pairIddEEm9pair_hashNS_8equal_toIS2_EENS_9allocatorINS1_IKS2_mEEEEED1B8ne180100Ev, symObjAddr: 0x68E8, symBinAddr: 0x100007628, symSize: 0x2C }
  - { offset: 0x3F0DC, size: 0x8, addend: 0x0, symName: __ZNSt3__16vectorINS0_IcNS_9allocatorIcEEEENS1_IS3_EEED1B8ne180100Ev, symObjAddr: 0x6914, symBinAddr: 0x100007654, symSize: 0x2C }
  - { offset: 0x3F105, size: 0x8, addend: 0x0, symName: __Z16ASCII_MAP_RUNNERNSt3__112basic_stringIcNS_11char_traitsIcEENS_9allocatorIcEEEE13voting_methodi, symObjAddr: 0x6940, symBinAddr: 0x100007680, symSize: 0x1D8 }
  - { offset: 0x3F1C2, size: 0x8, addend: 0x0, symName: __ZNSt3__16vectorINS_10shared_ptrI4NodeEENS_9allocatorIS3_EEEC1B8ne180100Ev, symObjAddr: 0x6B18, symBinAddr: 0x100007858, symSize: 0x2C }
  - { offset: 0x3F1EC, size: 0x8, addend: 0x0, symName: __ZN9AdjMatrixC1Ev, symObjAddr: 0x6B44, symBinAddr: 0x100007884, symSize: 0x2C }
  - { offset: 0x3F216, size: 0x8, addend: 0x0, symName: __ZN9h_functorC1Em, symObjAddr: 0x6B70, symBinAddr: 0x1000078B0, symSize: 0x34 }
  - { offset: 0x3F24F, size: 0x8, addend: 0x0, symName: __ZNSt3__18functionIFdRKNS_10shared_ptrI4NodeEES5_EEC1I9h_functorvEET_, symObjAddr: 0x6BA4, symBinAddr: 0x1000078E4, symSize: 0x34 }
  - { offset: 0x3F292, size: 0x8, addend: 0x0, symName: __ZNSt3__18functionIFdRKNS_10shared_ptrI4NodeEES5_EED1Ev, symObjAddr: 0x6BD8, symBinAddr: 0x100007918, symSize: 0x2C }
  - { offset: 0x3F2BE, size: 0x8, addend: 0x0, symName: __ZNSt3__16vectorINS_10shared_ptrI4NodeEENS_9allocatorIS3_EEED1B8ne180100Ev, symObjAddr: 0x6C04, symBinAddr: 0x100007944, symSize: 0x2C }
  - { offset: 0x3F2E8, size: 0x8, addend: 0x0, symName: __Z24ASCII_MAP_INSTANCE_MAKERNSt3__112basic_stringIcNS_11char_traitsIcEENS_9allocatorIcEEEERNS_13unordered_mapIS5_NS_6vectorINS7_ImNS3_ImEEEENS3_IS9_EEEENS_4hashIS5_EENS_8equal_toIS5_EENS3_INS_4pairIKS5_SB_EEEEEE, symObjAddr: 0x6C30, symBinAddr: 0x100007970, symSize: 0x334 }
  - { offset: 0x3F3DA, size: 0x8, addend: 0x0, symName: __ZNK9AdjMatrix4sizeEv, symObjAddr: 0x6F64, symBinAddr: 0x100007CA4, symSize: 0x18 }
  - { offset: 0x3F4BD, size: 0x8, addend: 0x0, symName: __ZNSt3__113unordered_mapINS_12basic_stringIcNS_11char_traitsIcEENS_9allocatorIcEEEENS_6vectorINS7_ImNS4_ImEEEENS4_IS9_EEEENS_4hashIS6_EENS_8equal_toIS6_EENS4_INS_4pairIKS6_SB_EEEEEixERSH_, symObjAddr: 0x6FA8, symBinAddr: 0x100007CE8, symSize: 0x80 }
  - { offset: 0x3F4F4, size: 0x8, addend: 0x0, symName: __ZNSt3__16vectorINS0_ImNS_9allocatorImEEEENS1_IS3_EEE9push_backB8ne180100EOS3_, symObjAddr: 0x7028, symBinAddr: 0x100007D68, symSize: 0x8C }
  - { offset: 0x3F53A, size: 0x8, addend: 0x0, symName: __ZNSt3__16vectorImNS_9allocatorImEEEC1B8ne180100ESt16initializer_listImE, symObjAddr: 0x70B4, symBinAddr: 0x100007DF4, symSize: 0x3C }
  - { offset: 0x3F575, size: 0x8, addend: 0x0, symName: __ZNSt3__16vectorImNS_9allocatorImEEED1B8ne180100Ev, symObjAddr: 0x70F0, symBinAddr: 0x100007E30, symSize: 0x2C }
  - { offset: 0x3F59F, size: 0x8, addend: 0x0, symName: __Z20make_ASCII_instancesNSt3__112basic_stringIcNS_11char_traitsIcEENS_9allocatorIcEEEERNS_13unordered_mapIS5_NS_6vectorINS7_ImNS3_ImEEEENS3_IS9_EEEENS_4hashIS5_EENS_8equal_toIS5_EENS3_INS_4pairIKS5_SB_EEEEEE, symObjAddr: 0x711C, symBinAddr: 0x100007E5C, symSize: 0x240 }
  - { offset: 0x3F635, size: 0x8, addend: 0x0, symName: __ZNSt3__14__fs10filesystem4pathC1B8ne180100INS_12basic_stringIcNS_11char_traitsIcEENS_9allocatorIcEEEEvEERKT_NS2_6formatE, symObjAddr: 0x735C, symBinAddr: 0x10000809C, symSize: 0x3C }
  - { offset: 0x3F684, size: 0x8, addend: 0x0, symName: __ZNSt3__14__fs10filesystem18directory_iteratorC1B8ne180100ERKNS1_4pathE, symObjAddr: 0x7398, symBinAddr: 0x1000080D8, symSize: 0x3C }
  - { offset: 0x3F6BC, size: 0x8, addend: 0x0, symName: __ZNSt3__14__fs10filesystem4pathD1B8ne180100Ev, symObjAddr: 0x73D4, symBinAddr: 0x100008114, symSize: 0x2C }
  - { offset: 0x3F6E6, size: 0x8, addend: 0x0, symName: __ZNSt3__14__fs10filesystem18directory_iteratorC1B8ne180100ERKS2_, symObjAddr: 0x7438, symBinAddr: 0x100008178, symSize: 0x34 }
  - { offset: 0x3F71A, size: 0x8, addend: 0x0, symName: __ZNSt3__14__fs10filesystem18directory_iteratorD1B8ne180100Ev, symObjAddr: 0x746C, symBinAddr: 0x1000081AC, symSize: 0x2C }
  - { offset: 0x3F744, size: 0x8, addend: 0x0, symName: __ZNKSt3__14__fs10filesystem18directory_iteratordeB8ne180100Ev, symObjAddr: 0x74FC, symBinAddr: 0x10000823C, symSize: 0x24 }
  - { offset: 0x3F76A, size: 0x8, addend: 0x0, symName: __ZNKSt3__14__fs10filesystem15directory_entry4pathB8ne180100Ev, symObjAddr: 0x7520, symBinAddr: 0x100008260, symSize: 0x14 }
  - { offset: 0x3F790, size: 0x8, addend: 0x0, symName: __ZNKSt3__14__fs10filesystem4path13relative_pathB8ne180100Ev, symObjAddr: 0x7534, symBinAddr: 0x100008274, symSize: 0x60 }
  - { offset: 0x3F7B6, size: 0x8, addend: 0x0, symName: __ZNKSt3__14__fs10filesystem4path6stringB8ne180100Ev, symObjAddr: 0x7594, symBinAddr: 0x1000082D4, symSize: 0x38 }
  - { offset: 0x3F7DC, size: 0x8, addend: 0x0, symName: __ZNSt3__14__fs10filesystem18directory_iteratorppB8ne180100Ev, symObjAddr: 0x75CC, symBinAddr: 0x10000830C, symSize: 0x28 }
  - { offset: 0x3F802, size: 0x8, addend: 0x0, symName: __Z16ASCII_DIR_RUNNERNSt3__112basic_stringIcNS_11char_traitsIcEENS_9allocatorIcEEEE13voting_methodi, symObjAddr: 0x75F4, symBinAddr: 0x100008334, symSize: 0x210 }
  - { offset: 0x3F8B0, size: 0x8, addend: 0x0, symName: __Z10DOT_RUNNER13voting_methodi, symObjAddr: 0x7804, symBinAddr: 0x100008544, symSize: 0x7DC }
  - { offset: 0x3FA99, size: 0x8, addend: 0x0, symName: __ZNSt3__114basic_ifstreamIcNS_11char_traitsIcEEEC1Ev, symObjAddr: 0x7FE0, symBinAddr: 0x100008D20, symSize: 0xE0 }
  - { offset: 0x3FAC5, size: 0x8, addend: 0x0, symName: __ZNSt3__14__fs10filesystem15directory_entryC1B8ne180100ERKS2_, symObjAddr: 0x80C0, symBinAddr: 0x100008E00, symSize: 0x34 }
  - { offset: 0x3FAF9, size: 0x8, addend: 0x0, symName: __ZNKSt3__14__fs10filesystem4pathcvNS_12basic_stringIcNS_11char_traitsIcEENS_9allocatorIcEEEEB8ne180100Ev, symObjAddr: 0x80F4, symBinAddr: 0x100008E34, symSize: 0x38 }
  - { offset: 0x3FB1F, size: 0x8, addend: 0x0, symName: __ZNSt3__14__fs10filesystem15directory_entryD1B8ne180100Ev, symObjAddr: 0x812C, symBinAddr: 0x100008E6C, symSize: 0x2C }
  - { offset: 0x3FB49, size: 0x8, addend: 0x0, symName: __ZNKSt3__111__wrap_iterIPNS_12basic_stringIcNS_11char_traitsIcEENS_9allocatorIcEEEEEptB8ne180100Ev, symObjAddr: 0x8158, symBinAddr: 0x100008E98, symSize: 0x28 }
  - { offset: 0x3FB6F, size: 0x8, addend: 0x0, symName: __ZNKSt3__112basic_stringIcNS_11char_traitsIcEENS_9allocatorIcEEE4sizeB8ne180100Ev, symObjAddr: 0x8180, symBinAddr: 0x100008EC0, symSize: 0x54 }
  - { offset: 0x3FB95, size: 0x8, addend: 0x0, symName: __ZNSt3__16vectorINS_12basic_stringIcNS_11char_traitsIcEENS_9allocatorIcEEEENS4_IS6_EEE5eraseB8ne180100ENS_11__wrap_iterIPKS6_EE, symObjAddr: 0x81D4, symBinAddr: 0x100008F14, symSize: 0x9C }
  - { offset: 0x3FBF0, size: 0x8, addend: 0x0, symName: __ZNSt3__111__wrap_iterIPKNS_12basic_stringIcNS_11char_traitsIcEENS_9allocatorIcEEEEEC1B8ne180100IPS6_TnNS_9enable_ifIXsr14is_convertibleIT_S8_EE5valueEiE4typeELi0EEERKNS0_ISD_EE, symObjAddr: 0x8270, symBinAddr: 0x100008FB0, symSize: 0x34 }
  - { offset: 0x3FC37, size: 0x8, addend: 0x0, symName: __ZNSt3__111__wrap_iterIPNS_12basic_stringIcNS_11char_traitsIcEENS_9allocatorIcEEEEEppB8ne180100Ei, symObjAddr: 0x82A4, symBinAddr: 0x100008FE4, symSize: 0x34 }
  - { offset: 0x3FC75, size: 0x8, addend: 0x0, symName: __ZNSt3__16vectorINS_12basic_stringIcNS_11char_traitsIcEENS_9allocatorIcEEEENS4_IS6_EEEC1ERKS8_, symObjAddr: 0x82D8, symBinAddr: 0x100009018, symSize: 0x34 }
  - { offset: 0x3FCB0, size: 0x8, addend: 0x0, symName: __ZNKSt3__16vectorINS_10shared_ptrI4NodeEENS_9allocatorIS3_EEE4sizeB8ne180100Ev, symObjAddr: 0x830C, symBinAddr: 0x10000904C, symSize: 0x28 }
  - { offset: 0x3FCD6, size: 0x8, addend: 0x0, symName: __Z19get_ASCII_instancesNSt3__112basic_stringIcNS_11char_traitsIcEENS_9allocatorIcEEEE, symObjAddr: 0x8334, symBinAddr: 0x100009074, symSize: 0x390 }
  - { offset: 0x3FE38, size: 0x8, addend: 0x0, symName: __ZNSt3__113unordered_mapINS_12basic_stringIcNS_11char_traitsIcEENS_9allocatorIcEEEENS_6vectorINS7_ImNS4_ImEEEENS4_IS9_EEEENS_4hashIS6_EENS_8equal_toIS6_EENS4_INS_4pairIKS6_SB_EEEEEC1B8ne180100Ev, symObjAddr: 0x86C4, symBinAddr: 0x100009404, symSize: 0x2C }
  - { offset: 0x3FE62, size: 0x8, addend: 0x0, symName: __ZNSt3__114basic_ifstreamIcNS_11char_traitsIcEEEC1ERKNS_12basic_stringIcS2_NS_9allocatorIcEEEEj, symObjAddr: 0x86F0, symBinAddr: 0x100009430, symSize: 0x15C }
  - { offset: 0x3FEAC, size: 0x8, addend: 0x0, symName: __ZNSt3__113unordered_mapINS_12basic_stringIcNS_11char_traitsIcEENS_9allocatorIcEEEENS_6vectorINS7_ImNS4_ImEEEENS4_IS9_EEEENS_4hashIS6_EENS_8equal_toIS6_EENS4_INS_4pairIKS6_SB_EEEEE5beginB8ne180100Ev, symObjAddr: 0x884C, symBinAddr: 0x10000958C, symSize: 0x38 }
  - { offset: 0x3FED2, size: 0x8, addend: 0x0, symName: __ZNSt3__113unordered_mapINS_12basic_stringIcNS_11char_traitsIcEENS_9allocatorIcEEEENS_6vectorINS7_ImNS4_ImEEEENS4_IS9_EEEENS_4hashIS6_EENS_8equal_toIS6_EENS4_INS_4pairIKS6_SB_EEEEE3endB8ne180100Ev, symObjAddr: 0x8884, symBinAddr: 0x1000095C4, symSize: 0x38 }
  - { offset: 0x3FEF8, size: 0x8, addend: 0x0, symName: __ZNKSt3__119__hash_map_iteratorINS_15__hash_iteratorIPNS_11__hash_nodeINS_17__hash_value_typeINS_12basic_stringIcNS_11char_traitsIcEENS_9allocatorIcEEEENS_6vectorINSA_ImNS7_ImEEEENS7_ISC_EEEEEEPvEEEEEdeB8ne180100Ev, symObjAddr: 0x88E8, symBinAddr: 0x100009628, symSize: 0x28 }
  - { offset: 0x3FF1E, size: 0x8, addend: 0x0, symName: __ZNSt3__16vectorINS0_ImNS_9allocatorImEEEENS1_IS3_EEE5beginB8ne180100Ev, symObjAddr: 0x8910, symBinAddr: 0x100009650, symSize: 0x30 }
  - { offset: 0x3FF46, size: 0x8, addend: 0x0, symName: __ZNSt3__16vectorINS0_ImNS_9allocatorImEEEENS1_IS3_EEE3endB8ne180100Ev, symObjAddr: 0x8940, symBinAddr: 0x100009680, symSize: 0x30 }
  - { offset: 0x3FF6E, size: 0x8, addend: 0x0, symName: __ZNKSt3__111__wrap_iterIPNS_6vectorImNS_9allocatorImEEEEEdeB8ne180100Ev, symObjAddr: 0x89A0, symBinAddr: 0x1000096E0, symSize: 0x18 }
  - { offset: 0x3FF94, size: 0x8, addend: 0x0, symName: __ZNSt3__16vectorImNS_9allocatorImEEEixB8ne180100Em, symObjAddr: 0x89B8, symBinAddr: 0x1000096F8, symSize: 0x24 }
  - { offset: 0x3FFCB, size: 0x8, addend: 0x0, symName: __ZNSt3__111__wrap_iterIPNS_6vectorImNS_9allocatorImEEEEEppB8ne180100Ev, symObjAddr: 0x89DC, symBinAddr: 0x10000971C, symSize: 0x20 }
  - { offset: 0x3FFF1, size: 0x8, addend: 0x0, symName: __ZNSt3__119__hash_map_iteratorINS_15__hash_iteratorIPNS_11__hash_nodeINS_17__hash_value_typeINS_12basic_stringIcNS_11char_traitsIcEENS_9allocatorIcEEEENS_6vectorINSA_ImNS7_ImEEEENS7_ISC_EEEEEEPvEEEEEppB8ne180100Ev, symObjAddr: 0x89FC, symBinAddr: 0x10000973C, symSize: 0x2C }
  - { offset: 0x40017, size: 0x8, addend: 0x0, symName: __ZNSt3__113unordered_mapINS_12basic_stringIcNS_11char_traitsIcEENS_9allocatorIcEEEENS_6vectorINS7_ImNS4_ImEEEENS4_IS9_EEEENS_4hashIS6_EENS_8equal_toIS6_EENS4_INS_4pairIKS6_SB_EEEEED1B8ne180100Ev, symObjAddr: 0x8A28, symBinAddr: 0x100009768, symSize: 0x2C }
  - { offset: 0x40041, size: 0x8, addend: 0x0, symName: __Z17get_DOT_instancesNSt3__112basic_stringIcNS_11char_traitsIcEENS_9allocatorIcEEEE, symObjAddr: 0x8A54, symBinAddr: 0x100009794, symSize: 0x10 }
  - { offset: 0x4006D, size: 0x8, addend: 0x0, symName: _main, symObjAddr: 0x8A64, symBinAddr: 0x1000097A4, symSize: 0x64 }
  - { offset: 0x40088, size: 0x8, addend: 0x0, symName: __ZNSt3__113basic_ostreamIcNS_11char_traitsIcEEElsB8ne180100EPFRNS_8ios_baseES5_E, symObjAddr: 0x8AC8, symBinAddr: 0x100009808, symSize: 0x40 }
  - { offset: 0x400BC, size: 0x8, addend: 0x0, symName: __ZNSt3__18ios_base4setfB8ne180100Ejj, symObjAddr: 0x8BA4, symBinAddr: 0x1000098E4, symSize: 0x5C }
  - { offset: 0x40111, size: 0x8, addend: 0x0, symName: __ZNSt3__18ios_base6unsetfB8ne180100Ej, symObjAddr: 0x8C00, symBinAddr: 0x100009940, symSize: 0x28 }
  - { offset: 0x40148, size: 0x8, addend: 0x0, symName: __ZNSt3__18ios_base9precisionB8ne180100El, symObjAddr: 0x8C28, symBinAddr: 0x100009968, symSize: 0x2C }
  - { offset: 0x4018E, size: 0x8, addend: 0x0, symName: __ZNSt3__18__iom_t5C1B8ne180100Ei, symObjAddr: 0x8C54, symBinAddr: 0x100009994, symSize: 0x34 }
  - { offset: 0x401C6, size: 0x8, addend: 0x0, symName: __ZNSt3__18__iom_t5C2B8ne180100Ei, symObjAddr: 0x8C88, symBinAddr: 0x1000099C8, symSize: 0x20 }
  - { offset: 0x401FE, size: 0x8, addend: 0x0, symName: __ZN5ASTARC2ERK9AdjMatrixRKNSt3__16vectorINS3_10shared_ptrI4NodeEENS3_9allocatorIS7_EEEE, symObjAddr: 0x8CA8, symBinAddr: 0x1000099E8, symSize: 0x2C }
  - { offset: 0x40246, size: 0x8, addend: 0x0, symName: __ZN18more_than_specificC2Em, symObjAddr: 0x8CD4, symBinAddr: 0x100009A14, symSize: 0x20 }
  - { offset: 0x403C7, size: 0x8, addend: 0x0, symName: __ZNSt3__113unordered_setImNS_4hashImEENS_8equal_toImEENS_9allocatorImEEEC1B8ne180100Ev, symObjAddr: 0x8CF4, symBinAddr: 0x100009A34, symSize: 0x2C }
  - { offset: 0x403F1, size: 0x8, addend: 0x0, symName: __ZNSt3__16vectorINS_10shared_ptrI4NodeEENS_9allocatorIS3_EEE5beginB8ne180100Ev, symObjAddr: 0x8D64, symBinAddr: 0x100009AA4, symSize: 0x30 }
  - { offset: 0x40419, size: 0x8, addend: 0x0, symName: __ZNSt3__16vectorINS_10shared_ptrI4NodeEENS_9allocatorIS3_EEE3endB8ne180100Ev, symObjAddr: 0x8D94, symBinAddr: 0x100009AD4, symSize: 0x30 }
  - { offset: 0x40441, size: 0x8, addend: 0x0, symName: __ZNSt3__18functionIFbRKNS_10shared_ptrI4NodeEES5_EEC1ERKS7_, symObjAddr: 0x8DC4, symBinAddr: 0x100009B04, symSize: 0x34 }
  - { offset: 0x4047C, size: 0x8, addend: 0x0, symName: __ZNSt3__16vectorIdNS_9allocatorIdEEEC1EmRKd, symObjAddr: 0x8E58, symBinAddr: 0x100009B98, symSize: 0x3C }
  - { offset: 0x404C6, size: 0x8, addend: 0x0, symName: __ZNKSt3__18functionIFdRKNS_10shared_ptrI4NodeEES5_EEclES5_S5_, symObjAddr: 0x8E94, symBinAddr: 0x100009BD4, symSize: 0x34 }
  - { offset: 0x4050C, size: 0x8, addend: 0x0, symName: __ZNSt3__16vectorINS_10shared_ptrI4NodeEENS_9allocatorIS3_EEE9push_backB8ne180100ERKS3_, symObjAddr: 0x8EC8, symBinAddr: 0x100009C08, symSize: 0x8C }
  - { offset: 0x40552, size: 0x8, addend: 0x0, symName: __ZNKSt3__16vectorINS_10shared_ptrI4NodeEENS_9allocatorIS3_EEE5emptyB8ne180100Ev, symObjAddr: 0x8F98, symBinAddr: 0x100009CD8, symSize: 0x24 }
  - { offset: 0x40578, size: 0x8, addend: 0x0, symName: __ZNSt3__16vectorINS_10shared_ptrI4NodeEENS_9allocatorIS3_EEE4backB8ne180100Ev, symObjAddr: 0x901C, symBinAddr: 0x100009D5C, symSize: 0x1C }
  - { offset: 0x4059E, size: 0x8, addend: 0x0, symName: __ZNSt3__110shared_ptrI4NodeEaSB8ne180100ERKS2_, symObjAddr: 0x9038, symBinAddr: 0x100009D78, symSize: 0x50 }
  - { offset: 0x405D3, size: 0x8, addend: 0x0, symName: __ZNSt3__16vectorINS_10shared_ptrI4NodeEENS_9allocatorIS3_EEE8pop_backEv, symObjAddr: 0x9088, symBinAddr: 0x100009DC8, symSize: 0x2C }
  - { offset: 0x405FB, size: 0x8, addend: 0x0, symName: __ZNSt3__113unordered_setImNS_4hashImEENS_8equal_toImEENS_9allocatorImEEE4findB8ne180100ERKm, symObjAddr: 0x90E4, symBinAddr: 0x100009E24, symSize: 0x40 }
  - { offset: 0x40630, size: 0x8, addend: 0x0, symName: __ZNSt3__113unordered_setImNS_4hashImEENS_8equal_toImEENS_9allocatorImEEE3endB8ne180100Ev, symObjAddr: 0x9124, symBinAddr: 0x100009E64, symSize: 0x38 }
  - { offset: 0x40656, size: 0x8, addend: 0x0, symName: __ZNSt3__113unordered_setImNS_4hashImEENS_8equal_toImEENS_9allocatorImEEE6insertB8ne180100ERKm, symObjAddr: 0x915C, symBinAddr: 0x100009E9C, symSize: 0x4C }
  - { offset: 0x4068B, size: 0x8, addend: 0x0, symName: __ZNSt3__110shared_ptrI4NodeEC1B8ne180100EOS2_, symObjAddr: 0x91A8, symBinAddr: 0x100009EE8, symSize: 0x34 }
  - { offset: 0x406C4, size: 0x8, addend: 0x0, symName: __ZNK9AdjMatrixixEm, symObjAddr: 0x91DC, symBinAddr: 0x100009F1C, symSize: 0x2C }
  - { offset: 0x406F8, size: 0x8, addend: 0x0, symName: __ZNKSt3__16vectorI4EdgeNS_9allocatorIS1_EEE5beginB8ne180100Ev, symObjAddr: 0x9208, symBinAddr: 0x100009F48, symSize: 0x30 }
  - { offset: 0x40720, size: 0x8, addend: 0x0, symName: __ZNKSt3__16vectorI4EdgeNS_9allocatorIS1_EEE3endB8ne180100Ev, symObjAddr: 0x9268, symBinAddr: 0x100009FA8, symSize: 0x30 }
  - { offset: 0x40748, size: 0x8, addend: 0x0, symName: __ZNKSt3__111__wrap_iterIPK4EdgeEptB8ne180100Ev, symObjAddr: 0x9298, symBinAddr: 0x100009FD8, symSize: 0x28 }
  - { offset: 0x4076E, size: 0x8, addend: 0x0, symName: __ZNSt3__16vectorIdNS_9allocatorIdEEEC1ERKS3_, symObjAddr: 0x92C0, symBinAddr: 0x10000A000, symSize: 0x34 }
  - { offset: 0x407A9, size: 0x8, addend: 0x0, symName: __ZNSt3__111__wrap_iterIPK4EdgeEppB8ne180100Ei, symObjAddr: 0x935C, symBinAddr: 0x10000A09C, symSize: 0x34 }
  - { offset: 0x407E7, size: 0x8, addend: 0x0, symName: __ZNSt3__113unordered_setImNS_4hashImEENS_8equal_toImEENS_9allocatorImEEED1B8ne180100Ev, symObjAddr: 0x9390, symBinAddr: 0x10000A0D0, symSize: 0x2C }
  - { offset: 0x40811, size: 0x8, addend: 0x0, symName: __ZNSt3__113unordered_setImNS_4hashImEENS_8equal_toImEENS_9allocatorImEEEC2B8ne180100Ev, symObjAddr: 0x93BC, symBinAddr: 0x10000A0FC, symSize: 0x2C }
  - { offset: 0x4083B, size: 0x8, addend: 0x0, symName: __ZNSt3__112__hash_tableImNS_4hashImEENS_8equal_toImEENS_9allocatorImEEEC1Ev, symObjAddr: 0x93E8, symBinAddr: 0x10000A128, symSize: 0x2C }
  - { offset: 0x40865, size: 0x8, addend: 0x0, symName: __ZNSt3__112__hash_tableImNS_4hashImEENS_8equal_toImEENS_9allocatorImEEEC2Ev, symObjAddr: 0x9414, symBinAddr: 0x10000A154, symSize: 0x7C }
  - { offset: 0x4088F, size: 0x8, addend: 0x0, symName: __ZNSt3__110unique_ptrIA_PNS_16__hash_node_baseIPNS_11__hash_nodeImPvEEEENS_25__bucket_list_deallocatorINS_9allocatorIS7_EEEEEC1B8ne180100ILb1EvEEv, symObjAddr: 0x9490, symBinAddr: 0x10000A1D0, symSize: 0x2C }
  - { offset: 0x408C4, size: 0x8, addend: 0x0, symName: __ZNSt3__117__compressed_pairINS_16__hash_node_baseIPNS_11__hash_nodeImPvEEEENS_9allocatorIS4_EEEC1B8ne180100ILb1EvEEv, symObjAddr: 0x94BC, symBinAddr: 0x10000A1FC, symSize: 0x2C }
  - { offset: 0x40905, size: 0x8, addend: 0x0, symName: __ZNSt3__117__compressed_pairImNS_4hashImEEEC1B8ne180100IiNS_18__default_init_tagEEEOT_OT0_, symObjAddr: 0x94F8, symBinAddr: 0x10000A238, symSize: 0x3C }
  - { offset: 0x40963, size: 0x8, addend: 0x0, symName: __ZNSt3__117__compressed_pairIfNS_8equal_toImEEEC1B8ne180100IfNS_18__default_init_tagEEEOT_OT0_, symObjAddr: 0x9534, symBinAddr: 0x10000A274, symSize: 0x3C }
  - { offset: 0x409BB, size: 0x8, addend: 0x0, symName: __ZNSt3__110unique_ptrIA_PNS_16__hash_node_baseIPNS_11__hash_nodeImPvEEEENS_25__bucket_list_deallocatorINS_9allocatorIS7_EEEEEC2B8ne180100ILb1EvEEv, symObjAddr: 0x9570, symBinAddr: 0x10000A2B0, symSize: 0x3C }
  - { offset: 0x409F6, size: 0x8, addend: 0x0, symName: __ZNSt3__117__compressed_pairIPPNS_16__hash_node_baseIPNS_11__hash_nodeImPvEEEENS_25__bucket_list_deallocatorINS_9allocatorIS7_EEEEEC1B8ne180100INS_16__value_init_tagESF_EEOT_OT0_, symObjAddr: 0x95AC, symBinAddr: 0x10000A2EC, symSize: 0x3C }
  - { offset: 0x40A4E, size: 0x8, addend: 0x0, symName: __ZNSt3__117__compressed_pairIPPNS_16__hash_node_baseIPNS_11__hash_nodeImPvEEEENS_25__bucket_list_deallocatorINS_9allocatorIS7_EEEEEC2B8ne180100INS_16__value_init_tagESF_EEOT_OT0_, symObjAddr: 0x95E8, symBinAddr: 0x10000A328, symSize: 0x40 }
  - { offset: 0x40AA6, size: 0x8, addend: 0x0, symName: __ZNSt3__122__compressed_pair_elemIPPNS_16__hash_node_baseIPNS_11__hash_nodeImPvEEEELi0ELb0EEC2B8ne180100ENS_16__value_init_tagE, symObjAddr: 0x9628, symBinAddr: 0x10000A368, symSize: 0x18 }
  - { offset: 0x40ADA, size: 0x8, addend: 0x0, symName: __ZNSt3__122__compressed_pair_elemINS_25__bucket_list_deallocatorINS_9allocatorIPNS_16__hash_node_baseIPNS_11__hash_nodeImPvEEEEEEEELi1ELb0EEC2B8ne180100ENS_16__value_init_tagE, symObjAddr: 0x9640, symBinAddr: 0x10000A380, symSize: 0x2C }
  - { offset: 0x40B0E, size: 0x8, addend: 0x0, symName: __ZNSt3__125__bucket_list_deallocatorINS_9allocatorIPNS_16__hash_node_baseIPNS_11__hash_nodeImPvEEEEEEEC1B8ne180100Ev, symObjAddr: 0x966C, symBinAddr: 0x10000A3AC, symSize: 0x2C }
  - { offset: 0x40B38, size: 0x8, addend: 0x0, symName: __ZNSt3__125__bucket_list_deallocatorINS_9allocatorIPNS_16__hash_node_baseIPNS_11__hash_nodeImPvEEEEEEEC2B8ne180100Ev, symObjAddr: 0x9698, symBinAddr: 0x10000A3D8, symSize: 0x40 }
  - { offset: 0x40B62, size: 0x8, addend: 0x0, symName: __ZNSt3__117__compressed_pairImNS_9allocatorIPNS_16__hash_node_baseIPNS_11__hash_nodeImPvEEEEEEEC1B8ne180100IiNS_18__default_init_tagEEEOT_OT0_, symObjAddr: 0x96D8, symBinAddr: 0x10000A418, symSize: 0x3C }
  - { offset: 0x40BBA, size: 0x8, addend: 0x0, symName: __ZNSt3__117__compressed_pairImNS_9allocatorIPNS_16__hash_node_baseIPNS_11__hash_nodeImPvEEEEEEEC2B8ne180100IiNS_18__default_init_tagEEEOT_OT0_, symObjAddr: 0x9714, symBinAddr: 0x10000A454, symSize: 0x40 }
  - { offset: 0x40C12, size: 0x8, addend: 0x0, symName: __ZNSt3__122__compressed_pair_elemImLi0ELb0EEC2B8ne180100IivEEOT_, symObjAddr: 0x9754, symBinAddr: 0x10000A494, symSize: 0x24 }
  - { offset: 0x40C54, size: 0x8, addend: 0x0, symName: __ZNSt3__122__compressed_pair_elemINS_9allocatorIPNS_16__hash_node_baseIPNS_11__hash_nodeImPvEEEEEELi1ELb1EEC2B8ne180100ENS_18__default_init_tagE, symObjAddr: 0x9778, symBinAddr: 0x10000A4B8, symSize: 0x2C }
  - { offset: 0x40C88, size: 0x8, addend: 0x0, symName: __ZNSt3__19allocatorIPNS_16__hash_node_baseIPNS_11__hash_nodeImPvEEEEEC2B8ne180100Ev, symObjAddr: 0x97A4, symBinAddr: 0x10000A4E4, symSize: 0x2C }
  - { offset: 0x40CB2, size: 0x8, addend: 0x0, symName: __ZNSt3__116__non_trivial_ifILb1ENS_9allocatorIPNS_16__hash_node_baseIPNS_11__hash_nodeImPvEEEEEEEC2B8ne180100Ev, symObjAddr: 0x97D0, symBinAddr: 0x10000A510, symSize: 0x14 }
  - { offset: 0x40CDC, size: 0x8, addend: 0x0, symName: __ZNSt3__117__compressed_pairINS_16__hash_node_baseIPNS_11__hash_nodeImPvEEEENS_9allocatorIS4_EEEC2B8ne180100ILb1EvEEv, symObjAddr: 0x97E4, symBinAddr: 0x10000A524, symSize: 0x34 }
  - { offset: 0x40D11, size: 0x8, addend: 0x0, symName: __ZNSt3__122__compressed_pair_elemINS_16__hash_node_baseIPNS_11__hash_nodeImPvEEEELi0ELb0EEC2B8ne180100ENS_16__value_init_tagE, symObjAddr: 0x9818, symBinAddr: 0x10000A558, symSize: 0x2C }
  - { offset: 0x40D45, size: 0x8, addend: 0x0, symName: __ZNSt3__122__compressed_pair_elemINS_9allocatorINS_11__hash_nodeImPvEEEELi1ELb1EEC2B8ne180100ENS_16__value_init_tagE, symObjAddr: 0x9844, symBinAddr: 0x10000A584, symSize: 0x2C }
  - { offset: 0x40D79, size: 0x8, addend: 0x0, symName: __ZNSt3__116__hash_node_baseIPNS_11__hash_nodeImPvEEEC1B8ne180100Ev, symObjAddr: 0x9870, symBinAddr: 0x10000A5B0, symSize: 0x2C }
  - { offset: 0x40DA3, size: 0x8, addend: 0x0, symName: __ZNSt3__116__hash_node_baseIPNS_11__hash_nodeImPvEEEC2B8ne180100Ev, symObjAddr: 0x989C, symBinAddr: 0x10000A5DC, symSize: 0x18 }
  - { offset: 0x40DCD, size: 0x8, addend: 0x0, symName: __ZNSt3__19allocatorINS_11__hash_nodeImPvEEEC2B8ne180100Ev, symObjAddr: 0x98B4, symBinAddr: 0x10000A5F4, symSize: 0x2C }
  - { offset: 0x40DF7, size: 0x8, addend: 0x0, symName: __ZNSt3__116__non_trivial_ifILb1ENS_9allocatorINS_11__hash_nodeImPvEEEEEC2B8ne180100Ev, symObjAddr: 0x98E0, symBinAddr: 0x10000A620, symSize: 0x14 }
  - { offset: 0x40E21, size: 0x8, addend: 0x0, symName: __ZNSt3__117__compressed_pairImNS_4hashImEEEC2B8ne180100IiNS_18__default_init_tagEEEOT_OT0_, symObjAddr: 0x98F4, symBinAddr: 0x10000A634, symSize: 0x40 }
  - { offset: 0x40E79, size: 0x8, addend: 0x0, symName: __ZNSt3__122__compressed_pair_elemINS_4hashImEELi1ELb1EEC2B8ne180100ENS_18__default_init_tagE, symObjAddr: 0x9934, symBinAddr: 0x10000A674, symSize: 0x14 }
  - { offset: 0x40EAD, size: 0x8, addend: 0x0, symName: __ZNSt3__117__compressed_pairIfNS_8equal_toImEEEC2B8ne180100IfNS_18__default_init_tagEEEOT_OT0_, symObjAddr: 0x9948, symBinAddr: 0x10000A688, symSize: 0x40 }
  - { offset: 0x40F05, size: 0x8, addend: 0x0, symName: __ZNSt3__122__compressed_pair_elemIfLi0ELb0EEC2B8ne180100IfvEEOT_, symObjAddr: 0x9988, symBinAddr: 0x10000A6C8, symSize: 0x24 }
  - { offset: 0x40F47, size: 0x8, addend: 0x0, symName: __ZNSt3__122__compressed_pair_elemINS_8equal_toImEELi1ELb1EEC2B8ne180100ENS_18__default_init_tagE, symObjAddr: 0x99AC, symBinAddr: 0x10000A6EC, symSize: 0x14 }
  - { offset: 0x40F7B, size: 0x8, addend: 0x0, symName: __ZNKSt3__111__wrap_iterIPNS_10shared_ptrI4NodeEEEplB8ne180100El, symObjAddr: 0x9DD8, symBinAddr: 0x10000AB18, symSize: 0x3C }
  - { offset: 0x40FBD, size: 0x8, addend: 0x0, symName: __ZNKSt3__111__wrap_iterIPNS_10shared_ptrI4NodeEEE4baseB8ne180100Ev, symObjAddr: 0x9E14, symBinAddr: 0x10000AB54, symSize: 0x18 }
  - { offset: 0x40FE3, size: 0x8, addend: 0x0, symName: __ZNKSt3__18functionIFbRKNS_10shared_ptrI4NodeEES5_EEclES5_S5_, symObjAddr: 0x9E2C, symBinAddr: 0x10000AB6C, symSize: 0x34 }
  - { offset: 0x41029, size: 0x8, addend: 0x0, symName: __ZNKSt3__111__wrap_iterIPNS_10shared_ptrI4NodeEEEdeB8ne180100Ev, symObjAddr: 0x9E60, symBinAddr: 0x10000ABA0, symSize: 0x18 }
  - { offset: 0x4104F, size: 0x8, addend: 0x0, symName: __ZNSt3__111__wrap_iterIPNS_10shared_ptrI4NodeEEEppB8ne180100Ev, symObjAddr: 0x9E78, symBinAddr: 0x10000ABB8, symSize: 0x20 }
  - { offset: 0x4107B, size: 0x8, addend: 0x0, symName: __ZNSt3__18_IterOpsINS_17_ClassicAlgPolicyEE11__iter_moveB8ne180100IRNS_11__wrap_iterIPNS_10shared_ptrI4NodeEEEETnNS_9enable_ifIXsr12is_referenceIDTdeclsr3stdE7declvalIRT_EEEEE5valueEiE4typeELi0EEEDTclsr3stdE4movedeclsr3stdE7declvalISD_EEEEOSC_, symObjAddr: 0x9E98, symBinAddr: 0x10000ABD8, symSize: 0x28 }
  - { offset: 0x410AD, size: 0x8, addend: 0x0, symName: __ZNSt3__110shared_ptrI4NodeEaSB8ne180100EOS2_, symObjAddr: 0x9EC0, symBinAddr: 0x10000AC00, symSize: 0x50 }
  - { offset: 0x410E2, size: 0x8, addend: 0x0, symName: __ZNKSt3__110__function12__value_funcIFbRKNS_10shared_ptrI4NodeEES6_EEclB8ne180100ES6_S6_, symObjAddr: 0x9F10, symBinAddr: 0x10000AC50, symSize: 0x58 }
  - { offset: 0x4113D, size: 0x8, addend: 0x0, symName: __ZNSt3__117bad_function_callC1B8ne180100Ev, symObjAddr: 0x9FA0, symBinAddr: 0x10000ACE0, symSize: 0x2C }
  - { offset: 0x41167, size: 0x8, addend: 0x0, symName: __ZNSt3__117bad_function_callD1Ev, symObjAddr: 0x9FCC, symBinAddr: 0x10000AD0C, symSize: 0x2C }
  - { offset: 0x41191, size: 0x8, addend: 0x0, symName: __ZNSt3__117bad_function_callC2B8ne180100Ev, symObjAddr: 0x9FF8, symBinAddr: 0x10000AD38, symSize: 0x3C }
  - { offset: 0x411BB, size: 0x8, addend: 0x0, symName: __ZNSt9exceptionC2B8ne180100Ev, symObjAddr: 0xA034, symBinAddr: 0x10000AD74, symSize: 0x24 }
  - { offset: 0x411E5, size: 0x8, addend: 0x0, symName: __ZNSt3__117bad_function_callD0Ev, symObjAddr: 0xA058, symBinAddr: 0x10000AD98, symSize: 0x30 }
  - { offset: 0x4120F, size: 0x8, addend: 0x0, symName: __ZNSt3__117bad_function_callD2Ev, symObjAddr: 0xA088, symBinAddr: 0x10000ADC8, symSize: 0x2C }
  - { offset: 0x41239, size: 0x8, addend: 0x0, symName: __ZNSt3__18_IterOpsINS_17_ClassicAlgPolicyEE25__validate_iter_referenceB8ne180100IRNS_11__wrap_iterIPNS_10shared_ptrI4NodeEEEEEEvv, symObjAddr: 0xA0B4, symBinAddr: 0x10000ADF4, symSize: 0x4 }
  - { offset: 0x41257, size: 0x8, addend: 0x0, symName: __ZNSt3__110shared_ptrI4NodeE4swapB8ne180100ERS2_, symObjAddr: 0xA0B8, symBinAddr: 0x10000ADF8, symSize: 0x44 }
  - { offset: 0x4128C, size: 0x8, addend: 0x0, symName: __ZNSt3__111__wrap_iterIPNS_10shared_ptrI4NodeEEEpLB8ne180100El, symObjAddr: 0xA174, symBinAddr: 0x10000AEB4, symSize: 0x28 }
  - { offset: 0x412C0, size: 0x8, addend: 0x0, symName: __ZNSt3__16vectorINS_10shared_ptrI4NodeEENS_9allocatorIS3_EEE11__make_iterB8ne180100EPS3_, symObjAddr: 0xA19C, symBinAddr: 0x10000AEDC, symSize: 0x30 }
  - { offset: 0x412F5, size: 0x8, addend: 0x0, symName: __ZNSt3__111__wrap_iterIPNS_10shared_ptrI4NodeEEEC1B8ne180100ES4_, symObjAddr: 0xA1CC, symBinAddr: 0x10000AF0C, symSize: 0x34 }
  - { offset: 0x4132D, size: 0x8, addend: 0x0, symName: __ZNSt3__111__wrap_iterIPNS_10shared_ptrI4NodeEEEC2B8ne180100ES4_, symObjAddr: 0xA200, symBinAddr: 0x10000AF40, symSize: 0x20 }
  - { offset: 0x41365, size: 0x8, addend: 0x0, symName: __ZNSt3__18functionIFbRKNS_10shared_ptrI4NodeEES5_EEC2ERKS7_, symObjAddr: 0xA220, symBinAddr: 0x10000AF60, symSize: 0x34 }
  - { offset: 0x413A0, size: 0x8, addend: 0x0, symName: __ZNSt3__110__function12__value_funcIFbRKNS_10shared_ptrI4NodeEES6_EEC1B8ne180100ERKS8_, symObjAddr: 0xA254, symBinAddr: 0x10000AF94, symSize: 0x34 }
  - { offset: 0x413D9, size: 0x8, addend: 0x0, symName: __ZNSt3__110__function12__value_funcIFbRKNS_10shared_ptrI4NodeEES6_EEC2B8ne180100ERKS8_, symObjAddr: 0xA288, symBinAddr: 0x10000AFC8, symSize: 0xB4 }
  - { offset: 0x41412, size: 0x8, addend: 0x0, symName: __ZNSt3__110__function12__value_funcIFbRKNS_10shared_ptrI4NodeEES6_EE9__as_baseB8ne180100EPv, symObjAddr: 0xA33C, symBinAddr: 0x10000B07C, symSize: 0x14 }
  - { offset: 0x41436, size: 0x8, addend: 0x0, symName: __ZNSt3__19allocatorI4NodeEC1B8ne180100Ev, symObjAddr: 0xA408, symBinAddr: 0x10000B148, symSize: 0x2C }
  - { offset: 0x414B7, size: 0x8, addend: 0x0, symName: __ZNSt3__118__allocation_guardINS_9allocatorINS_20__shared_ptr_emplaceI4NodeNS1_IS3_EEEEEEEC1B8ne180100IS4_EET_m, symObjAddr: 0xA434, symBinAddr: 0x10000B174, symSize: 0x34 }
  - { offset: 0x41506, size: 0x8, addend: 0x0, symName: __ZNKSt3__118__allocation_guardINS_9allocatorINS_20__shared_ptr_emplaceI4NodeNS1_IS3_EEEEEEE5__getB8ne180100Ev, symObjAddr: 0xA468, symBinAddr: 0x10000B1A8, symSize: 0x18 }
  - { offset: 0x4152C, size: 0x8, addend: 0x0, symName: __ZNSt3__120__shared_ptr_emplaceI4NodeNS_9allocatorIS1_EEEC1B8ne180100IJRdS6_RmNS_6vectorIdNS2_IdEEEEdES3_TnNS_9enable_ifIXntsr7is_sameINT0_10value_typeENS_19__for_overwrite_tagEEE5valueEiE4typeELi0EEES3_DpOT_, symObjAddr: 0xA480, symBinAddr: 0x10000B1C0, symSize: 0x54 }
  - { offset: 0x415DE, size: 0x8, addend: 0x0, symName: __ZNSt3__118__allocation_guardINS_9allocatorINS_20__shared_ptr_emplaceI4NodeNS1_IS3_EEEEEEE13__release_ptrB8ne180100Ev, symObjAddr: 0xA4D4, symBinAddr: 0x10000B214, symSize: 0x24 }
  - { offset: 0x41612, size: 0x8, addend: 0x0, symName: __ZNSt3__110shared_ptrI4NodeE27__create_with_control_blockB8ne180100IS1_NS_20__shared_ptr_emplaceIS1_NS_9allocatorIS1_EEEEEES2_PT_PT0_, symObjAddr: 0xA4F8, symBinAddr: 0x10000B238, symSize: 0xA4 }
  - { offset: 0x41667, size: 0x8, addend: 0x0, symName: __ZNSt3__120__shared_ptr_emplaceI4NodeNS_9allocatorIS1_EEE10__get_elemB8ne180100Ev, symObjAddr: 0xA59C, symBinAddr: 0x10000B2DC, symSize: 0x28 }
  - { offset: 0x4168D, size: 0x8, addend: 0x0, symName: __ZNSt3__118__allocation_guardINS_9allocatorINS_20__shared_ptr_emplaceI4NodeNS1_IS3_EEEEEEED1B8ne180100Ev, symObjAddr: 0xA5C4, symBinAddr: 0x10000B304, symSize: 0x2C }
  - { offset: 0x416B7, size: 0x8, addend: 0x0, symName: __ZNSt3__118__allocation_guardINS_9allocatorINS_20__shared_ptr_emplaceI4NodeNS1_IS3_EEEEEEEC2B8ne180100IS4_EET_m, symObjAddr: 0xA5F0, symBinAddr: 0x10000B330, symSize: 0x50 }
  - { offset: 0x41706, size: 0x8, addend: 0x0, symName: __ZNSt3__19allocatorINS_20__shared_ptr_emplaceI4NodeNS0_IS2_EEEEEC1B8ne180100IS2_EERKNS0_IT_EE, symObjAddr: 0xA640, symBinAddr: 0x10000B380, symSize: 0x34 }
  - { offset: 0x41743, size: 0x8, addend: 0x0, symName: __ZNSt3__116allocator_traitsINS_9allocatorINS_20__shared_ptr_emplaceI4NodeNS1_IS3_EEEEEEE8allocateB8ne180100ERS6_m, symObjAddr: 0xA674, symBinAddr: 0x10000B3B4, symSize: 0x2C }
  - { offset: 0x41776, size: 0x8, addend: 0x0, symName: __ZNSt3__19allocatorINS_20__shared_ptr_emplaceI4NodeNS0_IS2_EEEEEC2B8ne180100IS2_EERKNS0_IT_EE, symObjAddr: 0xA6A0, symBinAddr: 0x10000B3E0, symSize: 0x30 }
  - { offset: 0x417B3, size: 0x8, addend: 0x0, symName: __ZNSt3__116__non_trivial_ifILb1ENS_9allocatorINS_20__shared_ptr_emplaceI4NodeNS1_IS3_EEEEEEEC2B8ne180100Ev, symObjAddr: 0xA6D0, symBinAddr: 0x10000B410, symSize: 0x14 }
  - { offset: 0x417DD, size: 0x8, addend: 0x0, symName: __ZNSt3__19allocatorINS_20__shared_ptr_emplaceI4NodeNS0_IS2_EEEEE8allocateB8ne180100Em, symObjAddr: 0xA6E4, symBinAddr: 0x10000B424, symSize: 0x58 }
  - { offset: 0x4181C, size: 0x8, addend: 0x0, symName: __ZNSt3__116allocator_traitsINS_9allocatorINS_20__shared_ptr_emplaceI4NodeNS1_IS3_EEEEEEE8max_sizeB8ne180100IS6_vEEmRKS6_, symObjAddr: 0xA73C, symBinAddr: 0x10000B47C, symSize: 0x24 }
  - { offset: 0x4184A, size: 0x8, addend: 0x0, symName: __ZNKSt3__19allocatorINS_20__shared_ptr_emplaceI4NodeNS0_IS2_EEEEE8max_sizeB8ne180100Ev, symObjAddr: 0xA7F4, symBinAddr: 0x10000B534, symSize: 0x18 }
  - { offset: 0x41870, size: 0x8, addend: 0x0, symName: __ZNSt3__120__shared_ptr_emplaceI4NodeNS_9allocatorIS1_EEEC2B8ne180100IJRdS6_RmNS_6vectorIdNS2_IdEEEEdES3_TnNS_9enable_ifIXntsr7is_sameINT0_10value_typeENS_19__for_overwrite_tagEEE5valueEiE4typeELi0EEES3_DpOT_, symObjAddr: 0xA878, symBinAddr: 0x10000B5B8, symSize: 0xDC }
  - { offset: 0x41943, size: 0x8, addend: 0x0, symName: __ZNSt3__119__shared_weak_countC2B8ne180100El, symObjAddr: 0xA954, symBinAddr: 0x10000B694, symSize: 0x4C }
  - { offset: 0x4197B, size: 0x8, addend: 0x0, symName: __ZNSt3__120__shared_ptr_emplaceI4NodeNS_9allocatorIS1_EEE8_StorageC1B8ne180100EOS3_, symObjAddr: 0xA9A0, symBinAddr: 0x10000B6E0, symSize: 0x34 }
  - { offset: 0x419B4, size: 0x8, addend: 0x0, symName: __ZNSt3__120__shared_ptr_emplaceI4NodeNS_9allocatorIS1_EEE11__get_allocB8ne180100Ev, symObjAddr: 0xA9D4, symBinAddr: 0x10000B714, symSize: 0x28 }
  - { offset: 0x419E0, size: 0x8, addend: 0x0, symName: __ZNSt3__116allocator_traitsINS_9allocatorI4NodeEEE9constructB8ne180100IS2_JRdS6_RmNS_6vectorIdNS1_IdEEEEdEvEEvRS3_PT_DpOT0_, symObjAddr: 0xA9FC, symBinAddr: 0x10000B73C, symSize: 0x54 }
  - { offset: 0x41A87, size: 0x8, addend: 0x0, symName: __ZNSt3__120__shared_ptr_emplaceI4NodeNS_9allocatorIS1_EEE8_StorageD1B8ne180100Ev, symObjAddr: 0xAA50, symBinAddr: 0x10000B790, symSize: 0x2C }
  - { offset: 0x41AB1, size: 0x8, addend: 0x0, symName: __ZNSt3__120__shared_ptr_emplaceI4NodeNS_9allocatorIS1_EEED1Ev, symObjAddr: 0xAA7C, symBinAddr: 0x10000B7BC, symSize: 0x2C }
  - { offset: 0x41ADD, size: 0x8, addend: 0x0, symName: __ZNSt3__120__shared_ptr_emplaceI4NodeNS_9allocatorIS1_EEED0Ev, symObjAddr: 0xAAA8, symBinAddr: 0x10000B7E8, symSize: 0x30 }
  - { offset: 0x41B09, size: 0x8, addend: 0x0, symName: __ZNSt3__120__shared_ptr_emplaceI4NodeNS_9allocatorIS1_EEE16__on_zero_sharedEv, symObjAddr: 0xAAD8, symBinAddr: 0x10000B818, symSize: 0x24 }
  - { offset: 0x41B2F, size: 0x8, addend: 0x0, symName: __ZNSt3__120__shared_ptr_emplaceI4NodeNS_9allocatorIS1_EEE21__on_zero_shared_weakEv, symObjAddr: 0xAAFC, symBinAddr: 0x10000B83C, symSize: 0x5C }
  - { offset: 0x41B70, size: 0x8, addend: 0x0, symName: __ZNSt3__114__shared_countC2B8ne180100El, symObjAddr: 0xAB58, symBinAddr: 0x10000B898, symSize: 0x30 }
  - { offset: 0x41BA8, size: 0x8, addend: 0x0, symName: __ZNSt3__120__shared_ptr_emplaceI4NodeNS_9allocatorIS1_EEE8_StorageC2B8ne180100EOS3_, symObjAddr: 0xAB88, symBinAddr: 0x10000B8C8, symSize: 0x30 }
  - { offset: 0x41BE1, size: 0x8, addend: 0x0, symName: __ZNSt3__120__shared_ptr_emplaceI4NodeNS_9allocatorIS1_EEE8_Storage11__get_allocB8ne180100Ev, symObjAddr: 0xABB8, symBinAddr: 0x10000B8F8, symSize: 0x3C }
  - { offset: 0x41C34, size: 0x8, addend: 0x0, symName: __ZNSt3__117__compressed_pairINS_9allocatorI4NodeEES2_E16__get_first_baseB8ne180100EPS4_, symObjAddr: 0xABF4, symBinAddr: 0x10000B934, symSize: 0x14 }
  - { offset: 0x41C57, size: 0x8, addend: 0x0, symName: __ZNSt3__19allocatorI4NodeE9constructB8ne180100IS1_JRdS4_RmNS_6vectorIdNS0_IdEEEEdEEEvPT_DpOT0_, symObjAddr: 0xAC08, symBinAddr: 0x10000B948, symSize: 0xE8 }
  - { offset: 0x41CF9, size: 0x8, addend: 0x0, symName: __ZNSt3__16vectorIdNS_9allocatorIdEEEC1B8ne180100EOS3_, symObjAddr: 0xACF0, symBinAddr: 0x10000BA30, symSize: 0x34 }
  - { offset: 0x41D34, size: 0x8, addend: 0x0, symName: __ZN4NodeC1EddmNSt3__16vectorIdNS0_9allocatorIdEEEEdNS0_10shared_ptrIS_EE, symObjAddr: 0xAD24, symBinAddr: 0x10000BA64, symSize: 0x5C }
  - { offset: 0x41DB4, size: 0x8, addend: 0x0, symName: __ZNSt3__16vectorIdNS_9allocatorIdEEEC2B8ne180100EOS3_, symObjAddr: 0xAD80, symBinAddr: 0x10000BAC0, symSize: 0xC4 }
  - { offset: 0x41DEF, size: 0x8, addend: 0x0, symName: __ZNSt3__16vectorIdNS_9allocatorIdEEE7__allocB8ne180100Ev, symObjAddr: 0xAE44, symBinAddr: 0x10000BB84, symSize: 0x28 }
  - { offset: 0x41E21, size: 0x8, addend: 0x0, symName: __ZNSt3__117__compressed_pairIPdNS_9allocatorIdEEEC1B8ne180100IDnS3_EEOT_OT0_, symObjAddr: 0xAE6C, symBinAddr: 0x10000BBAC, symSize: 0x3C }
  - { offset: 0x41E79, size: 0x8, addend: 0x0, symName: __ZNSt3__16vectorIdNS_9allocatorIdEEE9__end_capB8ne180100Ev, symObjAddr: 0xAEA8, symBinAddr: 0x10000BBE8, symSize: 0x28 }
  - { offset: 0x41E9F, size: 0x8, addend: 0x0, symName: __ZNSt3__117__compressed_pairIPdNS_9allocatorIdEEE6secondB8ne180100Ev, symObjAddr: 0xAED0, symBinAddr: 0x10000BC10, symSize: 0x24 }
  - { offset: 0x41EC5, size: 0x8, addend: 0x0, symName: __ZNSt3__122__compressed_pair_elemINS_9allocatorIdEELi1ELb1EE5__getB8ne180100Ev, symObjAddr: 0xAEF4, symBinAddr: 0x10000BC34, symSize: 0x14 }
  - { offset: 0x41EEB, size: 0x8, addend: 0x0, symName: __ZNSt3__117__compressed_pairIPdNS_9allocatorIdEEEC2B8ne180100IDnS3_EEOT_OT0_, symObjAddr: 0xAF08, symBinAddr: 0x10000BC48, symSize: 0x44 }
  - { offset: 0x41F43, size: 0x8, addend: 0x0, symName: __ZNSt3__122__compressed_pair_elemIPdLi0ELb0EEC2B8ne180100IDnvEEOT_, symObjAddr: 0xAF4C, symBinAddr: 0x10000BC8C, symSize: 0x1C }
  - { offset: 0x41F85, size: 0x8, addend: 0x0, symName: __ZNSt3__122__compressed_pair_elemINS_9allocatorIdEELi1ELb1EEC2B8ne180100IS2_vEEOT_, symObjAddr: 0xAF68, symBinAddr: 0x10000BCA8, symSize: 0x18 }
  - { offset: 0x41FC7, size: 0x8, addend: 0x0, symName: __ZNSt3__117__compressed_pairIPdNS_9allocatorIdEEE5firstB8ne180100Ev, symObjAddr: 0xAF80, symBinAddr: 0x10000BCC0, symSize: 0x24 }
  - { offset: 0x41FED, size: 0x8, addend: 0x0, symName: __ZNSt3__122__compressed_pair_elemIPdLi0ELb0EE5__getB8ne180100Ev, symObjAddr: 0xAFA4, symBinAddr: 0x10000BCE4, symSize: 0x14 }
  - { offset: 0x42013, size: 0x8, addend: 0x0, symName: __ZN4NodeC2EddmNSt3__16vectorIdNS0_9allocatorIdEEEEdNS0_10shared_ptrIS_EE, symObjAddr: 0xAFB8, symBinAddr: 0x10000BCF8, symSize: 0x18C }
  - { offset: 0x420A7, size: 0x8, addend: 0x0, symName: __ZNSt16initializer_listIdEC1B8ne180100Ev, symObjAddr: 0xB144, symBinAddr: 0x10000BE84, symSize: 0x2C }
  - { offset: 0x420D1, size: 0x8, addend: 0x0, symName: __ZNSt3__110shared_ptrI4NodeEC1B8ne180100ERKS2_, symObjAddr: 0xB170, symBinAddr: 0x10000BEB0, symSize: 0x34 }
  - { offset: 0x4210A, size: 0x8, addend: 0x0, symName: __ZNSt16initializer_listIdEC2B8ne180100Ev, symObjAddr: 0xB1A4, symBinAddr: 0x10000BEE4, symSize: 0x1C }
  - { offset: 0x42134, size: 0x8, addend: 0x0, symName: __ZNSt3__110shared_ptrI4NodeEC2B8ne180100ERKS2_, symObjAddr: 0xB1C0, symBinAddr: 0x10000BF00, symSize: 0x68 }
  - { offset: 0x4216D, size: 0x8, addend: 0x0, symName: __ZNSt3__119__shared_weak_count12__add_sharedB8ne180100Ev, symObjAddr: 0xB228, symBinAddr: 0x10000BF68, symSize: 0x24 }
  - { offset: 0x42193, size: 0x8, addend: 0x0, symName: __ZNSt3__114__shared_count12__add_sharedB8ne180100Ev, symObjAddr: 0xB24C, symBinAddr: 0x10000BF8C, symSize: 0x28 }
  - { offset: 0x421B9, size: 0x8, addend: 0x0, symName: __ZNSt3__120__shared_ptr_emplaceI4NodeNS_9allocatorIS1_EEE8_StorageD2B8ne180100Ev, symObjAddr: 0xB2A4, symBinAddr: 0x10000BFE4, symSize: 0x2C }
  - { offset: 0x421E3, size: 0x8, addend: 0x0, symName: __ZNSt3__120__shared_ptr_emplaceI4NodeNS_9allocatorIS1_EEED2Ev, symObjAddr: 0xB2D0, symBinAddr: 0x10000C010, symSize: 0x48 }
  - { offset: 0x4220F, size: 0x8, addend: 0x0, symName: __ZNSt3__120__shared_ptr_emplaceI4NodeNS_9allocatorIS1_EEE21__on_zero_shared_implB8ne180100IS3_TnNS_9enable_ifIXntsr7is_sameINT_10value_typeENS_19__for_overwrite_tagEEE5valueEiE4typeELi0EEEvv, symObjAddr: 0xB318, symBinAddr: 0x10000C058, symSize: 0x44 }
  - { offset: 0x4225F, size: 0x8, addend: 0x0, symName: __ZNSt3__116allocator_traitsINS_9allocatorI4NodeEEE7destroyB8ne180100IS2_vEEvRS3_PT_, symObjAddr: 0xB35C, symBinAddr: 0x10000C09C, symSize: 0x2C }
  - { offset: 0x4229C, size: 0x8, addend: 0x0, symName: __ZNSt3__19allocatorI4NodeE7destroyB8ne180100EPS1_, symObjAddr: 0xB388, symBinAddr: 0x10000C0C8, symSize: 0x28 }
  - { offset: 0x422D0, size: 0x8, addend: 0x0, symName: __ZN4NodeD1Ev, symObjAddr: 0xB3B0, symBinAddr: 0x10000C0F0, symSize: 0x2C }
  - { offset: 0x422FA, size: 0x8, addend: 0x0, symName: __ZN4NodeD2Ev, symObjAddr: 0xB3DC, symBinAddr: 0x10000C11C, symSize: 0x48 }
  - { offset: 0x42324, size: 0x8, addend: 0x0, symName: __ZNSt3__116allocator_traitsINS_9allocatorINS_20__shared_ptr_emplaceI4NodeNS1_IS3_EEEEEEE10deallocateB8ne180100ERS6_PS5_m, symObjAddr: 0xB424, symBinAddr: 0x10000C164, symSize: 0x34 }
  - { offset: 0x42366, size: 0x8, addend: 0x0, symName: __ZNSt3__114pointer_traitsIPNS_20__shared_ptr_emplaceI4NodeNS_9allocatorIS2_EEEEE10pointer_toB8ne180100ERS5_, symObjAddr: 0xB458, symBinAddr: 0x10000C198, symSize: 0x14 }
  - { offset: 0x42389, size: 0x8, addend: 0x0, symName: __ZNSt3__19allocatorINS_20__shared_ptr_emplaceI4NodeNS0_IS2_EEEEE10deallocateB8ne180100EPS4_m, symObjAddr: 0xB46C, symBinAddr: 0x10000C1AC, symSize: 0x44 }
  - { offset: 0x423CB, size: 0x8, addend: 0x0, symName: __ZNSt3__110shared_ptrI4NodeEC1B8ne180100Ev, symObjAddr: 0xB5B8, symBinAddr: 0x10000C2F8, symSize: 0x2C }
  - { offset: 0x423F5, size: 0x8, addend: 0x0, symName: __ZNSt3__110shared_ptrI4NodeE18__enable_weak_thisB8ne180100Ez, symObjAddr: 0xB5E4, symBinAddr: 0x10000C324, symSize: 0x10 }
  - { offset: 0x4241C, size: 0x8, addend: 0x0, symName: __ZNSt3__110shared_ptrI4NodeEC2B8ne180100Ev, symObjAddr: 0xB5F4, symBinAddr: 0x10000C334, symSize: 0x1C }
  - { offset: 0x42446, size: 0x8, addend: 0x0, symName: __ZNSt3__120__shared_ptr_emplaceI4NodeNS_9allocatorIS1_EEE8_Storage10__get_elemB8ne180100Ev, symObjAddr: 0xB610, symBinAddr: 0x10000C350, symSize: 0x3C }
  - { offset: 0x42499, size: 0x8, addend: 0x0, symName: __ZNSt3__117__compressed_pairINS_9allocatorI4NodeEES2_E17__get_second_baseB8ne180100EPS4_, symObjAddr: 0xB64C, symBinAddr: 0x10000C38C, symSize: 0x14 }
  - { offset: 0x424BC, size: 0x8, addend: 0x0, symName: __ZNSt3__118__allocation_guardINS_9allocatorINS_20__shared_ptr_emplaceI4NodeNS1_IS3_EEEEEEED2B8ne180100Ev, symObjAddr: 0xB660, symBinAddr: 0x10000C3A0, symSize: 0x2C }
  - { offset: 0x424E6, size: 0x8, addend: 0x0, symName: __ZNSt3__118__allocation_guardINS_9allocatorINS_20__shared_ptr_emplaceI4NodeNS1_IS3_EEEEEEE9__destroyB8ne180100Ev, symObjAddr: 0xB68C, symBinAddr: 0x10000C3CC, symSize: 0x44 }
  - { offset: 0x4250C, size: 0x8, addend: 0x0, symName: __ZNSt3__19allocatorI4NodeEC2B8ne180100Ev, symObjAddr: 0xB6D0, symBinAddr: 0x10000C410, symSize: 0x2C }
  - { offset: 0x42536, size: 0x8, addend: 0x0, symName: __ZNSt3__116__non_trivial_ifILb1ENS_9allocatorI4NodeEEEC2B8ne180100Ev, symObjAddr: 0xB6FC, symBinAddr: 0x10000C43C, symSize: 0x14 }
  - { offset: 0x42560, size: 0x8, addend: 0x0, symName: __ZNSt3__16vectorIdNS_9allocatorIdEEEC2EmRKd, symObjAddr: 0xB710, symBinAddr: 0x10000C450, symSize: 0xD8 }
  - { offset: 0x425BF, size: 0x8, addend: 0x0, symName: __ZNSt3__117__compressed_pairIPdNS_9allocatorIdEEEC1B8ne180100IDnNS_18__default_init_tagEEEOT_OT0_, symObjAddr: 0xB7E8, symBinAddr: 0x10000C528, symSize: 0x3C }
  - { offset: 0x42617, size: 0x8, addend: 0x0, symName: __ZNSt3__16vectorIdNS_9allocatorIdEEE16__destroy_vectorC1B8ne180100ERS3_, symObjAddr: 0xB864, symBinAddr: 0x10000C5A4, symSize: 0x34 }
  - { offset: 0x42650, size: 0x8, addend: 0x0, symName: __ZNSt3__16vectorIdNS_9allocatorIdEEE11__vallocateB8ne180100Em, symObjAddr: 0xB898, symBinAddr: 0x10000C5D8, symSize: 0xA8 }
  - { offset: 0x42694, size: 0x8, addend: 0x0, symName: __ZNSt3__16vectorIdNS_9allocatorIdEEE18__construct_at_endEmRKd, symObjAddr: 0xB940, symBinAddr: 0x10000C680, symSize: 0xCC }
  - { offset: 0x42716, size: 0x8, addend: 0x0, symName: __ZNSt3__128__exception_guard_exceptionsINS_6vectorIdNS_9allocatorIdEEE16__destroy_vectorEE10__completeB8ne180100Ev, symObjAddr: 0xBA0C, symBinAddr: 0x10000C74C, symSize: 0x1C }
  - { offset: 0x4273C, size: 0x8, addend: 0x0, symName: __ZNSt3__128__exception_guard_exceptionsINS_6vectorIdNS_9allocatorIdEEE16__destroy_vectorEED1B8ne180100Ev, symObjAddr: 0xBA28, symBinAddr: 0x10000C768, symSize: 0x2C }
  - { offset: 0x42766, size: 0x8, addend: 0x0, symName: __ZNSt3__117__compressed_pairIPdNS_9allocatorIdEEEC2B8ne180100IDnNS_18__default_init_tagEEEOT_OT0_, symObjAddr: 0xBA54, symBinAddr: 0x10000C794, symSize: 0x40 }
  - { offset: 0x427BE, size: 0x8, addend: 0x0, symName: __ZNSt3__122__compressed_pair_elemINS_9allocatorIdEELi1ELb1EEC2B8ne180100ENS_18__default_init_tagE, symObjAddr: 0xBA94, symBinAddr: 0x10000C7D4, symSize: 0x2C }
  - { offset: 0x427F2, size: 0x8, addend: 0x0, symName: __ZNSt3__19allocatorIdEC2B8ne180100Ev, symObjAddr: 0xBAC0, symBinAddr: 0x10000C800, symSize: 0x2C }
  - { offset: 0x4281C, size: 0x8, addend: 0x0, symName: __ZNSt3__116__non_trivial_ifILb1ENS_9allocatorIdEEEC2B8ne180100Ev, symObjAddr: 0xBAEC, symBinAddr: 0x10000C82C, symSize: 0x14 }
  - { offset: 0x42846, size: 0x8, addend: 0x0, symName: __ZNSt3__128__exception_guard_exceptionsINS_6vectorIdNS_9allocatorIdEEE16__destroy_vectorEEC1B8ne180100ES5_, symObjAddr: 0xBB00, symBinAddr: 0x10000C840, symSize: 0x34 }
  - { offset: 0x4287E, size: 0x8, addend: 0x0, symName: __ZNSt3__128__exception_guard_exceptionsINS_6vectorIdNS_9allocatorIdEEE16__destroy_vectorEEC2B8ne180100ES5_, symObjAddr: 0xBB34, symBinAddr: 0x10000C874, symSize: 0x24 }
  - { offset: 0x428B6, size: 0x8, addend: 0x0, symName: __ZNSt3__16vectorIdNS_9allocatorIdEEE16__destroy_vectorC2B8ne180100ERS3_, symObjAddr: 0xBB58, symBinAddr: 0x10000C898, symSize: 0x20 }
  - { offset: 0x428EF, size: 0x8, addend: 0x0, symName: __ZNKSt3__16vectorIdNS_9allocatorIdEEE8max_sizeEv, symObjAddr: 0xBB78, symBinAddr: 0x10000C8B8, symSize: 0x60 }
  - { offset: 0x42917, size: 0x8, addend: 0x0, symName: __ZNKSt3__16vectorIdNS_9allocatorIdEEE20__throw_length_errorB8ne180100Ev, symObjAddr: 0xBBD8, symBinAddr: 0x10000C918, symSize: 0x1C }
  - { offset: 0x4293D, size: 0x8, addend: 0x0, symName: __ZNKSt3__16vectorIdNS_9allocatorIdEEE14__annotate_newB8ne180100Em, symObjAddr: 0xBC34, symBinAddr: 0x10000C974, symSize: 0x14 }
  - { offset: 0x4297D, size: 0x8, addend: 0x0, symName: __ZNSt3__116allocator_traitsINS_9allocatorIdEEE8max_sizeB8ne180100IS2_vEEmRKS2_, symObjAddr: 0xBC74, symBinAddr: 0x10000C9B4, symSize: 0x24 }
  - { offset: 0x429AB, size: 0x8, addend: 0x0, symName: __ZNKSt3__16vectorIdNS_9allocatorIdEEE7__allocB8ne180100Ev, symObjAddr: 0xBC98, symBinAddr: 0x10000C9D8, symSize: 0x28 }
  - { offset: 0x429DC, size: 0x8, addend: 0x0, symName: __ZNKSt3__16__lessIvvEclB8ne180100ImmEEbRKT_RKT0_, symObjAddr: 0xBD14, symBinAddr: 0x10000CA54, symSize: 0x30 }
  - { offset: 0x42A30, size: 0x8, addend: 0x0, symName: __ZNKSt3__19allocatorIdE8max_sizeB8ne180100Ev, symObjAddr: 0xBD44, symBinAddr: 0x10000CA84, symSize: 0x14 }
  - { offset: 0x42A56, size: 0x8, addend: 0x0, symName: __ZNKSt3__117__compressed_pairIPdNS_9allocatorIdEEE6secondB8ne180100Ev, symObjAddr: 0xBD58, symBinAddr: 0x10000CA98, symSize: 0x24 }
  - { offset: 0x42A7C, size: 0x8, addend: 0x0, symName: __ZNKSt3__122__compressed_pair_elemINS_9allocatorIdEELi1ELb1EE5__getB8ne180100Ev, symObjAddr: 0xBD7C, symBinAddr: 0x10000CABC, symSize: 0x14 }
  - { offset: 0x42AA2, size: 0x8, addend: 0x0, symName: __ZNSt12length_errorC1B8ne180100EPKc, symObjAddr: 0xBDF4, symBinAddr: 0x10000CB34, symSize: 0x34 }
  - { offset: 0x42ADA, size: 0x8, addend: 0x0, symName: __ZNSt12length_errorC2B8ne180100EPKc, symObjAddr: 0xBE28, symBinAddr: 0x10000CB68, symSize: 0x44 }
  - { offset: 0x42B12, size: 0x8, addend: 0x0, symName: __ZNSt3__19allocatorIdE8allocateB8ne180100Em, symObjAddr: 0xBE6C, symBinAddr: 0x10000CBAC, symSize: 0x54 }
  - { offset: 0x42B62, size: 0x8, addend: 0x0, symName: __ZNSt3__16vectorIdNS_9allocatorIdEEE21_ConstructTransactionC1B8ne180100ERS3_m, symObjAddr: 0xBEC0, symBinAddr: 0x10000CC00, symSize: 0x3C }
  - { offset: 0x42BAA, size: 0x8, addend: 0x0, symName: __ZNSt3__116allocator_traitsINS_9allocatorIdEEE9constructB8ne180100IdJRKdEvEEvRS2_PT_DpOT0_, symObjAddr: 0xBEFC, symBinAddr: 0x10000CC3C, symSize: 0x34 }
  - { offset: 0x42C01, size: 0x8, addend: 0x0, symName: __ZNSt3__16vectorIdNS_9allocatorIdEEE21_ConstructTransactionD1B8ne180100Ev, symObjAddr: 0xBF44, symBinAddr: 0x10000CC84, symSize: 0x2C }
  - { offset: 0x42C2B, size: 0x8, addend: 0x0, symName: __ZNSt3__16vectorIdNS_9allocatorIdEEE21_ConstructTransactionC2B8ne180100ERS3_m, symObjAddr: 0xBF70, symBinAddr: 0x10000CCB0, symSize: 0x44 }
  - { offset: 0x42C73, size: 0x8, addend: 0x0, symName: __ZNSt3__19allocatorIdE9constructB8ne180100IdJRKdEEEvPT_DpOT0_, symObjAddr: 0xBFB4, symBinAddr: 0x10000CCF4, symSize: 0x28 }
  - { offset: 0x42CC9, size: 0x8, addend: 0x0, symName: __ZNSt3__16vectorIdNS_9allocatorIdEEE21_ConstructTransactionD2B8ne180100Ev, symObjAddr: 0xBFDC, symBinAddr: 0x10000CD1C, symSize: 0x20 }
  - { offset: 0x42CF3, size: 0x8, addend: 0x0, symName: __ZNSt3__128__exception_guard_exceptionsINS_6vectorIdNS_9allocatorIdEEE16__destroy_vectorEED2B8ne180100Ev, symObjAddr: 0xBFFC, symBinAddr: 0x10000CD3C, symSize: 0x50 }
  - { offset: 0x42D1D, size: 0x8, addend: 0x0, symName: __ZNSt3__16vectorIdNS_9allocatorIdEEE16__destroy_vectorclB8ne180100Ev, symObjAddr: 0xC04C, symBinAddr: 0x10000CD8C, symSize: 0x88 }
  - { offset: 0x42D43, size: 0x8, addend: 0x0, symName: __ZNSt3__16vectorIdNS_9allocatorIdEEE7__clearB8ne180100Ev, symObjAddr: 0xC0D4, symBinAddr: 0x10000CE14, symSize: 0x28 }
  - { offset: 0x42D69, size: 0x8, addend: 0x0, symName: __ZNKSt3__16vectorIdNS_9allocatorIdEEE17__annotate_deleteB8ne180100Ev, symObjAddr: 0xC0FC, symBinAddr: 0x10000CE3C, symSize: 0x10 }
  - { offset: 0x42D8F, size: 0x8, addend: 0x0, symName: __ZNSt3__116allocator_traitsINS_9allocatorIdEEE10deallocateB8ne180100ERS2_Pdm, symObjAddr: 0xC10C, symBinAddr: 0x10000CE4C, symSize: 0x34 }
  - { offset: 0x42DD1, size: 0x8, addend: 0x0, symName: __ZNKSt3__16vectorIdNS_9allocatorIdEEE8capacityB8ne180100Ev, symObjAddr: 0xC140, symBinAddr: 0x10000CE80, symSize: 0x40 }
  - { offset: 0x42DF7, size: 0x8, addend: 0x0, symName: __ZNSt3__16vectorIdNS_9allocatorIdEEE22__base_destruct_at_endB8ne180100EPd, symObjAddr: 0xC180, symBinAddr: 0x10000CEC0, symSize: 0x88 }
  - { offset: 0x42E3B, size: 0x8, addend: 0x0, symName: __ZNSt3__116allocator_traitsINS_9allocatorIdEEE7destroyB8ne180100IdvEEvRS2_PT_, symObjAddr: 0xC208, symBinAddr: 0x10000CF48, symSize: 0x2C }
  - { offset: 0x42E78, size: 0x8, addend: 0x0, symName: __ZNSt3__19allocatorIdE7destroyB8ne180100EPd, symObjAddr: 0xC234, symBinAddr: 0x10000CF74, symSize: 0x14 }
  - { offset: 0x42EAC, size: 0x8, addend: 0x0, symName: __ZNSt3__19allocatorIdE10deallocateB8ne180100EPdm, symObjAddr: 0xC248, symBinAddr: 0x10000CF88, symSize: 0x40 }
  - { offset: 0x42EEE, size: 0x8, addend: 0x0, symName: __ZNKSt3__16vectorIdNS_9allocatorIdEEE9__end_capB8ne180100Ev, symObjAddr: 0xC288, symBinAddr: 0x10000CFC8, symSize: 0x28 }
  - { offset: 0x42F14, size: 0x8, addend: 0x0, symName: __ZNKSt3__117__compressed_pairIPdNS_9allocatorIdEEE5firstB8ne180100Ev, symObjAddr: 0xC2B0, symBinAddr: 0x10000CFF0, symSize: 0x24 }
  - { offset: 0x42F3A, size: 0x8, addend: 0x0, symName: __ZNKSt3__122__compressed_pair_elemIPdLi0ELb0EE5__getB8ne180100Ev, symObjAddr: 0xC2D4, symBinAddr: 0x10000D014, symSize: 0x14 }
  - { offset: 0x42F60, size: 0x8, addend: 0x0, symName: __ZNKSt3__110__function12__value_funcIFdRKNS_10shared_ptrI4NodeEES6_EEclB8ne180100ES6_S6_, symObjAddr: 0xC2E8, symBinAddr: 0x10000D028, symSize: 0x58 }
  - { offset: 0x42FA4, size: 0x8, addend: 0x0, symName: __ZNSt3__16vectorINS_10shared_ptrI4NodeEENS_9allocatorIS3_EEE9__end_capB8ne180100Ev, symObjAddr: 0xC340, symBinAddr: 0x10000D080, symSize: 0x28 }
  - { offset: 0x42FCA, size: 0x8, addend: 0x0, symName: __ZNSt3__16vectorINS_10shared_ptrI4NodeEENS_9allocatorIS3_EEE22__construct_one_at_endB8ne180100IJRKS3_EEEvDpOT_, symObjAddr: 0xC368, symBinAddr: 0x10000D0A8, symSize: 0x90 }
  - { offset: 0x43019, size: 0x8, addend: 0x0, symName: __ZNSt3__16vectorINS_10shared_ptrI4NodeEENS_9allocatorIS3_EEE21__push_back_slow_pathIRKS3_EEPS3_OT_, symObjAddr: 0xC3F8, symBinAddr: 0x10000D138, symSize: 0xE8 }
  - { offset: 0x43075, size: 0x8, addend: 0x0, symName: __ZNSt3__117__compressed_pairIPNS_10shared_ptrI4NodeEENS_9allocatorIS3_EEE5firstB8ne180100Ev, symObjAddr: 0xC4E0, symBinAddr: 0x10000D220, symSize: 0x24 }
  - { offset: 0x4309B, size: 0x8, addend: 0x0, symName: __ZNSt3__122__compressed_pair_elemIPNS_10shared_ptrI4NodeEELi0ELb0EE5__getB8ne180100Ev, symObjAddr: 0xC504, symBinAddr: 0x10000D244, symSize: 0x14 }
  - { offset: 0x430DD, size: 0x8, addend: 0x0, symName: __ZNSt3__16vectorINS_10shared_ptrI4NodeEENS_9allocatorIS3_EEE21_ConstructTransactionC1B8ne180100ERS6_m, symObjAddr: 0xC518, symBinAddr: 0x10000D258, symSize: 0x3C }
  - { offset: 0x43125, size: 0x8, addend: 0x0, symName: __ZNSt3__116allocator_traitsINS_9allocatorINS_10shared_ptrI4NodeEEEEE9constructB8ne180100IS4_JRKS4_EvEEvRS5_PT_DpOT0_, symObjAddr: 0xC554, symBinAddr: 0x10000D294, symSize: 0x34 }
  - { offset: 0x4317C, size: 0x8, addend: 0x0, symName: __ZNSt3__16vectorINS_10shared_ptrI4NodeEENS_9allocatorIS3_EEE7__allocB8ne180100Ev, symObjAddr: 0xC588, symBinAddr: 0x10000D2C8, symSize: 0x28 }
  - { offset: 0x431A2, size: 0x8, addend: 0x0, symName: __ZNSt3__16vectorINS_10shared_ptrI4NodeEENS_9allocatorIS3_EEE21_ConstructTransactionD1B8ne180100Ev, symObjAddr: 0xC5C4, symBinAddr: 0x10000D304, symSize: 0x2C }
  - { offset: 0x431CC, size: 0x8, addend: 0x0, symName: __ZNSt3__16vectorINS_10shared_ptrI4NodeEENS_9allocatorIS3_EEE21_ConstructTransactionC2B8ne180100ERS6_m, symObjAddr: 0xC5F0, symBinAddr: 0x10000D330, symSize: 0x44 }
  - { offset: 0x43214, size: 0x8, addend: 0x0, symName: __ZNSt3__19allocatorINS_10shared_ptrI4NodeEEE9constructB8ne180100IS3_JRKS3_EEEvPT_DpOT0_, symObjAddr: 0xC634, symBinAddr: 0x10000D374, symSize: 0x30 }
  - { offset: 0x4326A, size: 0x8, addend: 0x0, symName: __ZNSt3__117__compressed_pairIPNS_10shared_ptrI4NodeEENS_9allocatorIS3_EEE6secondB8ne180100Ev, symObjAddr: 0xC664, symBinAddr: 0x10000D3A4, symSize: 0x24 }
  - { offset: 0x43290, size: 0x8, addend: 0x0, symName: __ZNSt3__122__compressed_pair_elemINS_9allocatorINS_10shared_ptrI4NodeEEEELi1ELb1EE5__getB8ne180100Ev, symObjAddr: 0xC688, symBinAddr: 0x10000D3C8, symSize: 0x14 }
  - { offset: 0x432B6, size: 0x8, addend: 0x0, symName: __ZNSt3__16vectorINS_10shared_ptrI4NodeEENS_9allocatorIS3_EEE21_ConstructTransactionD2B8ne180100Ev, symObjAddr: 0xC69C, symBinAddr: 0x10000D3DC, symSize: 0x20 }
  - { offset: 0x432E0, size: 0x8, addend: 0x0, symName: __ZNKSt3__16vectorINS_10shared_ptrI4NodeEENS_9allocatorIS3_EEE11__recommendB8ne180100Em, symObjAddr: 0xC6BC, symBinAddr: 0x10000D3FC, symSize: 0xAC }
  - { offset: 0x43335, size: 0x8, addend: 0x0, symName: __ZNSt3__114__split_bufferINS_10shared_ptrI4NodeEERNS_9allocatorIS3_EEEC1EmmS6_, symObjAddr: 0xC768, symBinAddr: 0x10000D4A8, symSize: 0x44 }
  - { offset: 0x4338B, size: 0x8, addend: 0x0, symName: __ZNSt3__114__split_bufferINS_10shared_ptrI4NodeEERNS_9allocatorIS3_EEED1Ev, symObjAddr: 0xC8BC, symBinAddr: 0x10000D5FC, symSize: 0x2C }
  - { offset: 0x433B7, size: 0x8, addend: 0x0, symName: __ZNKSt3__16vectorINS_10shared_ptrI4NodeEENS_9allocatorIS3_EEE8max_sizeEv, symObjAddr: 0xC8E8, symBinAddr: 0x10000D628, symSize: 0x60 }
  - { offset: 0x433DF, size: 0x8, addend: 0x0, symName: __ZNKSt3__16vectorINS_10shared_ptrI4NodeEENS_9allocatorIS3_EEE20__throw_length_errorB8ne180100Ev, symObjAddr: 0xC948, symBinAddr: 0x10000D688, symSize: 0x1C }
  - { offset: 0x43405, size: 0x8, addend: 0x0, symName: __ZNKSt3__16vectorINS_10shared_ptrI4NodeEENS_9allocatorIS3_EEE8capacityB8ne180100Ev, symObjAddr: 0xC964, symBinAddr: 0x10000D6A4, symSize: 0x40 }
  - { offset: 0x43436, size: 0x8, addend: 0x0, symName: __ZNSt3__116allocator_traitsINS_9allocatorINS_10shared_ptrI4NodeEEEEE8max_sizeB8ne180100IS5_vEEmRKS5_, symObjAddr: 0xC9D0, symBinAddr: 0x10000D710, symSize: 0x24 }
  - { offset: 0x43464, size: 0x8, addend: 0x0, symName: __ZNKSt3__16vectorINS_10shared_ptrI4NodeEENS_9allocatorIS3_EEE7__allocB8ne180100Ev, symObjAddr: 0xC9F4, symBinAddr: 0x10000D734, symSize: 0x28 }
  - { offset: 0x4348A, size: 0x8, addend: 0x0, symName: __ZNKSt3__19allocatorINS_10shared_ptrI4NodeEEE8max_sizeB8ne180100Ev, symObjAddr: 0xCA1C, symBinAddr: 0x10000D75C, symSize: 0x14 }
  - { offset: 0x434B0, size: 0x8, addend: 0x0, symName: __ZNKSt3__117__compressed_pairIPNS_10shared_ptrI4NodeEENS_9allocatorIS3_EEE6secondB8ne180100Ev, symObjAddr: 0xCA30, symBinAddr: 0x10000D770, symSize: 0x24 }
  - { offset: 0x434D6, size: 0x8, addend: 0x0, symName: __ZNKSt3__122__compressed_pair_elemINS_9allocatorINS_10shared_ptrI4NodeEEEELi1ELb1EE5__getB8ne180100Ev, symObjAddr: 0xCA54, symBinAddr: 0x10000D794, symSize: 0x14 }
  - { offset: 0x434FC, size: 0x8, addend: 0x0, symName: __ZNKSt3__16vectorINS_10shared_ptrI4NodeEENS_9allocatorIS3_EEE9__end_capB8ne180100Ev, symObjAddr: 0xCA68, symBinAddr: 0x10000D7A8, symSize: 0x28 }
  - { offset: 0x43522, size: 0x8, addend: 0x0, symName: __ZNKSt3__117__compressed_pairIPNS_10shared_ptrI4NodeEENS_9allocatorIS3_EEE5firstB8ne180100Ev, symObjAddr: 0xCA90, symBinAddr: 0x10000D7D0, symSize: 0x24 }
  - { offset: 0x43548, size: 0x8, addend: 0x0, symName: __ZNKSt3__122__compressed_pair_elemIPNS_10shared_ptrI4NodeEELi0ELb0EE5__getB8ne180100Ev, symObjAddr: 0xCAB4, symBinAddr: 0x10000D7F4, symSize: 0x14 }
  - { offset: 0x4356E, size: 0x8, addend: 0x0, symName: __ZNSt3__114__split_bufferINS_10shared_ptrI4NodeEERNS_9allocatorIS3_EEEC2EmmS6_, symObjAddr: 0xCB1C, symBinAddr: 0x10000D85C, symSize: 0xCC }
  - { offset: 0x435E2, size: 0x8, addend: 0x0, symName: __ZNSt3__117__compressed_pairIPNS_10shared_ptrI4NodeEERNS_9allocatorIS3_EEEC1B8ne180100IDnS7_EEOT_OT0_, symObjAddr: 0xCBE8, symBinAddr: 0x10000D928, symSize: 0x3C }
  - { offset: 0x4363A, size: 0x8, addend: 0x0, symName: __ZNSt3__114__split_bufferINS_10shared_ptrI4NodeEERNS_9allocatorIS3_EEE7__allocB8ne180100Ev, symObjAddr: 0xCC64, symBinAddr: 0x10000D9A4, symSize: 0x28 }
  - { offset: 0x43660, size: 0x8, addend: 0x0, symName: __ZNSt3__114__split_bufferINS_10shared_ptrI4NodeEERNS_9allocatorIS3_EEE9__end_capB8ne180100Ev, symObjAddr: 0xCC8C, symBinAddr: 0x10000D9CC, symSize: 0x28 }
  - { offset: 0x43686, size: 0x8, addend: 0x0, symName: __ZNSt3__117__compressed_pairIPNS_10shared_ptrI4NodeEERNS_9allocatorIS3_EEEC2B8ne180100IDnS7_EEOT_OT0_, symObjAddr: 0xCCB4, symBinAddr: 0x10000D9F4, symSize: 0x48 }
  - { offset: 0x436DE, size: 0x8, addend: 0x0, symName: __ZNSt3__122__compressed_pair_elemIPNS_10shared_ptrI4NodeEELi0ELb0EEC2B8ne180100IDnvEEOT_, symObjAddr: 0xCCFC, symBinAddr: 0x10000DA3C, symSize: 0x1C }
  - { offset: 0x43720, size: 0x8, addend: 0x0, symName: __ZNSt3__122__compressed_pair_elemIRNS_9allocatorINS_10shared_ptrI4NodeEEEELi1ELb0EEC2B8ne180100IS6_vEEOT_, symObjAddr: 0xCD18, symBinAddr: 0x10000DA58, symSize: 0x20 }
  - { offset: 0x43762, size: 0x8, addend: 0x0, symName: __ZNSt3__19allocatorINS_10shared_ptrI4NodeEEE8allocateB8ne180100Em, symObjAddr: 0xCD38, symBinAddr: 0x10000DA78, symSize: 0x54 }
  - { offset: 0x43796, size: 0x8, addend: 0x0, symName: __ZNSt3__117__compressed_pairIPNS_10shared_ptrI4NodeEERNS_9allocatorIS3_EEE6secondB8ne180100Ev, symObjAddr: 0xCD8C, symBinAddr: 0x10000DACC, symSize: 0x28 }
  - { offset: 0x437BC, size: 0x8, addend: 0x0, symName: __ZNSt3__122__compressed_pair_elemIRNS_9allocatorINS_10shared_ptrI4NodeEEEELi1ELb0EE5__getB8ne180100Ev, symObjAddr: 0xCDB4, symBinAddr: 0x10000DAF4, symSize: 0x18 }
  - { offset: 0x437E2, size: 0x8, addend: 0x0, symName: __ZNSt3__117__compressed_pairIPNS_10shared_ptrI4NodeEERNS_9allocatorIS3_EEE5firstB8ne180100Ev, symObjAddr: 0xCDCC, symBinAddr: 0x10000DB0C, symSize: 0x24 }
  - { offset: 0x43808, size: 0x8, addend: 0x0, symName: __ZNKSt3__16vectorINS_10shared_ptrI4NodeEENS_9allocatorIS3_EEE17__annotate_deleteB8ne180100Ev, symObjAddr: 0xCDF0, symBinAddr: 0x10000DB30, symSize: 0x10 }
  - { offset: 0x4382E, size: 0x8, addend: 0x0, symName: __ZNSt3__116reverse_iteratorIPNS_10shared_ptrI4NodeEEEC1B8ne180100ES4_, symObjAddr: 0xCF2C, symBinAddr: 0x10000DC6C, symSize: 0x34 }
  - { offset: 0x43866, size: 0x8, addend: 0x0, symName: __ZNKSt3__116reverse_iteratorIPNS_10shared_ptrI4NodeEEE4baseB8ne180100Ev, symObjAddr: 0xCF60, symBinAddr: 0x10000DCA0, symSize: 0x18 }
  - { offset: 0x4388C, size: 0x8, addend: 0x0, symName: __ZNKSt3__16vectorINS_10shared_ptrI4NodeEENS_9allocatorIS3_EEE14__annotate_newB8ne180100Em, symObjAddr: 0xCFB4, symBinAddr: 0x10000DCF4, symSize: 0x14 }
  - { offset: 0x438C1, size: 0x8, addend: 0x0, symName: __ZNSt3__129_AllocatorDestroyRangeReverseINS_9allocatorINS_10shared_ptrI4NodeEEEENS_16reverse_iteratorIPS4_EEEC1B8ne180100ERS5_RS8_SB_, symObjAddr: 0xD014, symBinAddr: 0x10000DD54, symSize: 0x44 }
  - { offset: 0x43918, size: 0x8, addend: 0x0, symName: __ZNSt3__116allocator_traitsINS_9allocatorINS_10shared_ptrI4NodeEEEEE9constructB8ne180100IS4_JS4_EvEEvRS5_PT_DpOT0_, symObjAddr: 0xD09C, symBinAddr: 0x10000DDDC, symSize: 0x34 }
  - { offset: 0x4396F, size: 0x8, addend: 0x0, symName: __ZNKSt3__116reverse_iteratorIPNS_10shared_ptrI4NodeEEEdeB8ne180100Ev, symObjAddr: 0xD0F4, symBinAddr: 0x10000DE34, symSize: 0x28 }
  - { offset: 0x439A3, size: 0x8, addend: 0x0, symName: __ZNSt3__116reverse_iteratorIPNS_10shared_ptrI4NodeEEEppB8ne180100Ev, symObjAddr: 0xD11C, symBinAddr: 0x10000DE5C, symSize: 0x20 }
  - { offset: 0x439C9, size: 0x8, addend: 0x0, symName: __ZNSt3__128__exception_guard_exceptionsINS_29_AllocatorDestroyRangeReverseINS_9allocatorINS_10shared_ptrI4NodeEEEENS_16reverse_iteratorIPS5_EEEEE10__completeB8ne180100Ev, symObjAddr: 0xD13C, symBinAddr: 0x10000DE7C, symSize: 0x1C }
  - { offset: 0x439EF, size: 0x8, addend: 0x0, symName: __ZNSt3__128__exception_guard_exceptionsINS_29_AllocatorDestroyRangeReverseINS_9allocatorINS_10shared_ptrI4NodeEEEENS_16reverse_iteratorIPS5_EEEEED1B8ne180100Ev, symObjAddr: 0xD158, symBinAddr: 0x10000DE98, symSize: 0x2C }
  - { offset: 0x43A19, size: 0x8, addend: 0x0, symName: __ZNSt3__128__exception_guard_exceptionsINS_29_AllocatorDestroyRangeReverseINS_9allocatorINS_10shared_ptrI4NodeEEEENS_16reverse_iteratorIPS5_EEEEEC1B8ne180100ESA_, symObjAddr: 0xD184, symBinAddr: 0x10000DEC4, symSize: 0x34 }
  - { offset: 0x43A52, size: 0x8, addend: 0x0, symName: __ZNSt3__128__exception_guard_exceptionsINS_29_AllocatorDestroyRangeReverseINS_9allocatorINS_10shared_ptrI4NodeEEEENS_16reverse_iteratorIPS5_EEEEEC2B8ne180100ESA_, symObjAddr: 0xD1B8, symBinAddr: 0x10000DEF8, symSize: 0x30 }
  - { offset: 0x43A8B, size: 0x8, addend: 0x0, symName: __ZNSt3__129_AllocatorDestroyRangeReverseINS_9allocatorINS_10shared_ptrI4NodeEEEENS_16reverse_iteratorIPS4_EEEC2B8ne180100ERS5_RS8_SB_, symObjAddr: 0xD1E8, symBinAddr: 0x10000DF28, symSize: 0x38 }
  - { offset: 0x43AE2, size: 0x8, addend: 0x0, symName: __ZNSt3__19allocatorINS_10shared_ptrI4NodeEEE9constructB8ne180100IS3_JS3_EEEvPT_DpOT0_, symObjAddr: 0xD220, symBinAddr: 0x10000DF60, symSize: 0x30 }
  - { offset: 0x43B3E, size: 0x8, addend: 0x0, symName: __ZNSt3__119__to_address_helperINS_16reverse_iteratorIPNS_10shared_ptrI4NodeEEEEvE6__callB8ne180100ERKS6_, symObjAddr: 0xD250, symBinAddr: 0x10000DF90, symSize: 0x38 }
  - { offset: 0x43B61, size: 0x8, addend: 0x0, symName: __ZNKSt3__116reverse_iteratorIPNS_10shared_ptrI4NodeEEEptB8ne180100Ev, symObjAddr: 0xD288, symBinAddr: 0x10000DFC8, symSize: 0x24 }
  - { offset: 0x43B87, size: 0x8, addend: 0x0, symName: __ZNSt3__128__exception_guard_exceptionsINS_29_AllocatorDestroyRangeReverseINS_9allocatorINS_10shared_ptrI4NodeEEEENS_16reverse_iteratorIPS5_EEEEED2B8ne180100Ev, symObjAddr: 0xD2AC, symBinAddr: 0x10000DFEC, symSize: 0x50 }
  - { offset: 0x43BB1, size: 0x8, addend: 0x0, symName: __ZNKSt3__129_AllocatorDestroyRangeReverseINS_9allocatorINS_10shared_ptrI4NodeEEEENS_16reverse_iteratorIPS4_EEEclB8ne180100Ev, symObjAddr: 0xD2FC, symBinAddr: 0x10000E03C, symSize: 0xB0 }
  - { offset: 0x43BD8, size: 0x8, addend: 0x0, symName: __ZNSt3__116reverse_iteratorINS0_IPNS_10shared_ptrI4NodeEEEEEC1B8ne180100ES5_, symObjAddr: 0xD41C, symBinAddr: 0x10000E15C, symSize: 0x3C }
  - { offset: 0x43C10, size: 0x8, addend: 0x0, symName: __ZNSt3__116allocator_traitsINS_9allocatorINS_10shared_ptrI4NodeEEEEE7destroyB8ne180100IS4_vEEvRS5_PT_, symObjAddr: 0xD4B4, symBinAddr: 0x10000E1F4, symSize: 0x2C }
  - { offset: 0x43C4D, size: 0x8, addend: 0x0, symName: __ZNSt3__116reverse_iteratorINS0_IPNS_10shared_ptrI4NodeEEEEEppB8ne180100Ev, symObjAddr: 0xD504, symBinAddr: 0x10000E244, symSize: 0x30 }
  - { offset: 0x43C73, size: 0x8, addend: 0x0, symName: __ZNKSt3__116reverse_iteratorINS0_IPNS_10shared_ptrI4NodeEEEEE4baseB8ne180100Ev, symObjAddr: 0xD534, symBinAddr: 0x10000E274, symSize: 0x24 }
  - { offset: 0x43C99, size: 0x8, addend: 0x0, symName: __ZNSt3__19allocatorINS_10shared_ptrI4NodeEEE7destroyB8ne180100EPS3_, symObjAddr: 0xD558, symBinAddr: 0x10000E298, symSize: 0x28 }
  - { offset: 0x43CD3, size: 0x8, addend: 0x0, symName: __ZNSt3__119__to_address_helperINS_16reverse_iteratorINS1_IPNS_10shared_ptrI4NodeEEEEEEvE6__callB8ne180100ERKS7_, symObjAddr: 0xD580, symBinAddr: 0x10000E2C0, symSize: 0x38 }
  - { offset: 0x43CF6, size: 0x8, addend: 0x0, symName: __ZNKSt3__116reverse_iteratorINS0_IPNS_10shared_ptrI4NodeEEEEEptB8ne180100Ev, symObjAddr: 0xD5B8, symBinAddr: 0x10000E2F8, symSize: 0x24 }
  - { offset: 0x43D1C, size: 0x8, addend: 0x0, symName: __ZNKSt3__116reverse_iteratorINS0_IPNS_10shared_ptrI4NodeEEEEEdeB8ne180100Ev, symObjAddr: 0xD5DC, symBinAddr: 0x10000E31C, symSize: 0x34 }
  - { offset: 0x43D50, size: 0x8, addend: 0x0, symName: __ZNSt3__116reverse_iteratorIPNS_10shared_ptrI4NodeEEEmmB8ne180100Ev, symObjAddr: 0xD610, symBinAddr: 0x10000E350, symSize: 0x20 }
  - { offset: 0x43D76, size: 0x8, addend: 0x0, symName: __ZNSt3__116reverse_iteratorINS0_IPNS_10shared_ptrI4NodeEEEEEC2B8ne180100ES5_, symObjAddr: 0xD630, symBinAddr: 0x10000E370, symSize: 0x2C }
  - { offset: 0x43DAE, size: 0x8, addend: 0x0, symName: __ZNSt3__116reverse_iteratorIPNS_10shared_ptrI4NodeEEEC2B8ne180100ES4_, symObjAddr: 0xD65C, symBinAddr: 0x10000E39C, symSize: 0x28 }
  - { offset: 0x43DE6, size: 0x8, addend: 0x0, symName: __ZNSt3__114__split_bufferINS_10shared_ptrI4NodeEERNS_9allocatorIS3_EEED2Ev, symObjAddr: 0xD684, symBinAddr: 0x10000E3C4, symSize: 0x84 }
  - { offset: 0x43E12, size: 0x8, addend: 0x0, symName: __ZNSt3__114__split_bufferINS_10shared_ptrI4NodeEERNS_9allocatorIS3_EEE5clearB8ne180100Ev, symObjAddr: 0xD708, symBinAddr: 0x10000E448, symSize: 0x28 }
  - { offset: 0x43E38, size: 0x8, addend: 0x0, symName: __ZNSt3__116allocator_traitsINS_9allocatorINS_10shared_ptrI4NodeEEEEE10deallocateB8ne180100ERS5_PS4_m, symObjAddr: 0xD730, symBinAddr: 0x10000E470, symSize: 0x34 }
  - { offset: 0x43E7A, size: 0x8, addend: 0x0, symName: __ZNKSt3__114__split_bufferINS_10shared_ptrI4NodeEERNS_9allocatorIS3_EEE8capacityB8ne180100Ev, symObjAddr: 0xD764, symBinAddr: 0x10000E4A4, symSize: 0x40 }
  - { offset: 0x43EA0, size: 0x8, addend: 0x0, symName: __ZNSt3__114__split_bufferINS_10shared_ptrI4NodeEERNS_9allocatorIS3_EEE17__destruct_at_endB8ne180100EPS3_, symObjAddr: 0xD7A4, symBinAddr: 0x10000E4E4, symSize: 0x2C }
  - { offset: 0x43ED4, size: 0x8, addend: 0x0, symName: __ZNSt3__114__split_bufferINS_10shared_ptrI4NodeEERNS_9allocatorIS3_EEE17__destruct_at_endB8ne180100EPS3_NS_17integral_constantIbLb0EEE, symObjAddr: 0xD7D0, symBinAddr: 0x10000E510, symSize: 0x7C }
  - { offset: 0x43F14, size: 0x8, addend: 0x0, symName: __ZNSt3__19allocatorINS_10shared_ptrI4NodeEEE10deallocateB8ne180100EPS3_m, symObjAddr: 0xD84C, symBinAddr: 0x10000E58C, symSize: 0x40 }
  - { offset: 0x43F56, size: 0x8, addend: 0x0, symName: __ZNKSt3__114__split_bufferINS_10shared_ptrI4NodeEERNS_9allocatorIS3_EEE9__end_capB8ne180100Ev, symObjAddr: 0xD88C, symBinAddr: 0x10000E5CC, symSize: 0x28 }
  - { offset: 0x43F7C, size: 0x8, addend: 0x0, symName: __ZNKSt3__117__compressed_pairIPNS_10shared_ptrI4NodeEERNS_9allocatorIS3_EEE5firstB8ne180100Ev, symObjAddr: 0xD8B4, symBinAddr: 0x10000E5F4, symSize: 0x24 }
  - { offset: 0x43FA2, size: 0x8, addend: 0x0, symName: __ZNSt3__111__wrap_iterIPNS_10shared_ptrI4NodeEEEmmB8ne180100Ev, symObjAddr: 0xDAC4, symBinAddr: 0x10000E804, symSize: 0x20 }
  - { offset: 0x43FC8, size: 0x8, addend: 0x0, symName: __ZNSt3__16vectorINS_10shared_ptrI4NodeEENS_9allocatorIS3_EEE17__destruct_at_endB8ne180100EPS3_, symObjAddr: 0xDDC8, symBinAddr: 0x10000EB08, symSize: 0x4C }
  - { offset: 0x4400C, size: 0x8, addend: 0x0, symName: __ZNSt3__16vectorINS_10shared_ptrI4NodeEENS_9allocatorIS3_EEE22__base_destruct_at_endB8ne180100EPS3_, symObjAddr: 0xDE14, symBinAddr: 0x10000EB54, symSize: 0x88 }
  - { offset: 0x44050, size: 0x8, addend: 0x0, symName: __ZNKSt3__16vectorINS_10shared_ptrI4NodeEENS_9allocatorIS3_EEE17__annotate_shrinkB8ne180100Em, symObjAddr: 0xDE9C, symBinAddr: 0x10000EBDC, symSize: 0x14 }
  - { offset: 0x44085, size: 0x8, addend: 0x0, symName: __ZNSt3__112__hash_tableImNS_4hashImEENS_8equal_toImEENS_9allocatorImEEE4findImEENS_15__hash_iteratorIPNS_11__hash_nodeImPvEEEERKT_, symObjAddr: 0xDEDC, symBinAddr: 0x10000EC1C, symSize: 0x194 }
  - { offset: 0x4410E, size: 0x8, addend: 0x0, symName: __ZNSt3__121__hash_const_iteratorIPNS_11__hash_nodeImPvEEEC1B8ne180100ERKNS_15__hash_iteratorIS4_EE, symObjAddr: 0xE070, symBinAddr: 0x10000EDB0, symSize: 0x34 }
  - { offset: 0x44147, size: 0x8, addend: 0x0, symName: __ZNSt3__112__hash_tableImNS_4hashImEENS_8equal_toImEENS_9allocatorImEEE13hash_functionB8ne180100Ev, symObjAddr: 0xE0A4, symBinAddr: 0x10000EDE4, symSize: 0x28 }
  - { offset: 0x4416D, size: 0x8, addend: 0x0, symName: __ZNKSt3__14hashImEclB8ne180100Em, symObjAddr: 0xE0CC, symBinAddr: 0x10000EE0C, symSize: 0x18 }
  - { offset: 0x441A2, size: 0x8, addend: 0x0, symName: __ZNKSt3__112__hash_tableImNS_4hashImEENS_8equal_toImEENS_9allocatorImEEE12bucket_countB8ne180100Ev, symObjAddr: 0xE0E4, symBinAddr: 0x10000EE24, symSize: 0x28 }
  - { offset: 0x441C8, size: 0x8, addend: 0x0, symName: __ZNKSt3__110unique_ptrIA_PNS_16__hash_node_baseIPNS_11__hash_nodeImPvEEEENS_25__bucket_list_deallocatorINS_9allocatorIS7_EEEEEixB8ne180100Em, symObjAddr: 0xE19C, symBinAddr: 0x10000EEDC, symSize: 0x34 }
  - { offset: 0x441FD, size: 0x8, addend: 0x0, symName: __ZNKSt3__116__hash_node_baseIPNS_11__hash_nodeImPvEEE6__hashB8ne180100Ev, symObjAddr: 0xE1D0, symBinAddr: 0x10000EF10, symSize: 0x18 }
  - { offset: 0x44223, size: 0x8, addend: 0x0, symName: __ZNSt3__112__hash_tableImNS_4hashImEENS_8equal_toImEENS_9allocatorImEEE6key_eqB8ne180100Ev, symObjAddr: 0xE1E8, symBinAddr: 0x10000EF28, symSize: 0x28 }
  - { offset: 0x44249, size: 0x8, addend: 0x0, symName: __ZNKSt3__18equal_toImEclB8ne180100ERKmS3_, symObjAddr: 0xE210, symBinAddr: 0x10000EF50, symSize: 0x30 }
  - { offset: 0x4428D, size: 0x8, addend: 0x0, symName: __ZNSt3__116__hash_node_baseIPNS_11__hash_nodeImPvEEE8__upcastB8ne180100Ev, symObjAddr: 0xE240, symBinAddr: 0x10000EF80, symSize: 0x24 }
  - { offset: 0x442B3, size: 0x8, addend: 0x0, symName: __ZNSt3__111__hash_nodeImPvE11__get_valueB8ne180100Ev, symObjAddr: 0xE264, symBinAddr: 0x10000EFA4, symSize: 0x18 }
  - { offset: 0x442D9, size: 0x8, addend: 0x0, symName: __ZNSt3__115__hash_iteratorIPNS_11__hash_nodeImPvEEEC1B8ne180100EPNS_16__hash_node_baseIS4_EE, symObjAddr: 0xE27C, symBinAddr: 0x10000EFBC, symSize: 0x34 }
  - { offset: 0x44312, size: 0x8, addend: 0x0, symName: __ZNSt3__112__hash_tableImNS_4hashImEENS_8equal_toImEENS_9allocatorImEEE3endEv, symObjAddr: 0xE2B0, symBinAddr: 0x10000EFF0, symSize: 0x2C }
  - { offset: 0x44338, size: 0x8, addend: 0x0, symName: __ZNSt3__117__compressed_pairImNS_4hashImEEE6secondB8ne180100Ev, symObjAddr: 0xE2DC, symBinAddr: 0x10000F01C, symSize: 0x24 }
  - { offset: 0x4435E, size: 0x8, addend: 0x0, symName: __ZNSt3__122__compressed_pair_elemINS_4hashImEELi1ELb1EE5__getB8ne180100Ev, symObjAddr: 0xE300, symBinAddr: 0x10000F040, symSize: 0x14 }
  - { offset: 0x44384, size: 0x8, addend: 0x0, symName: __ZNKSt3__110unique_ptrIA_PNS_16__hash_node_baseIPNS_11__hash_nodeImPvEEEENS_25__bucket_list_deallocatorINS_9allocatorIS7_EEEEE11get_deleterB8ne180100Ev, symObjAddr: 0xE314, symBinAddr: 0x10000F054, symSize: 0x24 }
  - { offset: 0x443AA, size: 0x8, addend: 0x0, symName: __ZNKSt3__125__bucket_list_deallocatorINS_9allocatorIPNS_16__hash_node_baseIPNS_11__hash_nodeImPvEEEEEEE4sizeB8ne180100Ev, symObjAddr: 0xE338, symBinAddr: 0x10000F078, symSize: 0x28 }
  - { offset: 0x443D0, size: 0x8, addend: 0x0, symName: __ZNKSt3__117__compressed_pairIPPNS_16__hash_node_baseIPNS_11__hash_nodeImPvEEEENS_25__bucket_list_deallocatorINS_9allocatorIS7_EEEEE6secondB8ne180100Ev, symObjAddr: 0xE360, symBinAddr: 0x10000F0A0, symSize: 0x28 }
  - { offset: 0x443F6, size: 0x8, addend: 0x0, symName: __ZNKSt3__122__compressed_pair_elemINS_25__bucket_list_deallocatorINS_9allocatorIPNS_16__hash_node_baseIPNS_11__hash_nodeImPvEEEEEEEELi1ELb0EE5__getB8ne180100Ev, symObjAddr: 0xE388, symBinAddr: 0x10000F0C8, symSize: 0x14 }
  - { offset: 0x4441C, size: 0x8, addend: 0x0, symName: __ZNKSt3__117__compressed_pairImNS_9allocatorIPNS_16__hash_node_baseIPNS_11__hash_nodeImPvEEEEEEE5firstB8ne180100Ev, symObjAddr: 0xE39C, symBinAddr: 0x10000F0DC, symSize: 0x24 }
  - { offset: 0x44442, size: 0x8, addend: 0x0, symName: __ZNKSt3__122__compressed_pair_elemImLi0ELb0EE5__getB8ne180100Ev, symObjAddr: 0xE3C0, symBinAddr: 0x10000F100, symSize: 0x14 }
  - { offset: 0x44468, size: 0x8, addend: 0x0, symName: __ZNKSt3__117__compressed_pairIPPNS_16__hash_node_baseIPNS_11__hash_nodeImPvEEEENS_25__bucket_list_deallocatorINS_9allocatorIS7_EEEEE5firstB8ne180100Ev, symObjAddr: 0xE3D4, symBinAddr: 0x10000F114, symSize: 0x24 }
  - { offset: 0x4448E, size: 0x8, addend: 0x0, symName: __ZNKSt3__122__compressed_pair_elemIPPNS_16__hash_node_baseIPNS_11__hash_nodeImPvEEEELi0ELb0EE5__getB8ne180100Ev, symObjAddr: 0xE3F8, symBinAddr: 0x10000F138, symSize: 0x14 }
  - { offset: 0x444B4, size: 0x8, addend: 0x0, symName: __ZNSt3__117__compressed_pairIfNS_8equal_toImEEE6secondB8ne180100Ev, symObjAddr: 0xE40C, symBinAddr: 0x10000F14C, symSize: 0x24 }
  - { offset: 0x444DA, size: 0x8, addend: 0x0, symName: __ZNSt3__122__compressed_pair_elemINS_8equal_toImEELi1ELb1EE5__getB8ne180100Ev, symObjAddr: 0xE430, symBinAddr: 0x10000F170, symSize: 0x14 }
  - { offset: 0x44500, size: 0x8, addend: 0x0, symName: __ZNSt3__114pointer_traitsIPNS_16__hash_node_baseIPNS_11__hash_nodeImPvEEEEE10pointer_toB8ne180100ERS6_, symObjAddr: 0xE444, symBinAddr: 0x10000F184, symSize: 0x14 }
  - { offset: 0x44523, size: 0x8, addend: 0x0, symName: __ZNSt3__115__hash_iteratorIPNS_11__hash_nodeImPvEEEC2B8ne180100EPNS_16__hash_node_baseIS4_EE, symObjAddr: 0xE458, symBinAddr: 0x10000F198, symSize: 0x20 }
  - { offset: 0x4455C, size: 0x8, addend: 0x0, symName: __ZNSt3__121__hash_const_iteratorIPNS_11__hash_nodeImPvEEEC2B8ne180100ERKNS_15__hash_iteratorIS4_EE, symObjAddr: 0xE478, symBinAddr: 0x10000F1B8, symSize: 0x24 }
  - { offset: 0x44595, size: 0x8, addend: 0x0, symName: __ZNSt3__112__hash_tableImNS_4hashImEENS_8equal_toImEENS_9allocatorImEEE15__insert_uniqueB8ne180100ERKm, symObjAddr: 0xE49C, symBinAddr: 0x10000F1DC, symSize: 0x50 }
  - { offset: 0x445CA, size: 0x8, addend: 0x0, symName: __ZNSt3__14pairINS_21__hash_const_iteratorIPNS_11__hash_nodeImPvEEEEbEC1B8ne180100INS_15__hash_iteratorIS5_EEbTnNS_9enable_ifIXclsr10_CheckArgsE17__enable_implicitIT_T0_EEEiE4typeELi0EEEONS0_ISC_SD_EE, symObjAddr: 0xE4EC, symBinAddr: 0x10000F22C, symSize: 0x34 }
  - { offset: 0x4461A, size: 0x8, addend: 0x0, symName: __ZNSt3__112__hash_tableImNS_4hashImEENS_8equal_toImEENS_9allocatorImEEE25__emplace_unique_key_argsImJRKmEEENS_4pairINS_15__hash_iteratorIPNS_11__hash_nodeImPvEEEEbEERKT_DpOT0_, symObjAddr: 0xE520, symBinAddr: 0x10000F260, symSize: 0x470 }
  - { offset: 0x446F8, size: 0x8, addend: 0x0, symName: __ZNSt3__122__hash_key_value_typesImE9__get_keyB8ne180100ERKm, symObjAddr: 0xE990, symBinAddr: 0x10000F6D0, symSize: 0x14 }
  - { offset: 0x4471B, size: 0x8, addend: 0x0, symName: __ZNSt3__112__hash_tableImNS_4hashImEENS_8equal_toImEENS_9allocatorImEEE21__construct_node_hashIRKmJEEENS_10unique_ptrINS_11__hash_nodeImPvEENS_22__hash_node_destructorINS5_ISE_EEEEEEmOT_DpOT0_, symObjAddr: 0xE9A4, symBinAddr: 0x10000F6E4, symSize: 0x13C }
  - { offset: 0x4478C, size: 0x8, addend: 0x0, symName: __ZNSt3__112__hash_tableImNS_4hashImEENS_8equal_toImEENS_9allocatorImEEE4sizeB8ne180100Ev, symObjAddr: 0xEAE0, symBinAddr: 0x10000F820, symSize: 0x28 }
  - { offset: 0x447B2, size: 0x8, addend: 0x0, symName: __ZNSt3__112__hash_tableImNS_4hashImEENS_8equal_toImEENS_9allocatorImEEE15max_load_factorB8ne180100Ev, symObjAddr: 0xEB08, symBinAddr: 0x10000F848, symSize: 0x28 }
  - { offset: 0x447D8, size: 0x8, addend: 0x0, symName: __ZNSt3__112__hash_tableImNS_4hashImEENS_8equal_toImEENS_9allocatorImEEE15__rehash_uniqueB8ne180100Em, symObjAddr: 0xEB30, symBinAddr: 0x10000F870, symSize: 0x2C }
  - { offset: 0x4480D, size: 0x8, addend: 0x0, symName: __ZNSt3__117__compressed_pairINS_16__hash_node_baseIPNS_11__hash_nodeImPvEEEENS_9allocatorIS4_EEE5firstB8ne180100Ev, symObjAddr: 0xEBC0, symBinAddr: 0x10000F900, symSize: 0x24 }
  - { offset: 0x44833, size: 0x8, addend: 0x0, symName: __ZNSt3__116__hash_node_baseIPNS_11__hash_nodeImPvEEE5__ptrB8ne180100Ev, symObjAddr: 0xEBE4, symBinAddr: 0x10000F924, symSize: 0x24 }
  - { offset: 0x44859, size: 0x8, addend: 0x0, symName: __ZNKSt3__110unique_ptrINS_11__hash_nodeImPvEENS_22__hash_node_destructorINS_9allocatorIS3_EEEEEptB8ne180100Ev, symObjAddr: 0xEC08, symBinAddr: 0x10000F948, symSize: 0x28 }
  - { offset: 0x4487F, size: 0x8, addend: 0x0, symName: __ZNKSt3__110unique_ptrINS_11__hash_nodeImPvEENS_22__hash_node_destructorINS_9allocatorIS3_EEEEE3getB8ne180100Ev, symObjAddr: 0xEC30, symBinAddr: 0x10000F970, symSize: 0x28 }
  - { offset: 0x448A5, size: 0x8, addend: 0x0, symName: __ZNSt3__110unique_ptrINS_11__hash_nodeImPvEENS_22__hash_node_destructorINS_9allocatorIS3_EEEEE7releaseB8ne180100Ev, symObjAddr: 0xEC58, symBinAddr: 0x10000F998, symSize: 0x44 }
  - { offset: 0x448DA, size: 0x8, addend: 0x0, symName: __ZNSt3__110unique_ptrINS_11__hash_nodeImPvEENS_22__hash_node_destructorINS_9allocatorIS3_EEEEED1B8ne180100Ev, symObjAddr: 0xEC9C, symBinAddr: 0x10000F9DC, symSize: 0x2C }
  - { offset: 0x4490A, size: 0x8, addend: 0x0, symName: __ZNSt3__14pairINS_15__hash_iteratorIPNS_11__hash_nodeImPvEEEEbEC1B8ne180100IS6_RbTnNS_9enable_ifIXclsr10_CheckArgsE17__enable_implicitIT_T0_EEEiE4typeELi0EEEOSB_OSC_, symObjAddr: 0xECC8, symBinAddr: 0x10000FA08, symSize: 0x3C }
  - { offset: 0x44968, size: 0x8, addend: 0x0, symName: __ZNSt3__112__hash_tableImNS_4hashImEENS_8equal_toImEENS_9allocatorImEEE12__node_allocB8ne180100Ev, symObjAddr: 0xED04, symBinAddr: 0x10000FA44, symSize: 0x28 }
  - { offset: 0x4498E, size: 0x8, addend: 0x0, symName: __ZNSt3__116allocator_traitsINS_9allocatorINS_11__hash_nodeImPvEEEEE8allocateB8ne180100ERS5_m, symObjAddr: 0xED2C, symBinAddr: 0x10000FA6C, symSize: 0x2C }
  - { offset: 0x449C1, size: 0x8, addend: 0x0, symName: __ZNSt3__122__hash_node_destructorINS_9allocatorINS_11__hash_nodeImPvEEEEEC1B8ne180100ERS5_b, symObjAddr: 0xED58, symBinAddr: 0x10000FA98, symSize: 0x40 }
  - { offset: 0x44A0F, size: 0x8, addend: 0x0, symName: __ZNSt3__110unique_ptrINS_11__hash_nodeImPvEENS_22__hash_node_destructorINS_9allocatorIS3_EEEEEC1B8ne180100ILb1EvEEPS3_NS_16__dependent_typeINS_27__unique_ptr_deleter_sfinaeIS7_EEXT_EE20__good_rval_ref_typeE, symObjAddr: 0xED98, symBinAddr: 0x10000FAD8, symSize: 0x3C }
  - { offset: 0x44A60, size: 0x8, addend: 0x0, symName: __ZNKSt3__110unique_ptrINS_11__hash_nodeImPvEENS_22__hash_node_destructorINS_9allocatorIS3_EEEEEdeB8ne180100Ev, symObjAddr: 0xEE1C, symBinAddr: 0x10000FB5C, symSize: 0x28 }
  - { offset: 0x44A86, size: 0x8, addend: 0x0, symName: __ZNSt3__116allocator_traitsINS_9allocatorINS_11__hash_nodeImPvEEEEE9constructB8ne180100ImJRKmEvEEvRS5_PT_DpOT0_, symObjAddr: 0xEE44, symBinAddr: 0x10000FB84, symSize: 0x34 }
  - { offset: 0x44ADD, size: 0x8, addend: 0x0, symName: __ZNSt3__122__hash_key_value_typesImE9__get_ptrB8ne180100ERm, symObjAddr: 0xEE78, symBinAddr: 0x10000FBB8, symSize: 0x14 }
  - { offset: 0x44B00, size: 0x8, addend: 0x0, symName: __ZNSt3__110unique_ptrINS_11__hash_nodeImPvEENS_22__hash_node_destructorINS_9allocatorIS3_EEEEE11get_deleterB8ne180100Ev, symObjAddr: 0xEE8C, symBinAddr: 0x10000FBCC, symSize: 0x24 }
  - { offset: 0x44B26, size: 0x8, addend: 0x0, symName: __ZNSt3__117__compressed_pairINS_16__hash_node_baseIPNS_11__hash_nodeImPvEEEENS_9allocatorIS4_EEE6secondB8ne180100Ev, symObjAddr: 0xEEB0, symBinAddr: 0x10000FBF0, symSize: 0x24 }
  - { offset: 0x44B4C, size: 0x8, addend: 0x0, symName: __ZNSt3__122__compressed_pair_elemINS_9allocatorINS_11__hash_nodeImPvEEEELi1ELb1EE5__getB8ne180100Ev, symObjAddr: 0xEED4, symBinAddr: 0x10000FC14, symSize: 0x14 }
  - { offset: 0x44B72, size: 0x8, addend: 0x0, symName: __ZNSt3__19allocatorINS_11__hash_nodeImPvEEE8allocateB8ne180100Em, symObjAddr: 0xEEE8, symBinAddr: 0x10000FC28, symSize: 0x58 }
  - { offset: 0x44BB1, size: 0x8, addend: 0x0, symName: __ZNSt3__116allocator_traitsINS_9allocatorINS_11__hash_nodeImPvEEEEE8max_sizeB8ne180100IS5_vEEmRKS5_, symObjAddr: 0xEF40, symBinAddr: 0x10000FC80, symSize: 0x24 }
  - { offset: 0x44BDF, size: 0x8, addend: 0x0, symName: __ZNKSt3__19allocatorINS_11__hash_nodeImPvEEE8max_sizeB8ne180100Ev, symObjAddr: 0xEF64, symBinAddr: 0x10000FCA4, symSize: 0x18 }
  - { offset: 0x44C05, size: 0x8, addend: 0x0, symName: __ZNSt3__122__hash_node_destructorINS_9allocatorINS_11__hash_nodeImPvEEEEEC2B8ne180100ERS5_b, symObjAddr: 0xEF7C, symBinAddr: 0x10000FCBC, symSize: 0x30 }
  - { offset: 0x44C4D, size: 0x8, addend: 0x0, symName: __ZNSt3__110unique_ptrINS_11__hash_nodeImPvEENS_22__hash_node_destructorINS_9allocatorIS3_EEEEEC2B8ne180100ILb1EvEEPS3_NS_16__dependent_typeINS_27__unique_ptr_deleter_sfinaeIS7_EEXT_EE20__good_rval_ref_typeE, symObjAddr: 0xEFAC, symBinAddr: 0x10000FCEC, symSize: 0x48 }
  - { offset: 0x44C9E, size: 0x8, addend: 0x0, symName: __ZNSt3__117__compressed_pairIPNS_11__hash_nodeImPvEENS_22__hash_node_destructorINS_9allocatorIS3_EEEEEC1B8ne180100IRS4_S8_EEOT_OT0_, symObjAddr: 0xEFF4, symBinAddr: 0x10000FD34, symSize: 0x3C }
  - { offset: 0x44CF6, size: 0x8, addend: 0x0, symName: __ZNSt3__117__compressed_pairIPNS_11__hash_nodeImPvEENS_22__hash_node_destructorINS_9allocatorIS3_EEEEEC2B8ne180100IRS4_S8_EEOT_OT0_, symObjAddr: 0xF030, symBinAddr: 0x10000FD70, symSize: 0x48 }
  - { offset: 0x44D4E, size: 0x8, addend: 0x0, symName: __ZNSt3__122__compressed_pair_elemIPNS_11__hash_nodeImPvEELi0ELb0EEC2B8ne180100IRS4_vEEOT_, symObjAddr: 0xF078, symBinAddr: 0x10000FDB8, symSize: 0x24 }
  - { offset: 0x44D90, size: 0x8, addend: 0x0, symName: __ZNSt3__122__compressed_pair_elemINS_22__hash_node_destructorINS_9allocatorINS_11__hash_nodeImPvEEEEEELi1ELb0EEC2B8ne180100IS7_vEEOT_, symObjAddr: 0xF09C, symBinAddr: 0x10000FDDC, symSize: 0x24 }
  - { offset: 0x44DD2, size: 0x8, addend: 0x0, symName: __ZNSt3__111__hash_nodeImPvEC1B8ne180100EPNS_16__hash_node_baseIPS2_EEm, symObjAddr: 0xF0C0, symBinAddr: 0x10000FE00, symSize: 0x3C }
  - { offset: 0x44E18, size: 0x8, addend: 0x0, symName: __ZNSt3__111__hash_nodeImPvEC2B8ne180100EPNS_16__hash_node_baseIPS2_EEm, symObjAddr: 0xF0FC, symBinAddr: 0x10000FE3C, symSize: 0x40 }
  - { offset: 0x44E5E, size: 0x8, addend: 0x0, symName: __ZNSt3__116__hash_node_baseIPNS_11__hash_nodeImPvEEEC2B8ne180100EPS5_, symObjAddr: 0xF13C, symBinAddr: 0x10000FE7C, symSize: 0x20 }
  - { offset: 0x44E96, size: 0x8, addend: 0x0, symName: __ZNKSt3__117__compressed_pairIPNS_11__hash_nodeImPvEENS_22__hash_node_destructorINS_9allocatorIS3_EEEEE5firstB8ne180100Ev, symObjAddr: 0xF15C, symBinAddr: 0x10000FE9C, symSize: 0x24 }
  - { offset: 0x44EBC, size: 0x8, addend: 0x0, symName: __ZNKSt3__122__compressed_pair_elemIPNS_11__hash_nodeImPvEELi0ELb0EE5__getB8ne180100Ev, symObjAddr: 0xF180, symBinAddr: 0x10000FEC0, symSize: 0x14 }
  - { offset: 0x44EE2, size: 0x8, addend: 0x0, symName: __ZNSt3__19allocatorINS_11__hash_nodeImPvEEE9constructB8ne180100ImJRKmEEEvPT_DpOT0_, symObjAddr: 0xF194, symBinAddr: 0x10000FED4, symSize: 0x28 }
  - { offset: 0x44F38, size: 0x8, addend: 0x0, symName: __ZNSt3__117__compressed_pairIPNS_11__hash_nodeImPvEENS_22__hash_node_destructorINS_9allocatorIS3_EEEEE6secondB8ne180100Ev, symObjAddr: 0xF1BC, symBinAddr: 0x10000FEFC, symSize: 0x28 }
  - { offset: 0x44F5E, size: 0x8, addend: 0x0, symName: __ZNSt3__122__compressed_pair_elemINS_22__hash_node_destructorINS_9allocatorINS_11__hash_nodeImPvEEEEEELi1ELb0EE5__getB8ne180100Ev, symObjAddr: 0xF1E4, symBinAddr: 0x10000FF24, symSize: 0x14 }
  - { offset: 0x44F84, size: 0x8, addend: 0x0, symName: __ZNSt3__117__compressed_pairImNS_4hashImEEE5firstB8ne180100Ev, symObjAddr: 0xF1F8, symBinAddr: 0x10000FF38, symSize: 0x24 }
  - { offset: 0x44FAA, size: 0x8, addend: 0x0, symName: __ZNSt3__122__compressed_pair_elemImLi0ELb0EE5__getB8ne180100Ev, symObjAddr: 0xF21C, symBinAddr: 0x10000FF5C, symSize: 0x14 }
  - { offset: 0x44FD0, size: 0x8, addend: 0x0, symName: __ZNSt3__117__compressed_pairIfNS_8equal_toImEEE5firstB8ne180100Ev, symObjAddr: 0xF230, symBinAddr: 0x10000FF70, symSize: 0x24 }
  - { offset: 0x44FF6, size: 0x8, addend: 0x0, symName: __ZNSt3__122__compressed_pair_elemIfLi0ELb0EE5__getB8ne180100Ev, symObjAddr: 0xF254, symBinAddr: 0x10000FF94, symSize: 0x14 }
  - { offset: 0x4501C, size: 0x8, addend: 0x0, symName: __ZNSt3__112__hash_tableImNS_4hashImEENS_8equal_toImEENS_9allocatorImEEE8__rehashILb1EEEvm, symObjAddr: 0xF268, symBinAddr: 0x10000FFA8, symSize: 0x194 }
  - { offset: 0x4506A, size: 0x8, addend: 0x0, symName: __ZNSt3__112__hash_tableImNS_4hashImEENS_8equal_toImEENS_9allocatorImEEE11__do_rehashILb1EEEvm, symObjAddr: 0xF3FC, symBinAddr: 0x10001013C, symSize: 0x260 }
  - { offset: 0x4514F, size: 0x8, addend: 0x0, symName: __ZNSt3__110unique_ptrIA_PNS_16__hash_node_baseIPNS_11__hash_nodeImPvEEEENS_25__bucket_list_deallocatorINS_9allocatorIS7_EEEEE11get_deleterB8ne180100Ev, symObjAddr: 0xF6C4, symBinAddr: 0x100010404, symSize: 0x24 }
  - { offset: 0x45175, size: 0x8, addend: 0x0, symName: __ZNSt3__125__bucket_list_deallocatorINS_9allocatorIPNS_16__hash_node_baseIPNS_11__hash_nodeImPvEEEEEEE7__allocB8ne180100Ev, symObjAddr: 0xF6E8, symBinAddr: 0x100010428, symSize: 0x24 }
  - { offset: 0x4519B, size: 0x8, addend: 0x0, symName: __ZNSt3__110unique_ptrIA_PNS_16__hash_node_baseIPNS_11__hash_nodeImPvEEEENS_25__bucket_list_deallocatorINS_9allocatorIS7_EEEEE5resetB8ne180100IPS7_TnNS_9enable_ifIXsr28_CheckArrayPointerConversionIT_EE5valueEiE4typeELi0EEEvSH_, symObjAddr: 0xF70C, symBinAddr: 0x10001044C, symSize: 0x70 }
  - { offset: 0x451EE, size: 0x8, addend: 0x0, symName: __ZNSt3__116allocator_traitsINS_9allocatorIPNS_16__hash_node_baseIPNS_11__hash_nodeImPvEEEEEEE8allocateB8ne180100ERS9_m, symObjAddr: 0xF77C, symBinAddr: 0x1000104BC, symSize: 0x2C }
  - { offset: 0x45221, size: 0x8, addend: 0x0, symName: __ZNSt3__125__bucket_list_deallocatorINS_9allocatorIPNS_16__hash_node_baseIPNS_11__hash_nodeImPvEEEEEEE4sizeB8ne180100Ev, symObjAddr: 0xF7A8, symBinAddr: 0x1000104E8, symSize: 0x24 }
  - { offset: 0x45247, size: 0x8, addend: 0x0, symName: __ZNSt3__117__compressed_pairIPPNS_16__hash_node_baseIPNS_11__hash_nodeImPvEEEENS_25__bucket_list_deallocatorINS_9allocatorIS7_EEEEE6secondB8ne180100Ev, symObjAddr: 0xF7CC, symBinAddr: 0x10001050C, symSize: 0x28 }
  - { offset: 0x4526D, size: 0x8, addend: 0x0, symName: __ZNSt3__122__compressed_pair_elemINS_25__bucket_list_deallocatorINS_9allocatorIPNS_16__hash_node_baseIPNS_11__hash_nodeImPvEEEEEEEELi1ELb0EE5__getB8ne180100Ev, symObjAddr: 0xF7F4, symBinAddr: 0x100010534, symSize: 0x14 }
  - { offset: 0x45293, size: 0x8, addend: 0x0, symName: __ZNSt3__117__compressed_pairImNS_9allocatorIPNS_16__hash_node_baseIPNS_11__hash_nodeImPvEEEEEEE6secondB8ne180100Ev, symObjAddr: 0xF808, symBinAddr: 0x100010548, symSize: 0x24 }
  - { offset: 0x452B9, size: 0x8, addend: 0x0, symName: __ZNSt3__122__compressed_pair_elemINS_9allocatorIPNS_16__hash_node_baseIPNS_11__hash_nodeImPvEEEEEELi1ELb1EE5__getB8ne180100Ev, symObjAddr: 0xF82C, symBinAddr: 0x10001056C, symSize: 0x14 }
  - { offset: 0x452DF, size: 0x8, addend: 0x0, symName: __ZNSt3__117__compressed_pairIPPNS_16__hash_node_baseIPNS_11__hash_nodeImPvEEEENS_25__bucket_list_deallocatorINS_9allocatorIS7_EEEEE5firstB8ne180100Ev, symObjAddr: 0xF840, symBinAddr: 0x100010580, symSize: 0x24 }
  - { offset: 0x45305, size: 0x8, addend: 0x0, symName: __ZNSt3__125__bucket_list_deallocatorINS_9allocatorIPNS_16__hash_node_baseIPNS_11__hash_nodeImPvEEEEEEEclB8ne180100EPS8_, symObjAddr: 0xF864, symBinAddr: 0x1000105A4, symSize: 0x58 }
  - { offset: 0x4533A, size: 0x8, addend: 0x0, symName: __ZNSt3__122__compressed_pair_elemIPPNS_16__hash_node_baseIPNS_11__hash_nodeImPvEEEELi0ELb0EE5__getB8ne180100Ev, symObjAddr: 0xF8BC, symBinAddr: 0x1000105FC, symSize: 0x14 }
  - { offset: 0x45360, size: 0x8, addend: 0x0, symName: __ZNSt3__116allocator_traitsINS_9allocatorIPNS_16__hash_node_baseIPNS_11__hash_nodeImPvEEEEEEE10deallocateB8ne180100ERS9_PS8_m, symObjAddr: 0xF8D0, symBinAddr: 0x100010610, symSize: 0x34 }
  - { offset: 0x453A2, size: 0x8, addend: 0x0, symName: __ZNSt3__19allocatorIPNS_16__hash_node_baseIPNS_11__hash_nodeImPvEEEEE10deallocateB8ne180100EPS7_m, symObjAddr: 0xF904, symBinAddr: 0x100010644, symSize: 0x40 }
  - { offset: 0x453E4, size: 0x8, addend: 0x0, symName: __ZNSt3__19allocatorIPNS_16__hash_node_baseIPNS_11__hash_nodeImPvEEEEE8allocateB8ne180100Em, symObjAddr: 0xF944, symBinAddr: 0x100010684, symSize: 0x54 }
  - { offset: 0x45423, size: 0x8, addend: 0x0, symName: __ZNSt3__116allocator_traitsINS_9allocatorIPNS_16__hash_node_baseIPNS_11__hash_nodeImPvEEEEEEE8max_sizeB8ne180100IS9_vEEmRKS9_, symObjAddr: 0xF998, symBinAddr: 0x1000106D8, symSize: 0x24 }
  - { offset: 0x45451, size: 0x8, addend: 0x0, symName: __ZNKSt3__19allocatorIPNS_16__hash_node_baseIPNS_11__hash_nodeImPvEEEEE8max_sizeB8ne180100Ev, symObjAddr: 0xF9BC, symBinAddr: 0x1000106FC, symSize: 0x14 }
  - { offset: 0x45477, size: 0x8, addend: 0x0, symName: __ZNSt3__117__compressed_pairImNS_9allocatorIPNS_16__hash_node_baseIPNS_11__hash_nodeImPvEEEEEEE5firstB8ne180100Ev, symObjAddr: 0xF9D0, symBinAddr: 0x100010710, symSize: 0x24 }
  - { offset: 0x4549D, size: 0x8, addend: 0x0, symName: __ZNSt3__122__compressed_pair_elemINS_16__hash_node_baseIPNS_11__hash_nodeImPvEEEELi0ELb0EE5__getB8ne180100Ev, symObjAddr: 0xFA10, symBinAddr: 0x100010750, symSize: 0x14 }
  - { offset: 0x454C3, size: 0x8, addend: 0x0, symName: __ZNSt3__117__compressed_pairIPNS_11__hash_nodeImPvEENS_22__hash_node_destructorINS_9allocatorIS3_EEEEE5firstB8ne180100Ev, symObjAddr: 0xFA24, symBinAddr: 0x100010764, symSize: 0x24 }
  - { offset: 0x454E9, size: 0x8, addend: 0x0, symName: __ZNSt3__122__compressed_pair_elemIPNS_11__hash_nodeImPvEELi0ELb0EE5__getB8ne180100Ev, symObjAddr: 0xFA48, symBinAddr: 0x100010788, symSize: 0x14 }
  - { offset: 0x4550F, size: 0x8, addend: 0x0, symName: __ZNSt3__110unique_ptrINS_11__hash_nodeImPvEENS_22__hash_node_destructorINS_9allocatorIS3_EEEEED2B8ne180100Ev, symObjAddr: 0xFA5C, symBinAddr: 0x10001079C, symSize: 0x30 }
  - { offset: 0x45539, size: 0x8, addend: 0x0, symName: __ZNSt3__110unique_ptrINS_11__hash_nodeImPvEENS_22__hash_node_destructorINS_9allocatorIS3_EEEEE5resetB8ne180100EPS3_, symObjAddr: 0xFA8C, symBinAddr: 0x1000107CC, symSize: 0x70 }
  - { offset: 0x4557D, size: 0x8, addend: 0x0, symName: __ZNSt3__122__hash_node_destructorINS_9allocatorINS_11__hash_nodeImPvEEEEEclB8ne180100EPS4_, symObjAddr: 0xFAFC, symBinAddr: 0x10001083C, symSize: 0x94 }
  - { offset: 0x455B2, size: 0x8, addend: 0x0, symName: __ZNSt3__116allocator_traitsINS_9allocatorINS_11__hash_nodeImPvEEEEE7destroyB8ne180100ImvvEEvRS5_PT_, symObjAddr: 0xFB90, symBinAddr: 0x1000108D0, symSize: 0x28 }
  - { offset: 0x455ED, size: 0x8, addend: 0x0, symName: __ZNSt3__116allocator_traitsINS_9allocatorINS_11__hash_nodeImPvEEEEE10deallocateB8ne180100ERS5_PS4_m, symObjAddr: 0xFBDC, symBinAddr: 0x10001091C, symSize: 0x34 }
  - { offset: 0x4562F, size: 0x8, addend: 0x0, symName: __ZNSt3__111__hash_nodeImPvED1B8ne180100Ev, symObjAddr: 0xFC20, symBinAddr: 0x100010960, symSize: 0x2C }
  - { offset: 0x45659, size: 0x8, addend: 0x0, symName: __ZNSt3__111__hash_nodeImPvED2B8ne180100Ev, symObjAddr: 0xFC4C, symBinAddr: 0x10001098C, symSize: 0x14 }
  - { offset: 0x45683, size: 0x8, addend: 0x0, symName: __ZNSt3__19allocatorINS_11__hash_nodeImPvEEE10deallocateB8ne180100EPS3_m, symObjAddr: 0xFC60, symBinAddr: 0x1000109A0, symSize: 0x44 }
  - { offset: 0x456C5, size: 0x8, addend: 0x0, symName: __ZNSt3__14pairINS_15__hash_iteratorIPNS_11__hash_nodeImPvEEEEbEC2B8ne180100IS6_RbTnNS_9enable_ifIXclsr10_CheckArgsE17__enable_implicitIT_T0_EEEiE4typeELi0EEEOSB_OSC_, symObjAddr: 0xFCA4, symBinAddr: 0x1000109E4, symSize: 0x38 }
  - { offset: 0x45723, size: 0x8, addend: 0x0, symName: __ZNSt3__14pairINS_21__hash_const_iteratorIPNS_11__hash_nodeImPvEEEEbEC2B8ne180100INS_15__hash_iteratorIS5_EEbTnNS_9enable_ifIXclsr10_CheckArgsE17__enable_implicitIT_T0_EEEiE4typeELi0EEEONS0_ISC_SD_EE, symObjAddr: 0xFCDC, symBinAddr: 0x100010A1C, symSize: 0x44 }
  - { offset: 0x45773, size: 0x8, addend: 0x0, symName: __ZNSt3__110shared_ptrI4NodeEC2B8ne180100EOS2_, symObjAddr: 0xFD20, symBinAddr: 0x100010A60, symSize: 0x40 }
  - { offset: 0x457AC, size: 0x8, addend: 0x0, symName: __ZNKSt3__16vectorINS0_I4EdgeNS_9allocatorIS1_EEEENS2_IS4_EEE2atEm, symObjAddr: 0xFD60, symBinAddr: 0x100010AA0, symSize: 0x64 }
  - { offset: 0x457E3, size: 0x8, addend: 0x0, symName: __ZNKSt3__16vectorINS0_I4EdgeNS_9allocatorIS1_EEEENS2_IS4_EEE20__throw_out_of_rangeB8ne180100Ev, symObjAddr: 0xFDC4, symBinAddr: 0x100010B04, symSize: 0x1C }
  - { offset: 0x45809, size: 0x8, addend: 0x0, symName: __ZNSt12out_of_rangeC1B8ne180100EPKc, symObjAddr: 0xFE44, symBinAddr: 0x100010B84, symSize: 0x34 }
  - { offset: 0x45841, size: 0x8, addend: 0x0, symName: __ZNSt12out_of_rangeC2B8ne180100EPKc, symObjAddr: 0xFE78, symBinAddr: 0x100010BB8, symSize: 0x44 }
  - { offset: 0x45879, size: 0x8, addend: 0x0, symName: __ZNKSt3__16vectorI4EdgeNS_9allocatorIS1_EEE11__make_iterB8ne180100EPKS1_, symObjAddr: 0xFEBC, symBinAddr: 0x100010BFC, symSize: 0x30 }
  - { offset: 0x458AE, size: 0x8, addend: 0x0, symName: __ZNSt3__111__wrap_iterIPK4EdgeEC1B8ne180100ES3_, symObjAddr: 0xFEEC, symBinAddr: 0x100010C2C, symSize: 0x34 }
  - { offset: 0x458E6, size: 0x8, addend: 0x0, symName: __ZNSt3__111__wrap_iterIPK4EdgeEC2B8ne180100ES3_, symObjAddr: 0xFF20, symBinAddr: 0x100010C60, symSize: 0x20 }
  - { offset: 0x4591E, size: 0x8, addend: 0x0, symName: __ZNKSt3__111__wrap_iterIPK4EdgeE4baseB8ne180100Ev, symObjAddr: 0xFF84, symBinAddr: 0x100010CC4, symSize: 0x18 }
  - { offset: 0x45944, size: 0x8, addend: 0x0, symName: __ZNSt3__16vectorIdNS_9allocatorIdEEEC2ERKS3_, symObjAddr: 0xFFB0, symBinAddr: 0x100010CF0, symSize: 0x94 }
  - { offset: 0x4597F, size: 0x8, addend: 0x0, symName: __ZNSt3__116allocator_traitsINS_9allocatorIdEEE37select_on_container_copy_constructionB8ne180100IS2_vvEES2_RKS2_, symObjAddr: 0x10044, symBinAddr: 0x100010D84, symSize: 0x10 }
  - { offset: 0x459AE, size: 0x8, addend: 0x0, symName: __ZNSt3__16vectorIdNS_9allocatorIdEEE16__init_with_sizeB8ne180100IPdS5_EEvT_T0_m, symObjAddr: 0x10054, symBinAddr: 0x100010D94, symSize: 0xB4 }
  - { offset: 0x45A22, size: 0x8, addend: 0x0, symName: __ZNSt3__16vectorIdNS_9allocatorIdEEE18__construct_at_endIPdS5_EEvT_T0_m, symObjAddr: 0x10108, symBinAddr: 0x100010E48, symSize: 0x8C }
  - { offset: 0x45AB9, size: 0x8, addend: 0x0, symName: __ZNSt3__14pairIPdS1_EC1B8ne180100IS1_S1_TnNS_9enable_ifIXclsr10_CheckArgsE17__enable_implicitIT_T0_EEEiE4typeELi0EEEOS5_OS6_, symObjAddr: 0x10344, symBinAddr: 0x100011084, symSize: 0x3C }
  - { offset: 0x45B17, size: 0x8, addend: 0x0, symName: __ZNSt3__14pairIPdS1_EC2B8ne180100IS1_S1_TnNS_9enable_ifIXclsr10_CheckArgsE17__enable_implicitIT_T0_EEEiE4typeELi0EEEOS5_OS6_, symObjAddr: 0x10380, symBinAddr: 0x1000110C0, symSize: 0x34 }
  - { offset: 0x45B80, size: 0x8, addend: 0x0, symName: __ZNKSt3__114__copy_trivialclB8ne180100IddTnNS_9enable_ifIXsr38__can_lower_copy_assignment_to_memmoveIT_T0_EE5valueEiE4typeELi0EEENS_4pairIPS3_PS4_EES8_S8_S9_, symObjAddr: 0x10530, symBinAddr: 0x100011270, symSize: 0x48 }
  - { offset: 0x45BE8, size: 0x8, addend: 0x0, symName: __ZNSt3__14pairIPdS1_EC1B8ne180100IRS1_S1_TnNS_9enable_ifIXclsr10_CheckArgsE17__enable_implicitIT_T0_EEEiE4typeELi0EEEOS6_OS7_, symObjAddr: 0x106BC, symBinAddr: 0x1000113FC, symSize: 0x3C }
  - { offset: 0x45C46, size: 0x8, addend: 0x0, symName: __ZNSt3__14pairIPdS1_EC2B8ne180100IRS1_S1_TnNS_9enable_ifIXclsr10_CheckArgsE17__enable_implicitIT_T0_EEEiE4typeELi0EEEOS6_OS7_, symObjAddr: 0x106F8, symBinAddr: 0x100011438, symSize: 0x34 }
  - { offset: 0x45CA4, size: 0x8, addend: 0x0, symName: __ZNSt3__118__unwrap_iter_implIPdLb1EE8__unwrapB8ne180100ES1_, symObjAddr: 0x1072C, symBinAddr: 0x10001146C, symSize: 0x24 }
  - { offset: 0x45CC7, size: 0x8, addend: 0x0, symName: __ZNSt3__118__unwrap_iter_implIPdLb1EE8__rewrapB8ne180100ES1_S1_, symObjAddr: 0x10750, symBinAddr: 0x100011490, symSize: 0x50 }
  - { offset: 0x45CF8, size: 0x8, addend: 0x0, symName: __ZNSt3__120__shared_ptr_emplaceI4NodeNS_9allocatorIS1_EEEC1B8ne180100IJRdS6_RmRNS_6vectorIdNS2_IdEEEES6_RNS_10shared_ptrIS1_EEES3_TnNS_9enable_ifIXntsr7is_sameINT0_10value_typeENS_19__for_overwrite_tagEEE5valueEiE4typeELi0EEES3_DpOT_, symObjAddr: 0x10860, symBinAddr: 0x1000115A0, symSize: 0x5C }
  - { offset: 0x45DBE, size: 0x8, addend: 0x0, symName: __ZNSt3__120__shared_ptr_emplaceI4NodeNS_9allocatorIS1_EEEC2B8ne180100IJRdS6_RmRNS_6vectorIdNS2_IdEEEES6_RNS_10shared_ptrIS1_EEES3_TnNS_9enable_ifIXntsr7is_sameINT0_10value_typeENS_19__for_overwrite_tagEEE5valueEiE4typeELi0EEES3_DpOT_, symObjAddr: 0x108BC, symBinAddr: 0x1000115FC, symSize: 0xE4 }
  - { offset: 0x45EA5, size: 0x8, addend: 0x0, symName: __ZNSt3__116allocator_traitsINS_9allocatorI4NodeEEE9constructB8ne180100IS2_JRdS6_RmRNS_6vectorIdNS1_IdEEEES6_RNS_10shared_ptrIS2_EEEvEEvRS3_PT_DpOT0_, symObjAddr: 0x109A0, symBinAddr: 0x1000116E0, symSize: 0x5C }
  - { offset: 0x45F60, size: 0x8, addend: 0x0, symName: __ZNSt3__19allocatorI4NodeE9constructB8ne180100IS1_JRdS4_RmRNS_6vectorIdNS0_IdEEEES4_RNS_10shared_ptrIS1_EEEEEvPT_DpOT0_, symObjAddr: 0x109FC, symBinAddr: 0x10001173C, symSize: 0xEC }
  - { offset: 0x46015, size: 0x8, addend: 0x0, symName: __ZNSt3__111__wrap_iterIPK4EdgeEppB8ne180100Ev, symObjAddr: 0x10AE8, symBinAddr: 0x100011828, symSize: 0x20 }
  - { offset: 0x4603B, size: 0x8, addend: 0x0, symName: __ZNSt3__113unordered_setImNS_4hashImEENS_8equal_toImEENS_9allocatorImEEED2B8ne180100Ev, symObjAddr: 0x10B08, symBinAddr: 0x100011848, symSize: 0x2C }
  - { offset: 0x46065, size: 0x8, addend: 0x0, symName: __ZNSt3__112__hash_tableImNS_4hashImEENS_8equal_toImEENS_9allocatorImEEED1Ev, symObjAddr: 0x10B34, symBinAddr: 0x100011874, symSize: 0x2C }
  - { offset: 0x4608F, size: 0x8, addend: 0x0, symName: __ZNSt3__112__hash_tableImNS_4hashImEENS_8equal_toImEENS_9allocatorImEEED2Ev, symObjAddr: 0x10B60, symBinAddr: 0x1000118A0, symSize: 0x48 }
  - { offset: 0x460B9, size: 0x8, addend: 0x0, symName: __ZNSt3__112__hash_tableImNS_4hashImEENS_8equal_toImEENS_9allocatorImEEE17__deallocate_nodeEPNS_16__hash_node_baseIPNS_11__hash_nodeImPvEEEE, symObjAddr: 0x10BA8, symBinAddr: 0x1000118E8, symSize: 0xA0 }
  - { offset: 0x46121, size: 0x8, addend: 0x0, symName: __ZNSt3__110unique_ptrIA_PNS_16__hash_node_baseIPNS_11__hash_nodeImPvEEEENS_25__bucket_list_deallocatorINS_9allocatorIS7_EEEEED1B8ne180100Ev, symObjAddr: 0x10C48, symBinAddr: 0x100011988, symSize: 0x2C }
  - { offset: 0x4614B, size: 0x8, addend: 0x0, symName: __ZNSt3__110unique_ptrIA_PNS_16__hash_node_baseIPNS_11__hash_nodeImPvEEEENS_25__bucket_list_deallocatorINS_9allocatorIS7_EEEEED2B8ne180100Ev, symObjAddr: 0x10C74, symBinAddr: 0x1000119B4, symSize: 0x30 }
  - { offset: 0x46175, size: 0x8, addend: 0x0, symName: __ZNSt3__110unique_ptrIA_PNS_16__hash_node_baseIPNS_11__hash_nodeImPvEEEENS_25__bucket_list_deallocatorINS_9allocatorIS7_EEEEE5resetB8ne180100EDn, symObjAddr: 0x10CA4, symBinAddr: 0x1000119E4, symSize: 0x64 }
  - { offset: 0x461B6, size: 0x8, addend: 0x0, symName: __ZN14WEIGHTED_ASTARC2ERK9AdjMatrixRKNSt3__16vectorINS3_10shared_ptrI4NodeEENS3_9allocatorIS7_EEEERKNS4_IdNS8_IdEEEE, symObjAddr: 0x10D08, symBinAddr: 0x100011A48, symSize: 0x38 }
  - { offset: 0x4620D, size: 0x8, addend: 0x0, symName: __ZNSt3__120__shared_ptr_emplaceI4NodeNS_9allocatorIS1_EEEC1B8ne180100IJRdS6_RmRNS_6vectorIdNS2_IdEEEES6_RKSA_RNS_10shared_ptrIS1_EEES3_TnNS_9enable_ifIXntsr7is_sameINT0_10value_typeENS_19__for_overwrite_tagEEE5valueEiE4typeELi0EEES3_DpOT_, symObjAddr: 0x10E78, symBinAddr: 0x100011BB8, symSize: 0x64 }
  - { offset: 0x462E7, size: 0x8, addend: 0x0, symName: __ZNSt3__120__shared_ptr_emplaceI4NodeNS_9allocatorIS1_EEEC2B8ne180100IJRdS6_RmRNS_6vectorIdNS2_IdEEEES6_RKSA_RNS_10shared_ptrIS1_EEES3_TnNS_9enable_ifIXntsr7is_sameINT0_10value_typeENS_19__for_overwrite_tagEEE5valueEiE4typeELi0EEES3_DpOT_, symObjAddr: 0x10EDC, symBinAddr: 0x100011C1C, symSize: 0xF4 }
  - { offset: 0x463E2, size: 0x8, addend: 0x0, symName: __ZNSt3__116allocator_traitsINS_9allocatorI4NodeEEE9constructB8ne180100IS2_JRdS6_RmRNS_6vectorIdNS1_IdEEEES6_RKSA_RNS_10shared_ptrIS2_EEEvEEvRS3_PT_DpOT0_, symObjAddr: 0x10FD0, symBinAddr: 0x100011D10, symSize: 0x70 }
  - { offset: 0x464B1, size: 0x8, addend: 0x0, symName: __ZNSt3__19allocatorI4NodeE9constructB8ne180100IS1_JRdS4_RmRNS_6vectorIdNS0_IdEEEES4_RKS8_RNS_10shared_ptrIS1_EEEEEvPT_DpOT0_, symObjAddr: 0x11040, symBinAddr: 0x100011D80, symSize: 0x100 }
  - { offset: 0x4657A, size: 0x8, addend: 0x0, symName: __ZN4NodeC1EddmNSt3__16vectorIdNS0_9allocatorIdEEEEdRKS4_NS0_10shared_ptrIS_EE, symObjAddr: 0x11140, symBinAddr: 0x100011E80, symSize: 0x64 }
  - { offset: 0x46608, size: 0x8, addend: 0x0, symName: __ZN4NodeC2EddmNSt3__16vectorIdNS0_9allocatorIdEEEEdRKS4_NS0_10shared_ptrIS_EE, symObjAddr: 0x111A4, symBinAddr: 0x100011EE4, symSize: 0x1B4 }
  - { offset: 0x466C9, size: 0x8, addend: 0x0, symName: __ZNKSt3__111__wrap_iterIPNS_12basic_stringIcNS_11char_traitsIcEENS_9allocatorIcEEEEE4baseB8ne180100Ev, symObjAddr: 0x1139C, symBinAddr: 0x1000120DC, symSize: 0x18 }
  - { offset: 0x466EF, size: 0x8, addend: 0x0, symName: __ZN4EdgeC2EmmNSt3__16vectorIdNS0_9allocatorIdEEEE, symObjAddr: 0x113B4, symBinAddr: 0x1000120F4, symSize: 0x58 }
  - { offset: 0x46744, size: 0x8, addend: 0x0, symName: __ZNKSt16initializer_listImE5beginB8ne180100Ev, symObjAddr: 0x1143C, symBinAddr: 0x10001217C, symSize: 0x18 }
  - { offset: 0x4676A, size: 0x8, addend: 0x0, symName: __ZNKSt16initializer_listImE3endB8ne180100Ev, symObjAddr: 0x11454, symBinAddr: 0x100012194, symSize: 0x20 }
  - { offset: 0x46790, size: 0x8, addend: 0x0, symName: __ZN4EdgeD2Ev, symObjAddr: 0x11508, symBinAddr: 0x100012248, symSize: 0x30 }
  - { offset: 0x467BC, size: 0x8, addend: 0x0, symName: __ZNSt3__114basic_ifstreamIcNS_11char_traitsIcEEED2Ev, symObjAddr: 0x11538, symBinAddr: 0x100012278, symSize: 0x64 }
  - { offset: 0x467F6, size: 0x8, addend: 0x0, symName: __ZTv0_n24_NSt3__114basic_ifstreamIcNS_11char_traitsIcEEED1Ev, symObjAddr: 0x1159C, symBinAddr: 0x1000122DC, symSize: 0x28 }
  - { offset: 0x4680D, size: 0x8, addend: 0x0, symName: __ZNSt3__110shared_ptrI4NodeEC2B8ne180100EDn, symObjAddr: 0x115C4, symBinAddr: 0x100012304, symSize: 0x20 }
  - { offset: 0x46843, size: 0x8, addend: 0x0, symName: __ZNSt3__123__libcpp_numeric_limitsIlLb1EE3maxB8ne180100Ev, symObjAddr: 0x115E4, symBinAddr: 0x100012324, symSize: 0x8 }
  - { offset: 0x46857, size: 0x8, addend: 0x0, symName: __ZNSt3__113basic_fstreamIcNS_11char_traitsIcEEED2Ev, symObjAddr: 0x115EC, symBinAddr: 0x10001232C, symSize: 0x6C }
  - { offset: 0x46890, size: 0x8, addend: 0x0, symName: __ZThn16_NSt3__113basic_fstreamIcNS_11char_traitsIcEEED1Ev, symObjAddr: 0x11658, symBinAddr: 0x100012398, symSize: 0x1C }
  - { offset: 0x468A6, size: 0x8, addend: 0x0, symName: __ZTv0_n24_NSt3__113basic_fstreamIcNS_11char_traitsIcEEED1Ev, symObjAddr: 0x11674, symBinAddr: 0x1000123B4, symSize: 0x28 }
  - { offset: 0x468BC, size: 0x8, addend: 0x0, symName: __ZNSt3__113basic_fstreamIcNS_11char_traitsIcEEED0Ev, symObjAddr: 0x1169C, symBinAddr: 0x1000123DC, symSize: 0x30 }
  - { offset: 0x468E8, size: 0x8, addend: 0x0, symName: __ZThn16_NSt3__113basic_fstreamIcNS_11char_traitsIcEEED0Ev, symObjAddr: 0x116CC, symBinAddr: 0x10001240C, symSize: 0x18 }
  - { offset: 0x468FE, size: 0x8, addend: 0x0, symName: __ZTv0_n24_NSt3__113basic_fstreamIcNS_11char_traitsIcEEED0Ev, symObjAddr: 0x116E4, symBinAddr: 0x100012424, symSize: 0x20 }
  - { offset: 0x46914, size: 0x8, addend: 0x0, symName: __ZNSt3__14pairIiiEC1B8ne180100IRiS3_TnNS_9enable_ifIXclsr10_CheckArgsE17__enable_implicitIT_T0_EEEiE4typeELi0EEEOS5_OS6_, symObjAddr: 0x11704, symBinAddr: 0x100012444, symSize: 0x3C }
  - { offset: 0x46972, size: 0x8, addend: 0x0, symName: __ZNSt3__14pairIiiEC2B8ne180100IRiS3_TnNS_9enable_ifIXclsr10_CheckArgsE17__enable_implicitIT_T0_EEEiE4typeELi0EEEOS5_OS6_, symObjAddr: 0x11740, symBinAddr: 0x100012480, symSize: 0x34 }
  - { offset: 0x469D0, size: 0x8, addend: 0x0, symName: __ZNSt3__14pairIddEC2B8ne180100IiiTnNS_9enable_ifIXclsr10_CheckArgsE17__enable_implicitIT_T0_EEEiE4typeELi0EEEONS0_IS4_S5_EE, symObjAddr: 0x11774, symBinAddr: 0x1000124B4, symSize: 0x48 }
  - { offset: 0x46A20, size: 0x8, addend: 0x0, symName: __ZNSt3__14pairIddEC2B8ne180100IRdS3_TnNS_9enable_ifIXclsr10_CheckArgsE17__enable_implicitIT_T0_EEEiE4typeELi0EEEOS5_OS6_, symObjAddr: 0x117BC, symBinAddr: 0x1000124FC, symSize: 0x34 }
  - { offset: 0x46A7E, size: 0x8, addend: 0x0, symName: __ZNSt3__14pairIddEC2B8ne180100IdRdTnNS_9enable_ifIXclsr10_CheckArgsE17__enable_implicitIT_T0_EEEiE4typeELi0EEEOS5_OS6_, symObjAddr: 0x117F0, symBinAddr: 0x100012530, symSize: 0x34 }
  - { offset: 0x46ADC, size: 0x8, addend: 0x0, symName: __ZNSt3__14pairIddEC2B8ne180100IddTnNS_9enable_ifIXclsr10_CheckArgsE17__enable_implicitIT_T0_EEEiE4typeELi0EEEOS4_OS5_, symObjAddr: 0x11824, symBinAddr: 0x100012564, symSize: 0x34 }
  - { offset: 0x46B3A, size: 0x8, addend: 0x0, symName: __ZNSt3__14pairIddEC2B8ne180100IRddTnNS_9enable_ifIXclsr10_CheckArgsE17__enable_implicitIT_T0_EEEiE4typeELi0EEEOS5_OS6_, symObjAddr: 0x11858, symBinAddr: 0x100012598, symSize: 0x34 }
  - { offset: 0x46B98, size: 0x8, addend: 0x0, symName: __ZNKSt3__111__wrap_iterIP4EdgeE4baseB8ne180100Ev, symObjAddr: 0x118D0, symBinAddr: 0x100012610, symSize: 0x18 }
  - { offset: 0x46BBE, size: 0x8, addend: 0x0, symName: __ZNSt3__111__wrap_iterIP4EdgeEppB8ne180100Ev, symObjAddr: 0x118FC, symBinAddr: 0x10001263C, symSize: 0x20 }
  - { offset: 0x46BE4, size: 0x8, addend: 0x0, symName: __ZNKSt3__111__wrap_iterIPNS_6vectorI4EdgeNS_9allocatorIS2_EEEEE4baseB8ne180100Ev, symObjAddr: 0x11960, symBinAddr: 0x1000126A0, symSize: 0x18 }
  - { offset: 0x46C0A, size: 0x8, addend: 0x0, symName: __ZNSt3__111__wrap_iterIPNS_6vectorI4EdgeNS_9allocatorIS2_EEEEEppB8ne180100Ev, symObjAddr: 0x1198C, symBinAddr: 0x1000126CC, symSize: 0x20 }
  - { offset: 0x46C30, size: 0x8, addend: 0x0, symName: __ZNSt3__111__wrap_iterIPK4EdgeEC2B8ne180100IPS1_TnNS_9enable_ifIXsr14is_convertibleIT_S3_EE5valueEiE4typeELi0EEERKNS0_IS8_EE, symObjAddr: 0x119AC, symBinAddr: 0x1000126EC, symSize: 0x3C }
  - { offset: 0x46C77, size: 0x8, addend: 0x0, symName: __ZN9AdjMatrixC2EmRNSt3__16vectorI4EdgeNS0_9allocatorIS2_EEEEb, symObjAddr: 0x119E8, symBinAddr: 0x100012728, symSize: 0x1B4 }
  - { offset: 0x46CE0, size: 0x8, addend: 0x0, symName: __ZN9AdjMatrix3addE4Edge, symObjAddr: 0x11B9C, symBinAddr: 0x1000128DC, symSize: 0x3C }
  - { offset: 0x46D15, size: 0x8, addend: 0x0, symName: __ZN4Edge7inverseEv, symObjAddr: 0x11BD8, symBinAddr: 0x100012918, symSize: 0x88 }
  - { offset: 0x46D3B, size: 0x8, addend: 0x0, symName: __ZN4EdgeC1ERKS_, symObjAddr: 0x11C60, symBinAddr: 0x1000129A0, symSize: 0x34 }
  - { offset: 0x46D70, size: 0x8, addend: 0x0, symName: __ZN4EdgeC2ERKS_, symObjAddr: 0x11C94, symBinAddr: 0x1000129D4, symSize: 0x48 }
  - { offset: 0x46DA5, size: 0x8, addend: 0x0, symName: __ZN9AdjMatrixD2Ev, symObjAddr: 0x11CDC, symBinAddr: 0x100012A1C, symSize: 0x2C }
  - { offset: 0x46DD1, size: 0x8, addend: 0x0, symName: __ZN9AdjMatrixC2Ev, symObjAddr: 0x11D08, symBinAddr: 0x100012A48, symSize: 0x30 }
  - { offset: 0x46DFB, size: 0x8, addend: 0x0, symName: __ZNSt3__16vectorINS0_I4EdgeNS_9allocatorIS1_EEEENS2_IS4_EEEC1B8ne180100Ev, symObjAddr: 0x11D38, symBinAddr: 0x100012A78, symSize: 0x2C }
  - { offset: 0x46E25, size: 0x8, addend: 0x0, symName: __ZNSt3__16vectorINS0_I4EdgeNS_9allocatorIS1_EEEENS2_IS4_EEEC2B8ne180100Ev, symObjAddr: 0x11D64, symBinAddr: 0x100012AA4, symSize: 0x4C }
  - { offset: 0x46E4F, size: 0x8, addend: 0x0, symName: __ZNSt3__117__compressed_pairIPNS_6vectorI4EdgeNS_9allocatorIS2_EEEENS3_IS5_EEEC1B8ne180100IDnNS_18__default_init_tagEEEOT_OT0_, symObjAddr: 0x11DB0, symBinAddr: 0x100012AF0, symSize: 0x3C }
  - { offset: 0x46EA7, size: 0x8, addend: 0x0, symName: __ZNSt3__117__compressed_pairIPNS_6vectorI4EdgeNS_9allocatorIS2_EEEENS3_IS5_EEEC2B8ne180100IDnNS_18__default_init_tagEEEOT_OT0_, symObjAddr: 0x11DEC, symBinAddr: 0x100012B2C, symSize: 0x40 }
  - { offset: 0x46EFF, size: 0x8, addend: 0x0, symName: __ZNSt3__122__compressed_pair_elemIPNS_6vectorI4EdgeNS_9allocatorIS2_EEEELi0ELb0EEC2B8ne180100IDnvEEOT_, symObjAddr: 0x11E2C, symBinAddr: 0x100012B6C, symSize: 0x1C }
  - { offset: 0x46F41, size: 0x8, addend: 0x0, symName: __ZNSt3__122__compressed_pair_elemINS_9allocatorINS_6vectorI4EdgeNS1_IS3_EEEEEELi1ELb1EEC2B8ne180100ENS_18__default_init_tagE, symObjAddr: 0x11E48, symBinAddr: 0x100012B88, symSize: 0x2C }
  - { offset: 0x46F75, size: 0x8, addend: 0x0, symName: __ZNSt3__19allocatorINS_6vectorI4EdgeNS0_IS2_EEEEEC2B8ne180100Ev, symObjAddr: 0x11E74, symBinAddr: 0x100012BB4, symSize: 0x2C }
  - { offset: 0x46F9F, size: 0x8, addend: 0x0, symName: __ZNSt3__116__non_trivial_ifILb1ENS_9allocatorINS_6vectorI4EdgeNS1_IS3_EEEEEEEC2B8ne180100Ev, symObjAddr: 0x11EA0, symBinAddr: 0x100012BE0, symSize: 0x14 }
  - { offset: 0x46FC9, size: 0x8, addend: 0x0, symName: __ZN9h_functorC2Em, symObjAddr: 0x11EB4, symBinAddr: 0x100012BF4, symSize: 0x20 }
  - { offset: 0x47002, size: 0x8, addend: 0x0, symName: __ZNSt3__14__fs10filesystem4pathD2B8ne180100Ev, symObjAddr: 0x11ED4, symBinAddr: 0x100012C14, symSize: 0x2C }
  - { offset: 0x4702C, size: 0x8, addend: 0x0, symName: __ZNSt3__14__fs10filesystem18directory_iteratorC1B8ne180100EOS2_, symObjAddr: 0x11F00, symBinAddr: 0x100012C40, symSize: 0x34 }
  - { offset: 0x47060, size: 0x8, addend: 0x0, symName: __ZNSt3__14__fs10filesystem18directory_iteratorC2B8ne180100EOS2_, symObjAddr: 0x11F34, symBinAddr: 0x100012C74, symSize: 0x34 }
  - { offset: 0x47094, size: 0x8, addend: 0x0, symName: __ZNSt3__110shared_ptrINS_4__fs10filesystem12__dir_streamEEC1B8ne180100EOS4_, symObjAddr: 0x11F68, symBinAddr: 0x100012CA8, symSize: 0x34 }
  - { offset: 0x470CD, size: 0x8, addend: 0x0, symName: __ZNSt3__110shared_ptrINS_4__fs10filesystem12__dir_streamEEC2B8ne180100EOS4_, symObjAddr: 0x11F9C, symBinAddr: 0x100012CDC, symSize: 0x40 }
  - { offset: 0x47106, size: 0x8, addend: 0x0, symName: __ZNSt3__14__fs10filesystem18directory_iteratorC2B8ne180100ERKS2_, symObjAddr: 0x11FDC, symBinAddr: 0x100012D1C, symSize: 0x34 }
  - { offset: 0x4713A, size: 0x8, addend: 0x0, symName: __ZNSt3__110shared_ptrINS_4__fs10filesystem12__dir_streamEEC1B8ne180100ERKS4_, symObjAddr: 0x12010, symBinAddr: 0x100012D50, symSize: 0x34 }
  - { offset: 0x47173, size: 0x8, addend: 0x0, symName: __ZNSt3__110shared_ptrINS_4__fs10filesystem12__dir_streamEEC2B8ne180100ERKS4_, symObjAddr: 0x12044, symBinAddr: 0x100012D84, symSize: 0x68 }
  - { offset: 0x471AC, size: 0x8, addend: 0x0, symName: __ZNSt3__14__fs10filesystem18directory_iteratorD2B8ne180100Ev, symObjAddr: 0x120AC, symBinAddr: 0x100012DEC, symSize: 0x2C }
  - { offset: 0x471D6, size: 0x8, addend: 0x0, symName: __ZNSt3__110shared_ptrINS_4__fs10filesystem12__dir_streamEED1B8ne180100Ev, symObjAddr: 0x120D8, symBinAddr: 0x100012E18, symSize: 0x2C }
  - { offset: 0x47200, size: 0x8, addend: 0x0, symName: __ZNSt3__110shared_ptrINS_4__fs10filesystem12__dir_streamEED2B8ne180100Ev, symObjAddr: 0x12104, symBinAddr: 0x100012E44, symSize: 0x4C }
  - { offset: 0x4722A, size: 0x8, addend: 0x0, symName: __ZNSt3__119__shared_weak_count16__release_sharedB8ne180100Ev, symObjAddr: 0x12150, symBinAddr: 0x100012E90, symSize: 0x3C }
  - { offset: 0x47250, size: 0x8, addend: 0x0, symName: __ZNSt3__114__shared_count16__release_sharedB8ne180100Ev, symObjAddr: 0x1218C, symBinAddr: 0x100012ECC, symSize: 0x78 }
  - { offset: 0x47276, size: 0x8, addend: 0x0, symName: __ZNSt3__14__fs10filesystem18directory_iteratorC1B8ne180100Ev, symObjAddr: 0x12234, symBinAddr: 0x100012F74, symSize: 0x2C }
  - { offset: 0x472A0, size: 0x8, addend: 0x0, symName: __ZNSt3__14__fs10filesystem18directory_iteratorC2B8ne180100Ev, symObjAddr: 0x12260, symBinAddr: 0x100012FA0, symSize: 0x2C }
  - { offset: 0x472CA, size: 0x8, addend: 0x0, symName: __ZNSt3__110shared_ptrINS_4__fs10filesystem12__dir_streamEEC1B8ne180100Ev, symObjAddr: 0x1228C, symBinAddr: 0x100012FCC, symSize: 0x2C }
  - { offset: 0x472F4, size: 0x8, addend: 0x0, symName: __ZNSt3__110shared_ptrINS_4__fs10filesystem12__dir_streamEEC2B8ne180100Ev, symObjAddr: 0x122B8, symBinAddr: 0x100012FF8, symSize: 0x1C }
  - { offset: 0x4731E, size: 0x8, addend: 0x0, symName: __ZNKSt3__110shared_ptrINS_4__fs10filesystem12__dir_streamEE3getB8ne180100Ev, symObjAddr: 0x12344, symBinAddr: 0x100013084, symSize: 0x18 }
  - { offset: 0x47344, size: 0x8, addend: 0x0, symName: __ZNSt3__112basic_stringIcNS_11char_traitsIcEENS_9allocatorIcEEEC1INS_17basic_string_viewIcS2_EETnNS_9enable_ifIXaasr33__can_be_converted_to_string_viewIcS2_T_EE5valuentsr17__is_same_uncvrefISA_S5_EE5valueEiE4typeELi0EEERKSA_, symObjAddr: 0x1235C, symBinAddr: 0x10001309C, symSize: 0x34 }
  - { offset: 0x4738C, size: 0x8, addend: 0x0, symName: __ZNSt3__14__fs10filesystem4pathC1B8ne180100EONS_12basic_stringIcNS_11char_traitsIcEENS_9allocatorIcEEEENS2_6formatE, symObjAddr: 0x12390, symBinAddr: 0x1000130D0, symSize: 0x3C }
  - { offset: 0x473D1, size: 0x8, addend: 0x0, symName: __ZNSt3__112basic_stringIcNS_11char_traitsIcEENS_9allocatorIcEEEC2INS_17basic_string_viewIcS2_EETnNS_9enable_ifIXaasr33__can_be_converted_to_string_viewIcS2_T_EE5valuentsr17__is_same_uncvrefISA_S5_EE5valueEiE4typeELi0EEERKSA_, symObjAddr: 0x123CC, symBinAddr: 0x10001310C, symSize: 0x70 }
  - { offset: 0x47437, size: 0x8, addend: 0x0, symName: __ZNSt3__117__compressed_pairINS_12basic_stringIcNS_11char_traitsIcEENS_9allocatorIcEEE5__repES5_EC1B8ne180100INS_18__default_init_tagESA_EEOT_OT0_, symObjAddr: 0x1243C, symBinAddr: 0x10001317C, symSize: 0x3C }
  - { offset: 0x4748F, size: 0x8, addend: 0x0, symName: __ZNKSt3__117basic_string_viewIcNS_11char_traitsIcEEE4dataB8ne180100Ev, symObjAddr: 0x12478, symBinAddr: 0x1000131B8, symSize: 0x18 }
  - { offset: 0x474B5, size: 0x8, addend: 0x0, symName: __ZNKSt3__117basic_string_viewIcNS_11char_traitsIcEEE4sizeB8ne180100Ev, symObjAddr: 0x12490, symBinAddr: 0x1000131D0, symSize: 0x18 }
  - { offset: 0x474DB, size: 0x8, addend: 0x0, symName: __ZNSt3__117__compressed_pairINS_12basic_stringIcNS_11char_traitsIcEENS_9allocatorIcEEE5__repES5_EC2B8ne180100INS_18__default_init_tagESA_EEOT_OT0_, symObjAddr: 0x124A8, symBinAddr: 0x1000131E8, symSize: 0x3C }
  - { offset: 0x47533, size: 0x8, addend: 0x0, symName: __ZNSt3__122__compressed_pair_elemINS_12basic_stringIcNS_11char_traitsIcEENS_9allocatorIcEEE5__repELi0ELb0EEC2B8ne180100ENS_18__default_init_tagE, symObjAddr: 0x124E4, symBinAddr: 0x100013224, symSize: 0x14 }
  - { offset: 0x47567, size: 0x8, addend: 0x0, symName: __ZNSt3__122__compressed_pair_elemINS_9allocatorIcEELi1ELb1EEC2B8ne180100ENS_18__default_init_tagE, symObjAddr: 0x124F8, symBinAddr: 0x100013238, symSize: 0x2C }
  - { offset: 0x4759B, size: 0x8, addend: 0x0, symName: __ZNSt3__19allocatorIcEC2B8ne180100Ev, symObjAddr: 0x12524, symBinAddr: 0x100013264, symSize: 0x2C }
  - { offset: 0x475C5, size: 0x8, addend: 0x0, symName: __ZNSt3__116__non_trivial_ifILb1ENS_9allocatorIcEEEC2B8ne180100Ev, symObjAddr: 0x12550, symBinAddr: 0x100013290, symSize: 0x14 }
  - { offset: 0x475EF, size: 0x8, addend: 0x0, symName: __ZNSt3__14__fs10filesystem4pathC2B8ne180100EONS_12basic_stringIcNS_11char_traitsIcEENS_9allocatorIcEEEENS2_6formatE, symObjAddr: 0x12564, symBinAddr: 0x1000132A4, symSize: 0x38 }
  - { offset: 0x47634, size: 0x8, addend: 0x0, symName: __ZNSt3__112basic_stringIcNS_11char_traitsIcEENS_9allocatorIcEEEC1B8ne180100EOS5_, symObjAddr: 0x1259C, symBinAddr: 0x1000132DC, symSize: 0x34 }
  - { offset: 0x4766D, size: 0x8, addend: 0x0, symName: __ZNSt3__112basic_stringIcNS_11char_traitsIcEENS_9allocatorIcEEEC2B8ne180100EOS5_, symObjAddr: 0x125D0, symBinAddr: 0x100013310, symSize: 0xB8 }
  - { offset: 0x476D8, size: 0x8, addend: 0x0, symName: __ZZNSt3__112basic_stringIcNS_11char_traitsIcEENS_9allocatorIcEEEC1B8ne180100EOS5_ENKUlRS5_E_clES7_, symObjAddr: 0x12688, symBinAddr: 0x1000133C8, symSize: 0x40 }
  - { offset: 0x47711, size: 0x8, addend: 0x0, symName: __ZNSt3__117__compressed_pairINS_12basic_stringIcNS_11char_traitsIcEENS_9allocatorIcEEE5__repES5_E5firstB8ne180100Ev, symObjAddr: 0x126C8, symBinAddr: 0x100013408, symSize: 0x24 }
  - { offset: 0x47737, size: 0x8, addend: 0x0, symName: __ZNKSt3__112basic_stringIcNS_11char_traitsIcEENS_9allocatorIcEEE14__annotate_newB8ne180100Em, symObjAddr: 0x126EC, symBinAddr: 0x10001342C, symSize: 0x14 }
  - { offset: 0x4776C, size: 0x8, addend: 0x0, symName: __ZNKSt3__112basic_stringIcNS_11char_traitsIcEENS_9allocatorIcEEE9__is_longB8ne180100Ev, symObjAddr: 0x12700, symBinAddr: 0x100013440, symSize: 0x34 }
  - { offset: 0x47792, size: 0x8, addend: 0x0, symName: __ZNKSt3__112basic_stringIcNS_11char_traitsIcEENS_9allocatorIcEEE17__annotate_deleteB8ne180100Ev, symObjAddr: 0x12734, symBinAddr: 0x100013474, symSize: 0x10 }
  - { offset: 0x477B8, size: 0x8, addend: 0x0, symName: __ZNSt3__122__compressed_pair_elemINS_12basic_stringIcNS_11char_traitsIcEENS_9allocatorIcEEE5__repELi0ELb0EE5__getB8ne180100Ev, symObjAddr: 0x12744, symBinAddr: 0x100013484, symSize: 0x14 }
  - { offset: 0x477DE, size: 0x8, addend: 0x0, symName: __ZNKSt3__117__compressed_pairINS_12basic_stringIcNS_11char_traitsIcEENS_9allocatorIcEEE5__repES5_E5firstB8ne180100Ev, symObjAddr: 0x12758, symBinAddr: 0x100013498, symSize: 0x24 }
  - { offset: 0x47804, size: 0x8, addend: 0x0, symName: __ZNKSt3__122__compressed_pair_elemINS_12basic_stringIcNS_11char_traitsIcEENS_9allocatorIcEEE5__repELi0ELb0EE5__getB8ne180100Ev, symObjAddr: 0x1277C, symBinAddr: 0x1000134BC, symSize: 0x14 }
  - { offset: 0x4782A, size: 0x8, addend: 0x0, symName: __ZNSt3__14__fs10filesystem15directory_entryC2B8ne180100ERKS2_, symObjAddr: 0x12790, symBinAddr: 0x1000134D0, symSize: 0x4C }
  - { offset: 0x4785E, size: 0x8, addend: 0x0, symName: __ZNSt3__14__fs10filesystem4pathC1B8ne180100ERKS2_, symObjAddr: 0x127DC, symBinAddr: 0x10001351C, symSize: 0x34 }
  - { offset: 0x47897, size: 0x8, addend: 0x0, symName: __ZNSt3__14__fs10filesystem4pathC2B8ne180100ERKS2_, symObjAddr: 0x12810, symBinAddr: 0x100013550, symSize: 0x34 }
  - { offset: 0x478D0, size: 0x8, addend: 0x0, symName: __ZNSt3__14__fs10filesystem15directory_entryD2B8ne180100Ev, symObjAddr: 0x12844, symBinAddr: 0x100013584, symSize: 0x2C }
  - { offset: 0x478FA, size: 0x8, addend: 0x0, symName: __ZNSt3__111__wrap_iterIPKNS_12basic_stringIcNS_11char_traitsIcEENS_9allocatorIcEEEEEC2B8ne180100IPS6_TnNS_9enable_ifIXsr14is_convertibleIT_S8_EE5valueEiE4typeELi0EEERKNS0_ISD_EE, symObjAddr: 0x12884, symBinAddr: 0x1000135C4, symSize: 0x3C }
  - { offset: 0x47941, size: 0x8, addend: 0x0, symName: __ZNKSt3__111__wrap_iterIPNS_6vectorImNS_9allocatorImEEEEE4baseB8ne180100Ev, symObjAddr: 0x12904, symBinAddr: 0x100013644, symSize: 0x18 }
  - { offset: 0x47967, size: 0x8, addend: 0x0, symName: __ZNSt3__112basic_stringIcNS_11char_traitsIcEENS_9allocatorIcEEEC2B8ne180100Ev, symObjAddr: 0x1291C, symBinAddr: 0x10001365C, symSize: 0x48 }
  - { offset: 0x47991, size: 0x8, addend: 0x0, symName: __ZNSt3__117__compressed_pairINS_12basic_stringIcNS_11char_traitsIcEENS_9allocatorIcEEE5__repES5_EC1B8ne180100INS_16__value_init_tagENS_18__default_init_tagEEEOT_OT0_, symObjAddr: 0x12964, symBinAddr: 0x1000136A4, symSize: 0x3C }
  - { offset: 0x479E9, size: 0x8, addend: 0x0, symName: __ZNSt3__117__compressed_pairINS_12basic_stringIcNS_11char_traitsIcEENS_9allocatorIcEEE5__repES5_EC2B8ne180100INS_16__value_init_tagENS_18__default_init_tagEEEOT_OT0_, symObjAddr: 0x129A0, symBinAddr: 0x1000136E0, symSize: 0x3C }
  - { offset: 0x47A41, size: 0x8, addend: 0x0, symName: __ZNSt3__122__compressed_pair_elemINS_12basic_stringIcNS_11char_traitsIcEENS_9allocatorIcEEE5__repELi0ELb0EEC2B8ne180100ENS_16__value_init_tagE, symObjAddr: 0x129DC, symBinAddr: 0x10001371C, symSize: 0x20 }
  - { offset: 0x47A75, size: 0x8, addend: 0x0, symName: __ZNSt3__112basic_stringIcNS_11char_traitsIcEENS_9allocatorIcEEE13__move_assignB8ne180100ERS5_NS_17integral_constantIbLb1EEE, symObjAddr: 0x129FC, symBinAddr: 0x10001373C, symSize: 0x174 }
  - { offset: 0x47AD6, size: 0x8, addend: 0x0, symName: __ZNSt3__116allocator_traitsINS_9allocatorIcEEE10deallocateB8ne180100ERS2_Pcm, symObjAddr: 0x12B70, symBinAddr: 0x1000138B0, symSize: 0x34 }
  - { offset: 0x47B18, size: 0x8, addend: 0x0, symName: __ZNSt3__112basic_stringIcNS_11char_traitsIcEENS_9allocatorIcEEE7__allocB8ne180100Ev, symObjAddr: 0x12BA4, symBinAddr: 0x1000138E4, symSize: 0x24 }
  - { offset: 0x47B3E, size: 0x8, addend: 0x0, symName: __ZNSt3__112basic_stringIcNS_11char_traitsIcEENS_9allocatorIcEEE18__get_long_pointerB8ne180100Ev, symObjAddr: 0x12BC8, symBinAddr: 0x100013908, symSize: 0x28 }
  - { offset: 0x47B64, size: 0x8, addend: 0x0, symName: __ZNKSt3__112basic_stringIcNS_11char_traitsIcEENS_9allocatorIcEEE14__get_long_capB8ne180100Ev, symObjAddr: 0x12BF0, symBinAddr: 0x100013930, symSize: 0x30 }
  - { offset: 0x47B8A, size: 0x8, addend: 0x0, symName: __ZNSt3__112basic_stringIcNS_11char_traitsIcEENS_9allocatorIcEEE19__move_assign_allocB8ne180100ERS5_, symObjAddr: 0x12C20, symBinAddr: 0x100013960, symSize: 0x2C }
  - { offset: 0x47BBF, size: 0x8, addend: 0x0, symName: __ZNSt3__112basic_stringIcNS_11char_traitsIcEENS_9allocatorIcEEE16__set_short_sizeB8ne180100Em, symObjAddr: 0x12C4C, symBinAddr: 0x10001398C, symSize: 0x78 }
  - { offset: 0x47BF4, size: 0x8, addend: 0x0, symName: __ZNSt3__111char_traitsIcE6assignB8ne180100ERcRKc, symObjAddr: 0x12CC4, symBinAddr: 0x100013A04, symSize: 0x24 }
  - { offset: 0x47C25, size: 0x8, addend: 0x0, symName: __ZNSt3__112basic_stringIcNS_11char_traitsIcEENS_9allocatorIcEEE19__get_short_pointerB8ne180100Ev, symObjAddr: 0x12CE8, symBinAddr: 0x100013A28, symSize: 0x28 }
  - { offset: 0x47C4B, size: 0x8, addend: 0x0, symName: __ZNKSt3__112basic_stringIcNS_11char_traitsIcEENS_9allocatorIcEEE17__annotate_shrinkB8ne180100Em, symObjAddr: 0x12D10, symBinAddr: 0x100013A50, symSize: 0x14 }
  - { offset: 0x47C80, size: 0x8, addend: 0x0, symName: __ZNKSt3__112basic_stringIcNS_11char_traitsIcEENS_9allocatorIcEEE16__get_short_sizeB8ne180100Ev, symObjAddr: 0x12D24, symBinAddr: 0x100013A64, symSize: 0x34 }
  - { offset: 0x47CA6, size: 0x8, addend: 0x0, symName: __ZNSt3__19allocatorIcE10deallocateB8ne180100EPcm, symObjAddr: 0x12D58, symBinAddr: 0x100013A98, symSize: 0x40 }
  - { offset: 0x47CE8, size: 0x8, addend: 0x0, symName: __ZNSt3__117__compressed_pairINS_12basic_stringIcNS_11char_traitsIcEENS_9allocatorIcEEE5__repES5_E6secondB8ne180100Ev, symObjAddr: 0x12D98, symBinAddr: 0x100013AD8, symSize: 0x24 }
  - { offset: 0x47D0E, size: 0x8, addend: 0x0, symName: __ZNSt3__122__compressed_pair_elemINS_9allocatorIcEELi1ELb1EE5__getB8ne180100Ev, symObjAddr: 0x12DBC, symBinAddr: 0x100013AFC, symSize: 0x14 }
  - { offset: 0x47D34, size: 0x8, addend: 0x0, symName: __ZNSt3__112basic_stringIcNS_11char_traitsIcEENS_9allocatorIcEEE19__move_assign_allocB8ne180100ERS5_NS_17integral_constantIbLb1EEE, symObjAddr: 0x12DD0, symBinAddr: 0x100013B10, symSize: 0x38 }
  - { offset: 0x47D75, size: 0x8, addend: 0x0, symName: __ZNSt3__114pointer_traitsIPcE10pointer_toB8ne180100ERc, symObjAddr: 0x12E08, symBinAddr: 0x100013B48, symSize: 0x14 }
  - { offset: 0x47D98, size: 0x8, addend: 0x0, symName: __ZNKSt3__112basic_stringIcNS_11char_traitsIcEENS_9allocatorIcEEE4dataB8ne180100Ev, symObjAddr: 0x12E1C, symBinAddr: 0x100013B5C, symSize: 0x28 }
  - { offset: 0x47DBE, size: 0x8, addend: 0x0, symName: __ZNKSt3__112basic_stringIcNS_11char_traitsIcEENS_9allocatorIcEEE13__get_pointerB8ne180100Ev, symObjAddr: 0x12E58, symBinAddr: 0x100013B98, symSize: 0x54 }
  - { offset: 0x47DE4, size: 0x8, addend: 0x0, symName: __ZNKSt3__112basic_stringIcNS_11char_traitsIcEENS_9allocatorIcEEE18__get_long_pointerB8ne180100Ev, symObjAddr: 0x12EAC, symBinAddr: 0x100013BEC, symSize: 0x28 }
  - { offset: 0x47E0A, size: 0x8, addend: 0x0, symName: __ZNKSt3__112basic_stringIcNS_11char_traitsIcEENS_9allocatorIcEEE19__get_short_pointerB8ne180100Ev, symObjAddr: 0x12ED4, symBinAddr: 0x100013C14, symSize: 0x28 }
  - { offset: 0x47E30, size: 0x8, addend: 0x0, symName: __ZNSt3__114pointer_traitsIPKcE10pointer_toB8ne180100ERS1_, symObjAddr: 0x12EFC, symBinAddr: 0x100013C3C, symSize: 0x14 }
  - { offset: 0x47E53, size: 0x8, addend: 0x0, symName: __ZNSt3__112basic_stringIcNS_11char_traitsIcEENS_9allocatorIcEEEC2B8ne180100ILi0EEEPKc, symObjAddr: 0x12F10, symBinAddr: 0x100013C50, symSize: 0x58 }
  - { offset: 0x47E92, size: 0x8, addend: 0x0, symName: __ZNSt3__111char_traitsIcE6lengthB8ne180100EPKc, symObjAddr: 0x12F68, symBinAddr: 0x100013CA8, symSize: 0x34 }
  - { offset: 0x47EB5, size: 0x8, addend: 0x0, symName: __ZNSt3__16vectorIdNS_9allocatorIdEEED2B8ne180100Ev, symObjAddr: 0x12FC0, symBinAddr: 0x100013D00, symSize: 0x40 }
  - { offset: 0x47F02, size: 0x8, addend: 0x0, symName: __ZNKSt3__113basic_ostreamIcNS_11char_traitsIcEEE6sentrycvbB8ne180100Ev, symObjAddr: 0x131E8, symBinAddr: 0x100013F28, symSize: 0x1C }
  - { offset: 0x47F28, size: 0x8, addend: 0x0, symName: __ZNSt3__119ostreambuf_iteratorIcNS_11char_traitsIcEEEC1B8ne180100ERNS_13basic_ostreamIcS2_EE, symObjAddr: 0x13418, symBinAddr: 0x100014158, symSize: 0x34 }
  - { offset: 0x47F60, size: 0x8, addend: 0x0, symName: __ZNKSt3__18ios_base5flagsB8ne180100Ev, symObjAddr: 0x1344C, symBinAddr: 0x10001418C, symSize: 0x18 }
  - { offset: 0x47F88, size: 0x8, addend: 0x0, symName: __ZNKSt3__19basic_iosIcNS_11char_traitsIcEEE4fillB8ne180100Ev, symObjAddr: 0x13464, symBinAddr: 0x1000141A4, symSize: 0x64 }
  - { offset: 0x47FB0, size: 0x8, addend: 0x0, symName: __ZNKSt3__119ostreambuf_iteratorIcNS_11char_traitsIcEEE6failedB8ne180100Ev, symObjAddr: 0x134C8, symBinAddr: 0x100014208, symSize: 0x20 }
  - { offset: 0x47FD6, size: 0x8, addend: 0x0, symName: __ZNSt3__19basic_iosIcNS_11char_traitsIcEEE8setstateB8ne180100Ej, symObjAddr: 0x134E8, symBinAddr: 0x100014228, symSize: 0x2C }
  - { offset: 0x4800B, size: 0x8, addend: 0x0, symName: __ZNKSt3__18ios_base5widthB8ne180100Ev, symObjAddr: 0x13514, symBinAddr: 0x100014254, symSize: 0x18 }
  - { offset: 0x48033, size: 0x8, addend: 0x0, symName: __ZNSt3__115basic_streambufIcNS_11char_traitsIcEEE5sputnB8ne180100EPKcl, symObjAddr: 0x1352C, symBinAddr: 0x10001426C, symSize: 0x3C }
  - { offset: 0x48075, size: 0x8, addend: 0x0, symName: __ZNSt3__112basic_stringIcNS_11char_traitsIcEENS_9allocatorIcEEEC1B8ne180100Emc, symObjAddr: 0x13568, symBinAddr: 0x1000142A8, symSize: 0x3C }
  - { offset: 0x480BD, size: 0x8, addend: 0x0, symName: __ZNSt3__112basic_stringIcNS_11char_traitsIcEENS_9allocatorIcEEE4dataB8ne180100Ev, symObjAddr: 0x135A4, symBinAddr: 0x1000142E4, symSize: 0x28 }
  - { offset: 0x480E3, size: 0x8, addend: 0x0, symName: __ZNSt3__18ios_base5widthB8ne180100El, symObjAddr: 0x135CC, symBinAddr: 0x10001430C, symSize: 0x2C }
  - { offset: 0x48129, size: 0x8, addend: 0x0, symName: __ZNSt3__112basic_stringIcNS_11char_traitsIcEENS_9allocatorIcEEEC2B8ne180100Emc, symObjAddr: 0x135F8, symBinAddr: 0x100014338, symSize: 0x4C }
  - { offset: 0x48171, size: 0x8, addend: 0x0, symName: __ZNSt3__112basic_stringIcNS_11char_traitsIcEENS_9allocatorIcEEE13__get_pointerB8ne180100Ev, symObjAddr: 0x13658, symBinAddr: 0x100014398, symSize: 0x54 }
  - { offset: 0x48197, size: 0x8, addend: 0x0, symName: __ZNSt3__119ostreambuf_iteratorIcNS_11char_traitsIcEEEC2B8ne180100ERNS_13basic_ostreamIcS2_EE, symObjAddr: 0x136AC, symBinAddr: 0x1000143EC, symSize: 0x54 }
  - { offset: 0x481CF, size: 0x8, addend: 0x0, symName: __ZNKSt3__19basic_iosIcNS_11char_traitsIcEEE5rdbufB8ne180100Ev, symObjAddr: 0x13700, symBinAddr: 0x100014440, symSize: 0x24 }
  - { offset: 0x481F7, size: 0x8, addend: 0x0, symName: __ZNKSt3__18ios_base5rdbufB8ne180100Ev, symObjAddr: 0x13724, symBinAddr: 0x100014464, symSize: 0x18 }
  - { offset: 0x4821D, size: 0x8, addend: 0x0, symName: __ZNSt3__111char_traitsIcE11eq_int_typeB8ne180100Eii, symObjAddr: 0x1373C, symBinAddr: 0x10001447C, symSize: 0x24 }
  - { offset: 0x48250, size: 0x8, addend: 0x0, symName: __ZNSt3__111char_traitsIcE3eofB8ne180100Ev, symObjAddr: 0x13760, symBinAddr: 0x1000144A0, symSize: 0x8 }
  - { offset: 0x48264, size: 0x8, addend: 0x0, symName: __ZNKSt3__19basic_iosIcNS_11char_traitsIcEEE5widenB8ne180100Ec, symObjAddr: 0x13768, symBinAddr: 0x1000144A8, symSize: 0x84 }
  - { offset: 0x482C9, size: 0x8, addend: 0x0, symName: __ZNKSt3__15ctypeIcE5widenB8ne180100Ec, symObjAddr: 0x13818, symBinAddr: 0x100014558, symSize: 0x38 }
  - { offset: 0x482FE, size: 0x8, addend: 0x0, symName: __ZNSt3__18ios_base8setstateB8ne180100Ej, symObjAddr: 0x13850, symBinAddr: 0x100014590, symSize: 0x34 }
  - { offset: 0x48335, size: 0x8, addend: 0x0, symName: __ZNSt3__16vectorI4EdgeNS_9allocatorIS1_EEEC2B8ne180100Ev, symObjAddr: 0x13884, symBinAddr: 0x1000145C4, symSize: 0x4C }
  - { offset: 0x4835F, size: 0x8, addend: 0x0, symName: __ZNSt3__117__compressed_pairIP4EdgeNS_9allocatorIS1_EEEC1B8ne180100IDnNS_18__default_init_tagEEEOT_OT0_, symObjAddr: 0x138D0, symBinAddr: 0x100014610, symSize: 0x3C }
  - { offset: 0x483B7, size: 0x8, addend: 0x0, symName: __ZNSt3__117__compressed_pairIP4EdgeNS_9allocatorIS1_EEEC2B8ne180100IDnNS_18__default_init_tagEEEOT_OT0_, symObjAddr: 0x1390C, symBinAddr: 0x10001464C, symSize: 0x40 }
  - { offset: 0x4840F, size: 0x8, addend: 0x0, symName: __ZNSt3__122__compressed_pair_elemIP4EdgeLi0ELb0EEC2B8ne180100IDnvEEOT_, symObjAddr: 0x1394C, symBinAddr: 0x10001468C, symSize: 0x1C }
  - { offset: 0x48451, size: 0x8, addend: 0x0, symName: __ZNSt3__122__compressed_pair_elemINS_9allocatorI4EdgeEELi1ELb1EEC2B8ne180100ENS_18__default_init_tagE, symObjAddr: 0x13968, symBinAddr: 0x1000146A8, symSize: 0x2C }
  - { offset: 0x48485, size: 0x8, addend: 0x0, symName: __ZNSt3__19allocatorI4EdgeEC2B8ne180100Ev, symObjAddr: 0x13994, symBinAddr: 0x1000146D4, symSize: 0x2C }
  - { offset: 0x484AF, size: 0x8, addend: 0x0, symName: __ZNSt3__116__non_trivial_ifILb1ENS_9allocatorI4EdgeEEEC2B8ne180100Ev, symObjAddr: 0x139C0, symBinAddr: 0x100014700, symSize: 0x14 }
  - { offset: 0x484D9, size: 0x8, addend: 0x0, symName: __ZNSt3__16vectorI4EdgeNS_9allocatorIS1_EEED2B8ne180100Ev, symObjAddr: 0x139D4, symBinAddr: 0x100014714, symSize: 0x44 }
  - { offset: 0x48503, size: 0x8, addend: 0x0, symName: __ZNSt3__16vectorI4EdgeNS_9allocatorIS1_EEE16__destroy_vectorC1B8ne180100ERS4_, symObjAddr: 0x13A18, symBinAddr: 0x100014758, symSize: 0x34 }
  - { offset: 0x4853C, size: 0x8, addend: 0x0, symName: __ZNSt3__16vectorI4EdgeNS_9allocatorIS1_EEE16__destroy_vectorclB8ne180100Ev, symObjAddr: 0x13A4C, symBinAddr: 0x10001478C, symSize: 0x88 }
  - { offset: 0x48562, size: 0x8, addend: 0x0, symName: __ZNSt3__16vectorI4EdgeNS_9allocatorIS1_EEE16__destroy_vectorC2B8ne180100ERS4_, symObjAddr: 0x13AD4, symBinAddr: 0x100014814, symSize: 0x20 }
  - { offset: 0x4859B, size: 0x8, addend: 0x0, symName: __ZNSt3__16vectorI4EdgeNS_9allocatorIS1_EEE7__clearB8ne180100Ev, symObjAddr: 0x13AF4, symBinAddr: 0x100014834, symSize: 0x28 }
  - { offset: 0x485C1, size: 0x8, addend: 0x0, symName: __ZNKSt3__16vectorI4EdgeNS_9allocatorIS1_EEE17__annotate_deleteB8ne180100Ev, symObjAddr: 0x13B1C, symBinAddr: 0x10001485C, symSize: 0x10 }
  - { offset: 0x485E7, size: 0x8, addend: 0x0, symName: __ZNSt3__116allocator_traitsINS_9allocatorI4EdgeEEE10deallocateB8ne180100ERS3_PS2_m, symObjAddr: 0x13B2C, symBinAddr: 0x10001486C, symSize: 0x34 }
  - { offset: 0x48629, size: 0x8, addend: 0x0, symName: __ZNSt3__16vectorI4EdgeNS_9allocatorIS1_EEE7__allocB8ne180100Ev, symObjAddr: 0x13B60, symBinAddr: 0x1000148A0, symSize: 0x28 }
  - { offset: 0x4864F, size: 0x8, addend: 0x0, symName: __ZNKSt3__16vectorI4EdgeNS_9allocatorIS1_EEE8capacityB8ne180100Ev, symObjAddr: 0x13B88, symBinAddr: 0x1000148C8, symSize: 0x40 }
  - { offset: 0x48675, size: 0x8, addend: 0x0, symName: __ZNSt3__16vectorI4EdgeNS_9allocatorIS1_EEE22__base_destruct_at_endB8ne180100EPS1_, symObjAddr: 0x13BC8, symBinAddr: 0x100014908, symSize: 0x88 }
  - { offset: 0x486B9, size: 0x8, addend: 0x0, symName: __ZNSt3__116allocator_traitsINS_9allocatorI4EdgeEEE7destroyB8ne180100IS2_vEEvRS3_PT_, symObjAddr: 0x13C50, symBinAddr: 0x100014990, symSize: 0x2C }
  - { offset: 0x486F6, size: 0x8, addend: 0x0, symName: __ZNSt3__19allocatorI4EdgeE7destroyB8ne180100EPS1_, symObjAddr: 0x13C7C, symBinAddr: 0x1000149BC, symSize: 0x28 }
  - { offset: 0x4872A, size: 0x8, addend: 0x0, symName: __ZNSt3__19allocatorI4EdgeE10deallocateB8ne180100EPS1_m, symObjAddr: 0x13CA4, symBinAddr: 0x1000149E4, symSize: 0x44 }
  - { offset: 0x4876C, size: 0x8, addend: 0x0, symName: __ZNSt3__117__compressed_pairIP4EdgeNS_9allocatorIS1_EEE6secondB8ne180100Ev, symObjAddr: 0x13CE8, symBinAddr: 0x100014A28, symSize: 0x24 }
  - { offset: 0x48792, size: 0x8, addend: 0x0, symName: __ZNSt3__122__compressed_pair_elemINS_9allocatorI4EdgeEELi1ELb1EE5__getB8ne180100Ev, symObjAddr: 0x13D0C, symBinAddr: 0x100014A4C, symSize: 0x14 }
  - { offset: 0x487B8, size: 0x8, addend: 0x0, symName: __ZNKSt3__16vectorI4EdgeNS_9allocatorIS1_EEE9__end_capB8ne180100Ev, symObjAddr: 0x13D20, symBinAddr: 0x100014A60, symSize: 0x28 }
  - { offset: 0x487DE, size: 0x8, addend: 0x0, symName: __ZNKSt3__117__compressed_pairIP4EdgeNS_9allocatorIS1_EEE5firstB8ne180100Ev, symObjAddr: 0x13D48, symBinAddr: 0x100014A88, symSize: 0x24 }
  - { offset: 0x48804, size: 0x8, addend: 0x0, symName: __ZNKSt3__122__compressed_pair_elemIP4EdgeLi0ELb0EE5__getB8ne180100Ev, symObjAddr: 0x13D6C, symBinAddr: 0x100014AAC, symSize: 0x14 }
  - { offset: 0x4882A, size: 0x8, addend: 0x0, symName: __ZNSt3__16vectorINS0_I4EdgeNS_9allocatorIS1_EEEENS2_IS4_EEEC2EmRKS4_, symObjAddr: 0x13D80, symBinAddr: 0x100014AC0, symSize: 0xD8 }
  - { offset: 0x48889, size: 0x8, addend: 0x0, symName: __ZNSt3__16vectorINS0_I4EdgeNS_9allocatorIS1_EEEENS2_IS4_EEE16__destroy_vectorC1B8ne180100ERS6_, symObjAddr: 0x13E98, symBinAddr: 0x100014BD8, symSize: 0x34 }
  - { offset: 0x488C2, size: 0x8, addend: 0x0, symName: __ZNSt3__16vectorINS0_I4EdgeNS_9allocatorIS1_EEEENS2_IS4_EEE11__vallocateB8ne180100Em, symObjAddr: 0x13ECC, symBinAddr: 0x100014C0C, symSize: 0xB0 }
  - { offset: 0x48906, size: 0x8, addend: 0x0, symName: __ZNSt3__16vectorINS0_I4EdgeNS_9allocatorIS1_EEEENS2_IS4_EEE18__construct_at_endEmRKS4_, symObjAddr: 0x13F7C, symBinAddr: 0x100014CBC, symSize: 0xCC }
  - { offset: 0x48988, size: 0x8, addend: 0x0, symName: __ZNSt3__128__exception_guard_exceptionsINS_6vectorINS1_I4EdgeNS_9allocatorIS2_EEEENS3_IS5_EEE16__destroy_vectorEE10__completeB8ne180100Ev, symObjAddr: 0x14048, symBinAddr: 0x100014D88, symSize: 0x1C }
  - { offset: 0x489AE, size: 0x8, addend: 0x0, symName: __ZNSt3__128__exception_guard_exceptionsINS_6vectorINS1_I4EdgeNS_9allocatorIS2_EEEENS3_IS5_EEE16__destroy_vectorEED1B8ne180100Ev, symObjAddr: 0x14064, symBinAddr: 0x100014DA4, symSize: 0x2C }
  - { offset: 0x489D8, size: 0x8, addend: 0x0, symName: __ZNSt3__128__exception_guard_exceptionsINS_6vectorINS1_I4EdgeNS_9allocatorIS2_EEEENS3_IS5_EEE16__destroy_vectorEEC1B8ne180100ES8_, symObjAddr: 0x14090, symBinAddr: 0x100014DD0, symSize: 0x34 }
  - { offset: 0x48A10, size: 0x8, addend: 0x0, symName: __ZNSt3__128__exception_guard_exceptionsINS_6vectorINS1_I4EdgeNS_9allocatorIS2_EEEENS3_IS5_EEE16__destroy_vectorEEC2B8ne180100ES8_, symObjAddr: 0x140C4, symBinAddr: 0x100014E04, symSize: 0x24 }
  - { offset: 0x48A48, size: 0x8, addend: 0x0, symName: __ZNSt3__16vectorINS0_I4EdgeNS_9allocatorIS1_EEEENS2_IS4_EEE16__destroy_vectorC2B8ne180100ERS6_, symObjAddr: 0x140E8, symBinAddr: 0x100014E28, symSize: 0x20 }
  - { offset: 0x48A81, size: 0x8, addend: 0x0, symName: __ZNKSt3__16vectorINS0_I4EdgeNS_9allocatorIS1_EEEENS2_IS4_EEE8max_sizeEv, symObjAddr: 0x14108, symBinAddr: 0x100014E48, symSize: 0x60 }
  - { offset: 0x48AA9, size: 0x8, addend: 0x0, symName: __ZNKSt3__16vectorINS0_I4EdgeNS_9allocatorIS1_EEEENS2_IS4_EEE20__throw_length_errorB8ne180100Ev, symObjAddr: 0x14168, symBinAddr: 0x100014EA8, symSize: 0x1C }
  - { offset: 0x48ACF, size: 0x8, addend: 0x0, symName: __ZNSt3__16vectorINS0_I4EdgeNS_9allocatorIS1_EEEENS2_IS4_EEE7__allocB8ne180100Ev, symObjAddr: 0x141C4, symBinAddr: 0x100014F04, symSize: 0x28 }
  - { offset: 0x48AF5, size: 0x8, addend: 0x0, symName: __ZNSt3__16vectorINS0_I4EdgeNS_9allocatorIS1_EEEENS2_IS4_EEE9__end_capB8ne180100Ev, symObjAddr: 0x141EC, symBinAddr: 0x100014F2C, symSize: 0x28 }
  - { offset: 0x48B1B, size: 0x8, addend: 0x0, symName: __ZNKSt3__16vectorINS0_I4EdgeNS_9allocatorIS1_EEEENS2_IS4_EEE14__annotate_newB8ne180100Em, symObjAddr: 0x14214, symBinAddr: 0x100014F54, symSize: 0x14 }
  - { offset: 0x48B5B, size: 0x8, addend: 0x0, symName: __ZNSt3__116allocator_traitsINS_9allocatorINS_6vectorI4EdgeNS1_IS3_EEEEEEE8max_sizeB8ne180100IS6_vEEmRKS6_, symObjAddr: 0x14228, symBinAddr: 0x100014F68, symSize: 0x24 }
  - { offset: 0x48B89, size: 0x8, addend: 0x0, symName: __ZNKSt3__16vectorINS0_I4EdgeNS_9allocatorIS1_EEEENS2_IS4_EEE7__allocB8ne180100Ev, symObjAddr: 0x1424C, symBinAddr: 0x100014F8C, symSize: 0x28 }
  - { offset: 0x48BAF, size: 0x8, addend: 0x0, symName: __ZNKSt3__19allocatorINS_6vectorI4EdgeNS0_IS2_EEEEE8max_sizeB8ne180100Ev, symObjAddr: 0x14274, symBinAddr: 0x100014FB4, symSize: 0x18 }
  - { offset: 0x48BD5, size: 0x8, addend: 0x0, symName: __ZNKSt3__117__compressed_pairIPNS_6vectorI4EdgeNS_9allocatorIS2_EEEENS3_IS5_EEE6secondB8ne180100Ev, symObjAddr: 0x1428C, symBinAddr: 0x100014FCC, symSize: 0x24 }
  - { offset: 0x48BFB, size: 0x8, addend: 0x0, symName: __ZNKSt3__122__compressed_pair_elemINS_9allocatorINS_6vectorI4EdgeNS1_IS3_EEEEEELi1ELb1EE5__getB8ne180100Ev, symObjAddr: 0x142B0, symBinAddr: 0x100014FF0, symSize: 0x14 }
  - { offset: 0x48C21, size: 0x8, addend: 0x0, symName: __ZNSt3__19allocatorINS_6vectorI4EdgeNS0_IS2_EEEEE8allocateB8ne180100Em, symObjAddr: 0x142C4, symBinAddr: 0x100015004, symSize: 0x58 }
  - { offset: 0x48C55, size: 0x8, addend: 0x0, symName: __ZNSt3__117__compressed_pairIPNS_6vectorI4EdgeNS_9allocatorIS2_EEEENS3_IS5_EEE6secondB8ne180100Ev, symObjAddr: 0x1431C, symBinAddr: 0x10001505C, symSize: 0x24 }
  - { offset: 0x48C7B, size: 0x8, addend: 0x0, symName: __ZNSt3__122__compressed_pair_elemINS_9allocatorINS_6vectorI4EdgeNS1_IS3_EEEEEELi1ELb1EE5__getB8ne180100Ev, symObjAddr: 0x14340, symBinAddr: 0x100015080, symSize: 0x14 }
  - { offset: 0x48CA1, size: 0x8, addend: 0x0, symName: __ZNSt3__117__compressed_pairIPNS_6vectorI4EdgeNS_9allocatorIS2_EEEENS3_IS5_EEE5firstB8ne180100Ev, symObjAddr: 0x14354, symBinAddr: 0x100015094, symSize: 0x24 }
  - { offset: 0x48CC7, size: 0x8, addend: 0x0, symName: __ZNSt3__122__compressed_pair_elemIPNS_6vectorI4EdgeNS_9allocatorIS2_EEEELi0ELb0EE5__getB8ne180100Ev, symObjAddr: 0x14378, symBinAddr: 0x1000150B8, symSize: 0x14 }
  - { offset: 0x48D09, size: 0x8, addend: 0x0, symName: __ZNSt3__16vectorINS0_I4EdgeNS_9allocatorIS1_EEEENS2_IS4_EEE21_ConstructTransactionC1B8ne180100ERS6_m, symObjAddr: 0x1438C, symBinAddr: 0x1000150CC, symSize: 0x3C }
  - { offset: 0x48D51, size: 0x8, addend: 0x0, symName: __ZNSt3__116allocator_traitsINS_9allocatorINS_6vectorI4EdgeNS1_IS3_EEEEEEE9constructB8ne180100IS5_JRKS5_EvEEvRS6_PT_DpOT0_, symObjAddr: 0x143C8, symBinAddr: 0x100015108, symSize: 0x34 }
  - { offset: 0x48DA8, size: 0x8, addend: 0x0, symName: __ZNSt3__16vectorINS0_I4EdgeNS_9allocatorIS1_EEEENS2_IS4_EEE21_ConstructTransactionD1B8ne180100Ev, symObjAddr: 0x143FC, symBinAddr: 0x10001513C, symSize: 0x2C }
  - { offset: 0x48DD2, size: 0x8, addend: 0x0, symName: __ZNSt3__16vectorINS0_I4EdgeNS_9allocatorIS1_EEEENS2_IS4_EEE21_ConstructTransactionC2B8ne180100ERS6_m, symObjAddr: 0x14428, symBinAddr: 0x100015168, symSize: 0x4C }
  - { offset: 0x48E1A, size: 0x8, addend: 0x0, symName: __ZNSt3__19allocatorINS_6vectorI4EdgeNS0_IS2_EEEEE9constructB8ne180100IS4_JRKS4_EEEvPT_DpOT0_, symObjAddr: 0x14474, symBinAddr: 0x1000151B4, symSize: 0x30 }
  - { offset: 0x48E70, size: 0x8, addend: 0x0, symName: __ZNSt3__16vectorI4EdgeNS_9allocatorIS1_EEEC1ERKS4_, symObjAddr: 0x144A4, symBinAddr: 0x1000151E4, symSize: 0x34 }
  - { offset: 0x48EAB, size: 0x8, addend: 0x0, symName: __ZNSt3__16vectorI4EdgeNS_9allocatorIS1_EEEC2ERKS4_, symObjAddr: 0x144D8, symBinAddr: 0x100015218, symSize: 0x94 }
  - { offset: 0x48EF1, size: 0x8, addend: 0x0, symName: __ZNSt3__116allocator_traitsINS_9allocatorI4EdgeEEE37select_on_container_copy_constructionB8ne180100IS3_vvEES3_RKS3_, symObjAddr: 0x1456C, symBinAddr: 0x1000152AC, symSize: 0x10 }
  - { offset: 0x48F20, size: 0x8, addend: 0x0, symName: __ZNKSt3__16vectorI4EdgeNS_9allocatorIS1_EEE7__allocB8ne180100Ev, symObjAddr: 0x1457C, symBinAddr: 0x1000152BC, symSize: 0x28 }
  - { offset: 0x48F4C, size: 0x8, addend: 0x0, symName: __ZNSt3__117__compressed_pairIP4EdgeNS_9allocatorIS1_EEEC1B8ne180100IDnS4_EEOT_OT0_, symObjAddr: 0x145A4, symBinAddr: 0x1000152E4, symSize: 0x3C }
  - { offset: 0x48FA4, size: 0x8, addend: 0x0, symName: __ZNSt3__16vectorI4EdgeNS_9allocatorIS1_EEE16__init_with_sizeB8ne180100IPS1_S6_EEvT_T0_m, symObjAddr: 0x145E0, symBinAddr: 0x100015320, symSize: 0xB4 }
  - { offset: 0x49018, size: 0x8, addend: 0x0, symName: __ZNKSt3__117__compressed_pairIP4EdgeNS_9allocatorIS1_EEE6secondB8ne180100Ev, symObjAddr: 0x14694, symBinAddr: 0x1000153D4, symSize: 0x24 }
  - { offset: 0x4903E, size: 0x8, addend: 0x0, symName: __ZNKSt3__122__compressed_pair_elemINS_9allocatorI4EdgeEELi1ELb1EE5__getB8ne180100Ev, symObjAddr: 0x146B8, symBinAddr: 0x1000153F8, symSize: 0x14 }
  - { offset: 0x49064, size: 0x8, addend: 0x0, symName: __ZNSt3__117__compressed_pairIP4EdgeNS_9allocatorIS1_EEEC2B8ne180100IDnS4_EEOT_OT0_, symObjAddr: 0x146CC, symBinAddr: 0x10001540C, symSize: 0x44 }
  - { offset: 0x490BC, size: 0x8, addend: 0x0, symName: __ZNSt3__122__compressed_pair_elemINS_9allocatorI4EdgeEELi1ELb1EEC2B8ne180100IS3_vEEOT_, symObjAddr: 0x14710, symBinAddr: 0x100015450, symSize: 0x18 }
  - { offset: 0x490FE, size: 0x8, addend: 0x0, symName: __ZNSt3__16vectorI4EdgeNS_9allocatorIS1_EEE11__vallocateB8ne180100Em, symObjAddr: 0x14768, symBinAddr: 0x1000154A8, symSize: 0xB0 }
  - { offset: 0x49142, size: 0x8, addend: 0x0, symName: __ZNSt3__16vectorI4EdgeNS_9allocatorIS1_EEE18__construct_at_endIPS1_S6_EEvT_T0_m, symObjAddr: 0x14818, symBinAddr: 0x100015558, symSize: 0x8C }
  - { offset: 0x491B6, size: 0x8, addend: 0x0, symName: __ZNSt3__128__exception_guard_exceptionsINS_6vectorI4EdgeNS_9allocatorIS2_EEE16__destroy_vectorEE10__completeB8ne180100Ev, symObjAddr: 0x148A4, symBinAddr: 0x1000155E4, symSize: 0x1C }
  - { offset: 0x491DC, size: 0x8, addend: 0x0, symName: __ZNSt3__128__exception_guard_exceptionsINS_6vectorI4EdgeNS_9allocatorIS2_EEE16__destroy_vectorEED1B8ne180100Ev, symObjAddr: 0x148C0, symBinAddr: 0x100015600, symSize: 0x2C }
  - { offset: 0x49206, size: 0x8, addend: 0x0, symName: __ZNSt3__128__exception_guard_exceptionsINS_6vectorI4EdgeNS_9allocatorIS2_EEE16__destroy_vectorEEC1B8ne180100ES6_, symObjAddr: 0x148EC, symBinAddr: 0x10001562C, symSize: 0x34 }
  - { offset: 0x4923E, size: 0x8, addend: 0x0, symName: __ZNSt3__128__exception_guard_exceptionsINS_6vectorI4EdgeNS_9allocatorIS2_EEE16__destroy_vectorEEC2B8ne180100ES6_, symObjAddr: 0x14920, symBinAddr: 0x100015660, symSize: 0x24 }
  - { offset: 0x49276, size: 0x8, addend: 0x0, symName: __ZNKSt3__16vectorI4EdgeNS_9allocatorIS1_EEE8max_sizeEv, symObjAddr: 0x14944, symBinAddr: 0x100015684, symSize: 0x60 }
  - { offset: 0x4929E, size: 0x8, addend: 0x0, symName: __ZNKSt3__16vectorI4EdgeNS_9allocatorIS1_EEE20__throw_length_errorB8ne180100Ev, symObjAddr: 0x149A4, symBinAddr: 0x1000156E4, symSize: 0x1C }
  - { offset: 0x492C4, size: 0x8, addend: 0x0, symName: __ZNSt3__16vectorI4EdgeNS_9allocatorIS1_EEE9__end_capB8ne180100Ev, symObjAddr: 0x14A00, symBinAddr: 0x100015740, symSize: 0x28 }
  - { offset: 0x492EA, size: 0x8, addend: 0x0, symName: __ZNKSt3__16vectorI4EdgeNS_9allocatorIS1_EEE14__annotate_newB8ne180100Em, symObjAddr: 0x14A28, symBinAddr: 0x100015768, symSize: 0x14 }
  - { offset: 0x4931F, size: 0x8, addend: 0x0, symName: __ZNSt3__116allocator_traitsINS_9allocatorI4EdgeEEE8max_sizeB8ne180100IS3_vEEmRKS3_, symObjAddr: 0x14A3C, symBinAddr: 0x10001577C, symSize: 0x24 }
  - { offset: 0x4934D, size: 0x8, addend: 0x0, symName: __ZNKSt3__19allocatorI4EdgeE8max_sizeB8ne180100Ev, symObjAddr: 0x14A60, symBinAddr: 0x1000157A0, symSize: 0x18 }
  - { offset: 0x49373, size: 0x8, addend: 0x0, symName: __ZNSt3__19allocatorI4EdgeE8allocateB8ne180100Em, symObjAddr: 0x14A78, symBinAddr: 0x1000157B8, symSize: 0x58 }
  - { offset: 0x493A7, size: 0x8, addend: 0x0, symName: __ZNSt3__117__compressed_pairIP4EdgeNS_9allocatorIS1_EEE5firstB8ne180100Ev, symObjAddr: 0x14AD0, symBinAddr: 0x100015810, symSize: 0x24 }
  - { offset: 0x493CD, size: 0x8, addend: 0x0, symName: __ZNSt3__122__compressed_pair_elemIP4EdgeLi0ELb0EE5__getB8ne180100Ev, symObjAddr: 0x14AF4, symBinAddr: 0x100015834, symSize: 0x14 }
  - { offset: 0x4940F, size: 0x8, addend: 0x0, symName: __ZNSt3__16vectorI4EdgeNS_9allocatorIS1_EEE21_ConstructTransactionC1B8ne180100ERS4_m, symObjAddr: 0x14B08, symBinAddr: 0x100015848, symSize: 0x3C }
  - { offset: 0x49457, size: 0x8, addend: 0x0, symName: __ZNSt3__16vectorI4EdgeNS_9allocatorIS1_EEE21_ConstructTransactionD1B8ne180100Ev, symObjAddr: 0x14BC4, symBinAddr: 0x100015904, symSize: 0x2C }
  - { offset: 0x49481, size: 0x8, addend: 0x0, symName: __ZNSt3__16vectorI4EdgeNS_9allocatorIS1_EEE21_ConstructTransactionC2B8ne180100ERS4_m, symObjAddr: 0x14BF0, symBinAddr: 0x100015930, symSize: 0x4C }
  - { offset: 0x494EC, size: 0x8, addend: 0x0, symName: __ZNSt3__14pairIP4EdgeS2_EC1B8ne180100IS2_S2_TnNS_9enable_ifIXclsr10_CheckArgsE17__enable_implicitIT_T0_EEEiE4typeELi0EEEOS6_OS7_, symObjAddr: 0x14E24, symBinAddr: 0x100015B64, symSize: 0x3C }
  - { offset: 0x4954A, size: 0x8, addend: 0x0, symName: __ZNSt3__14pairIP4EdgeS2_EC2B8ne180100IS2_S2_TnNS_9enable_ifIXclsr10_CheckArgsE17__enable_implicitIT_T0_EEEiE4typeELi0EEEOS6_OS7_, symObjAddr: 0x14E60, symBinAddr: 0x100015BA0, symSize: 0x34 }
  - { offset: 0x495A8, size: 0x8, addend: 0x0, symName: __ZNSt3__129_AllocatorDestroyRangeReverseINS_9allocatorI4EdgeEEPS2_EC1B8ne180100ERS3_RS4_S7_, symObjAddr: 0x14EE0, symBinAddr: 0x100015C20, symSize: 0x44 }
  - { offset: 0x495FF, size: 0x8, addend: 0x0, symName: __ZNSt3__116allocator_traitsINS_9allocatorI4EdgeEEE9constructB8ne180100IS2_JRS2_EvEEvRS3_PT_DpOT0_, symObjAddr: 0x14F24, symBinAddr: 0x100015C64, symSize: 0x34 }
  - { offset: 0x49656, size: 0x8, addend: 0x0, symName: __ZNSt3__128__exception_guard_exceptionsINS_29_AllocatorDestroyRangeReverseINS_9allocatorI4EdgeEEPS3_EEE10__completeB8ne180100Ev, symObjAddr: 0x14F58, symBinAddr: 0x100015C98, symSize: 0x1C }
  - { offset: 0x4967C, size: 0x8, addend: 0x0, symName: __ZNSt3__128__exception_guard_exceptionsINS_29_AllocatorDestroyRangeReverseINS_9allocatorI4EdgeEEPS3_EEED1B8ne180100Ev, symObjAddr: 0x14F74, symBinAddr: 0x100015CB4, symSize: 0x2C }
  - { offset: 0x496A6, size: 0x8, addend: 0x0, symName: __ZNSt3__128__exception_guard_exceptionsINS_29_AllocatorDestroyRangeReverseINS_9allocatorI4EdgeEEPS3_EEEC1B8ne180100ES6_, symObjAddr: 0x14FA0, symBinAddr: 0x100015CE0, symSize: 0x34 }
  - { offset: 0x496DF, size: 0x8, addend: 0x0, symName: __ZNSt3__128__exception_guard_exceptionsINS_29_AllocatorDestroyRangeReverseINS_9allocatorI4EdgeEEPS3_EEEC2B8ne180100ES6_, symObjAddr: 0x14FD4, symBinAddr: 0x100015D14, symSize: 0x30 }
  - { offset: 0x49718, size: 0x8, addend: 0x0, symName: __ZNSt3__129_AllocatorDestroyRangeReverseINS_9allocatorI4EdgeEEPS2_EC2B8ne180100ERS3_RS4_S7_, symObjAddr: 0x15004, symBinAddr: 0x100015D44, symSize: 0x38 }
  - { offset: 0x4976F, size: 0x8, addend: 0x0, symName: __ZNSt3__19allocatorI4EdgeE9constructB8ne180100IS1_JRS1_EEEvPT_DpOT0_, symObjAddr: 0x1503C, symBinAddr: 0x100015D7C, symSize: 0x30 }
  - { offset: 0x497C5, size: 0x8, addend: 0x0, symName: __ZNSt3__128__exception_guard_exceptionsINS_29_AllocatorDestroyRangeReverseINS_9allocatorI4EdgeEEPS3_EEED2B8ne180100Ev, symObjAddr: 0x1506C, symBinAddr: 0x100015DAC, symSize: 0x50 }
  - { offset: 0x497EF, size: 0x8, addend: 0x0, symName: __ZNKSt3__129_AllocatorDestroyRangeReverseINS_9allocatorI4EdgeEEPS2_EclB8ne180100Ev, symObjAddr: 0x150BC, symBinAddr: 0x100015DFC, symSize: 0x68 }
  - { offset: 0x49815, size: 0x8, addend: 0x0, symName: __ZNSt3__116reverse_iteratorIP4EdgeEC1B8ne180100ES2_, symObjAddr: 0x15194, symBinAddr: 0x100015ED4, symSize: 0x34 }
  - { offset: 0x4984D, size: 0x8, addend: 0x0, symName: __ZNSt3__116reverse_iteratorIP4EdgeEppB8ne180100Ev, symObjAddr: 0x15230, symBinAddr: 0x100015F70, symSize: 0x20 }
  - { offset: 0x49873, size: 0x8, addend: 0x0, symName: __ZNKSt3__116reverse_iteratorIP4EdgeE4baseB8ne180100Ev, symObjAddr: 0x15250, symBinAddr: 0x100015F90, symSize: 0x18 }
  - { offset: 0x4989F, size: 0x8, addend: 0x0, symName: __ZNSt3__119__to_address_helperINS_16reverse_iteratorIP4EdgeEEvE6__callB8ne180100ERKS4_, symObjAddr: 0x15268, symBinAddr: 0x100015FA8, symSize: 0x38 }
  - { offset: 0x498C2, size: 0x8, addend: 0x0, symName: __ZNKSt3__116reverse_iteratorIP4EdgeEptB8ne180100Ev, symObjAddr: 0x152A0, symBinAddr: 0x100015FE0, symSize: 0x24 }
  - { offset: 0x498E8, size: 0x8, addend: 0x0, symName: __ZNKSt3__116reverse_iteratorIP4EdgeEdeB8ne180100Ev, symObjAddr: 0x152C4, symBinAddr: 0x100016004, symSize: 0x28 }
  - { offset: 0x4991C, size: 0x8, addend: 0x0, symName: __ZNSt3__116reverse_iteratorIP4EdgeEC2B8ne180100ES2_, symObjAddr: 0x152EC, symBinAddr: 0x10001602C, symSize: 0x28 }
  - { offset: 0x49954, size: 0x8, addend: 0x0, symName: __ZNSt3__118__unwrap_iter_implIP4EdgeLb1EE8__unwrapB8ne180100ES2_, symObjAddr: 0x15314, symBinAddr: 0x100016054, symSize: 0x24 }
  - { offset: 0x49977, size: 0x8, addend: 0x0, symName: __ZNSt3__118__unwrap_iter_implIP4EdgeLb1EE8__rewrapB8ne180100ES2_S2_, symObjAddr: 0x15338, symBinAddr: 0x100016078, symSize: 0x58 }
  - { offset: 0x499A8, size: 0x8, addend: 0x0, symName: __ZNSt3__16vectorI4EdgeNS_9allocatorIS1_EEE21_ConstructTransactionD2B8ne180100Ev, symObjAddr: 0x15390, symBinAddr: 0x1000160D0, symSize: 0x20 }
  - { offset: 0x499D2, size: 0x8, addend: 0x0, symName: __ZNSt3__128__exception_guard_exceptionsINS_6vectorI4EdgeNS_9allocatorIS2_EEE16__destroy_vectorEED2B8ne180100Ev, symObjAddr: 0x153B0, symBinAddr: 0x1000160F0, symSize: 0x48 }
  - { offset: 0x499FC, size: 0x8, addend: 0x0, symName: __ZNSt3__16vectorINS0_I4EdgeNS_9allocatorIS1_EEEENS2_IS4_EEE21_ConstructTransactionD2B8ne180100Ev, symObjAddr: 0x153F8, symBinAddr: 0x100016138, symSize: 0x20 }
  - { offset: 0x49A26, size: 0x8, addend: 0x0, symName: __ZNSt3__128__exception_guard_exceptionsINS_6vectorINS1_I4EdgeNS_9allocatorIS2_EEEENS3_IS5_EEE16__destroy_vectorEED2B8ne180100Ev, symObjAddr: 0x15418, symBinAddr: 0x100016158, symSize: 0x50 }
  - { offset: 0x49A50, size: 0x8, addend: 0x0, symName: __ZNSt3__16vectorINS0_I4EdgeNS_9allocatorIS1_EEEENS2_IS4_EEE16__destroy_vectorclB8ne180100Ev, symObjAddr: 0x15468, symBinAddr: 0x1000161A8, symSize: 0x88 }
  - { offset: 0x49A76, size: 0x8, addend: 0x0, symName: __ZNSt3__16vectorINS0_I4EdgeNS_9allocatorIS1_EEEENS2_IS4_EEE7__clearB8ne180100Ev, symObjAddr: 0x154F0, symBinAddr: 0x100016230, symSize: 0x28 }
  - { offset: 0x49A9C, size: 0x8, addend: 0x0, symName: __ZNKSt3__16vectorINS0_I4EdgeNS_9allocatorIS1_EEEENS2_IS4_EEE17__annotate_deleteB8ne180100Ev, symObjAddr: 0x15518, symBinAddr: 0x100016258, symSize: 0x10 }
  - { offset: 0x49AC2, size: 0x8, addend: 0x0, symName: __ZNSt3__116allocator_traitsINS_9allocatorINS_6vectorI4EdgeNS1_IS3_EEEEEEE10deallocateB8ne180100ERS6_PS5_m, symObjAddr: 0x15528, symBinAddr: 0x100016268, symSize: 0x34 }
  - { offset: 0x49B04, size: 0x8, addend: 0x0, symName: __ZNKSt3__16vectorINS0_I4EdgeNS_9allocatorIS1_EEEENS2_IS4_EEE8capacityB8ne180100Ev, symObjAddr: 0x1555C, symBinAddr: 0x10001629C, symSize: 0x40 }
  - { offset: 0x49B2A, size: 0x8, addend: 0x0, symName: __ZNSt3__16vectorINS0_I4EdgeNS_9allocatorIS1_EEEENS2_IS4_EEE22__base_destruct_at_endB8ne180100EPS4_, symObjAddr: 0x1559C, symBinAddr: 0x1000162DC, symSize: 0x88 }
  - { offset: 0x49B6E, size: 0x8, addend: 0x0, symName: __ZNSt3__116allocator_traitsINS_9allocatorINS_6vectorI4EdgeNS1_IS3_EEEEEEE7destroyB8ne180100IS5_vEEvRS6_PT_, symObjAddr: 0x15624, symBinAddr: 0x100016364, symSize: 0x2C }
  - { offset: 0x49BAB, size: 0x8, addend: 0x0, symName: __ZNSt3__19allocatorINS_6vectorI4EdgeNS0_IS2_EEEEE7destroyB8ne180100EPS4_, symObjAddr: 0x15650, symBinAddr: 0x100016390, symSize: 0x28 }
  - { offset: 0x49BDF, size: 0x8, addend: 0x0, symName: __ZNSt3__19allocatorINS_6vectorI4EdgeNS0_IS2_EEEEE10deallocateB8ne180100EPS4_m, symObjAddr: 0x15678, symBinAddr: 0x1000163B8, symSize: 0x44 }
  - { offset: 0x49C21, size: 0x8, addend: 0x0, symName: __ZNKSt3__16vectorINS0_I4EdgeNS_9allocatorIS1_EEEENS2_IS4_EEE9__end_capB8ne180100Ev, symObjAddr: 0x156BC, symBinAddr: 0x1000163FC, symSize: 0x28 }
  - { offset: 0x49C47, size: 0x8, addend: 0x0, symName: __ZNKSt3__117__compressed_pairIPNS_6vectorI4EdgeNS_9allocatorIS2_EEEENS3_IS5_EEE5firstB8ne180100Ev, symObjAddr: 0x156E4, symBinAddr: 0x100016424, symSize: 0x24 }
  - { offset: 0x49C6D, size: 0x8, addend: 0x0, symName: __ZNKSt3__122__compressed_pair_elemIPNS_6vectorI4EdgeNS_9allocatorIS2_EEEELi0ELb0EE5__getB8ne180100Ev, symObjAddr: 0x15708, symBinAddr: 0x100016448, symSize: 0x14 }
  - { offset: 0x49C93, size: 0x8, addend: 0x0, symName: __ZNSt3__16vectorINS0_I4EdgeNS_9allocatorIS1_EEEENS2_IS4_EEED2B8ne180100Ev, symObjAddr: 0x1571C, symBinAddr: 0x10001645C, symSize: 0x40 }
  - { offset: 0x49CBD, size: 0x8, addend: 0x0, symName: __ZNSt3__16vectorI4EdgeNS_9allocatorIS1_EEE11__make_iterB8ne180100EPS1_, symObjAddr: 0x1575C, symBinAddr: 0x10001649C, symSize: 0x30 }
  - { offset: 0x49CF2, size: 0x8, addend: 0x0, symName: __ZNSt3__111__wrap_iterIP4EdgeEC1B8ne180100ES2_, symObjAddr: 0x1578C, symBinAddr: 0x1000164CC, symSize: 0x34 }
  - { offset: 0x49D2A, size: 0x8, addend: 0x0, symName: __ZNSt3__111__wrap_iterIP4EdgeEC2B8ne180100ES2_, symObjAddr: 0x157C0, symBinAddr: 0x100016500, symSize: 0x20 }
  - { offset: 0x49D62, size: 0x8, addend: 0x0, symName: __ZNSt3__16vectorI4EdgeNS_9allocatorIS1_EEE22__construct_one_at_endB8ne180100IJRKS1_EEEvDpOT_, symObjAddr: 0x157E0, symBinAddr: 0x100016520, symSize: 0x90 }
  - { offset: 0x49DB1, size: 0x8, addend: 0x0, symName: __ZNSt3__16vectorI4EdgeNS_9allocatorIS1_EEE21__push_back_slow_pathIRKS1_EEPS1_OT_, symObjAddr: 0x15870, symBinAddr: 0x1000165B0, symSize: 0xE8 }
  - { offset: 0x49E0D, size: 0x8, addend: 0x0, symName: __ZNSt3__116allocator_traitsINS_9allocatorI4EdgeEEE9constructB8ne180100IS2_JRKS2_EvEEvRS3_PT_DpOT0_, symObjAddr: 0x15958, symBinAddr: 0x100016698, symSize: 0x34 }
  - { offset: 0x49E64, size: 0x8, addend: 0x0, symName: __ZNSt3__19allocatorI4EdgeE9constructB8ne180100IS1_JRKS1_EEEvPT_DpOT0_, symObjAddr: 0x1598C, symBinAddr: 0x1000166CC, symSize: 0x30 }
  - { offset: 0x49EBA, size: 0x8, addend: 0x0, symName: __ZNKSt3__16vectorI4EdgeNS_9allocatorIS1_EEE11__recommendB8ne180100Em, symObjAddr: 0x159BC, symBinAddr: 0x1000166FC, symSize: 0xAC }
  - { offset: 0x49F0F, size: 0x8, addend: 0x0, symName: __ZNSt3__114__split_bufferI4EdgeRNS_9allocatorIS1_EEEC1EmmS4_, symObjAddr: 0x15A68, symBinAddr: 0x1000167A8, symSize: 0x44 }
  - { offset: 0x49F65, size: 0x8, addend: 0x0, symName: __ZNSt3__114__split_bufferI4EdgeRNS_9allocatorIS1_EEED1Ev, symObjAddr: 0x15BBC, symBinAddr: 0x1000168FC, symSize: 0x2C }
  - { offset: 0x49F91, size: 0x8, addend: 0x0, symName: __ZNSt3__114__split_bufferI4EdgeRNS_9allocatorIS1_EEEC2EmmS4_, symObjAddr: 0x15BE8, symBinAddr: 0x100016928, symSize: 0xD8 }
  - { offset: 0x4A005, size: 0x8, addend: 0x0, symName: __ZNSt3__117__compressed_pairIP4EdgeRNS_9allocatorIS1_EEEC1B8ne180100IDnS5_EEOT_OT0_, symObjAddr: 0x15CC0, symBinAddr: 0x100016A00, symSize: 0x3C }
  - { offset: 0x4A05D, size: 0x8, addend: 0x0, symName: __ZNSt3__114__split_bufferI4EdgeRNS_9allocatorIS1_EEE7__allocB8ne180100Ev, symObjAddr: 0x15CFC, symBinAddr: 0x100016A3C, symSize: 0x28 }
  - { offset: 0x4A083, size: 0x8, addend: 0x0, symName: __ZNSt3__114__split_bufferI4EdgeRNS_9allocatorIS1_EEE9__end_capB8ne180100Ev, symObjAddr: 0x15D24, symBinAddr: 0x100016A64, symSize: 0x28 }
  - { offset: 0x4A0A9, size: 0x8, addend: 0x0, symName: __ZNSt3__117__compressed_pairIP4EdgeRNS_9allocatorIS1_EEEC2B8ne180100IDnS5_EEOT_OT0_, symObjAddr: 0x15D4C, symBinAddr: 0x100016A8C, symSize: 0x48 }
  - { offset: 0x4A101, size: 0x8, addend: 0x0, symName: __ZNSt3__122__compressed_pair_elemIRNS_9allocatorI4EdgeEELi1ELb0EEC2B8ne180100IS4_vEEOT_, symObjAddr: 0x15D94, symBinAddr: 0x100016AD4, symSize: 0x20 }
  - { offset: 0x4A143, size: 0x8, addend: 0x0, symName: __ZNSt3__117__compressed_pairIP4EdgeRNS_9allocatorIS1_EEE6secondB8ne180100Ev, symObjAddr: 0x15DB4, symBinAddr: 0x100016AF4, symSize: 0x28 }
  - { offset: 0x4A169, size: 0x8, addend: 0x0, symName: __ZNSt3__122__compressed_pair_elemIRNS_9allocatorI4EdgeEELi1ELb0EE5__getB8ne180100Ev, symObjAddr: 0x15DDC, symBinAddr: 0x100016B1C, symSize: 0x18 }
  - { offset: 0x4A18F, size: 0x8, addend: 0x0, symName: __ZNSt3__117__compressed_pairIP4EdgeRNS_9allocatorIS1_EEE5firstB8ne180100Ev, symObjAddr: 0x15DF4, symBinAddr: 0x100016B34, symSize: 0x24 }
  - { offset: 0x4A1B5, size: 0x8, addend: 0x0, symName: __ZNSt3__129_AllocatorDestroyRangeReverseINS_9allocatorI4EdgeEENS_16reverse_iteratorIPS2_EEEC1B8ne180100ERS3_RS6_S9_, symObjAddr: 0x15FBC, symBinAddr: 0x100016CFC, symSize: 0x44 }
  - { offset: 0x4A212, size: 0x8, addend: 0x0, symName: __ZNSt3__116allocator_traitsINS_9allocatorI4EdgeEEE9constructB8ne180100IS2_JS2_EvEEvRS3_PT_DpOT0_, symObjAddr: 0x16000, symBinAddr: 0x100016D40, symSize: 0x34 }
  - { offset: 0x4A269, size: 0x8, addend: 0x0, symName: __ZNSt3__128__exception_guard_exceptionsINS_29_AllocatorDestroyRangeReverseINS_9allocatorI4EdgeEENS_16reverse_iteratorIPS3_EEEEE10__completeB8ne180100Ev, symObjAddr: 0x16034, symBinAddr: 0x100016D74, symSize: 0x1C }
  - { offset: 0x4A28F, size: 0x8, addend: 0x0, symName: __ZNSt3__128__exception_guard_exceptionsINS_29_AllocatorDestroyRangeReverseINS_9allocatorI4EdgeEENS_16reverse_iteratorIPS3_EEEEED1B8ne180100Ev, symObjAddr: 0x16050, symBinAddr: 0x100016D90, symSize: 0x2C }
  - { offset: 0x4A2B9, size: 0x8, addend: 0x0, symName: __ZNSt3__128__exception_guard_exceptionsINS_29_AllocatorDestroyRangeReverseINS_9allocatorI4EdgeEENS_16reverse_iteratorIPS3_EEEEEC1B8ne180100ES8_, symObjAddr: 0x1607C, symBinAddr: 0x100016DBC, symSize: 0x34 }
  - { offset: 0x4A2F2, size: 0x8, addend: 0x0, symName: __ZNSt3__128__exception_guard_exceptionsINS_29_AllocatorDestroyRangeReverseINS_9allocatorI4EdgeEENS_16reverse_iteratorIPS3_EEEEEC2B8ne180100ES8_, symObjAddr: 0x160B0, symBinAddr: 0x100016DF0, symSize: 0x30 }
  - { offset: 0x4A32B, size: 0x8, addend: 0x0, symName: __ZNSt3__129_AllocatorDestroyRangeReverseINS_9allocatorI4EdgeEENS_16reverse_iteratorIPS2_EEEC2B8ne180100ERS3_RS6_S9_, symObjAddr: 0x160E0, symBinAddr: 0x100016E20, symSize: 0x38 }
  - { offset: 0x4A382, size: 0x8, addend: 0x0, symName: __ZNSt3__19allocatorI4EdgeE9constructB8ne180100IS1_JS1_EEEvPT_DpOT0_, symObjAddr: 0x16118, symBinAddr: 0x100016E58, symSize: 0x30 }
  - { offset: 0x4A3D8, size: 0x8, addend: 0x0, symName: __ZN4EdgeC1EOS_, symObjAddr: 0x16148, symBinAddr: 0x100016E88, symSize: 0x34 }
  - { offset: 0x4A40D, size: 0x8, addend: 0x0, symName: __ZN4EdgeC2EOS_, symObjAddr: 0x1617C, symBinAddr: 0x100016EBC, symSize: 0x48 }
  - { offset: 0x4A442, size: 0x8, addend: 0x0, symName: __ZNSt3__128__exception_guard_exceptionsINS_29_AllocatorDestroyRangeReverseINS_9allocatorI4EdgeEENS_16reverse_iteratorIPS3_EEEEED2B8ne180100Ev, symObjAddr: 0x161C4, symBinAddr: 0x100016F04, symSize: 0x50 }
  - { offset: 0x4A46C, size: 0x8, addend: 0x0, symName: __ZNKSt3__129_AllocatorDestroyRangeReverseINS_9allocatorI4EdgeEENS_16reverse_iteratorIPS2_EEEclB8ne180100Ev, symObjAddr: 0x16214, symBinAddr: 0x100016F54, symSize: 0xB0 }
  - { offset: 0x4A493, size: 0x8, addend: 0x0, symName: __ZNSt3__116reverse_iteratorINS0_IP4EdgeEEEC1B8ne180100ES3_, symObjAddr: 0x16334, symBinAddr: 0x100017074, symSize: 0x3C }
  - { offset: 0x4A4CB, size: 0x8, addend: 0x0, symName: __ZNSt3__116reverse_iteratorINS0_IP4EdgeEEEppB8ne180100Ev, symObjAddr: 0x163F0, symBinAddr: 0x100017130, symSize: 0x30 }
  - { offset: 0x4A4F1, size: 0x8, addend: 0x0, symName: __ZNKSt3__116reverse_iteratorINS0_IP4EdgeEEE4baseB8ne180100Ev, symObjAddr: 0x16420, symBinAddr: 0x100017160, symSize: 0x24 }
  - { offset: 0x4A51D, size: 0x8, addend: 0x0, symName: __ZNSt3__119__to_address_helperINS_16reverse_iteratorINS1_IP4EdgeEEEEvE6__callB8ne180100ERKS5_, symObjAddr: 0x16444, symBinAddr: 0x100017184, symSize: 0x38 }
  - { offset: 0x4A540, size: 0x8, addend: 0x0, symName: __ZNKSt3__116reverse_iteratorINS0_IP4EdgeEEEptB8ne180100Ev, symObjAddr: 0x1647C, symBinAddr: 0x1000171BC, symSize: 0x24 }
  - { offset: 0x4A566, size: 0x8, addend: 0x0, symName: __ZNKSt3__116reverse_iteratorINS0_IP4EdgeEEEdeB8ne180100Ev, symObjAddr: 0x164A0, symBinAddr: 0x1000171E0, symSize: 0x34 }
  - { offset: 0x4A59A, size: 0x8, addend: 0x0, symName: __ZNSt3__116reverse_iteratorIP4EdgeEmmB8ne180100Ev, symObjAddr: 0x164D4, symBinAddr: 0x100017214, symSize: 0x20 }
  - { offset: 0x4A5C0, size: 0x8, addend: 0x0, symName: __ZNSt3__116reverse_iteratorINS0_IP4EdgeEEEC2B8ne180100ES3_, symObjAddr: 0x164F4, symBinAddr: 0x100017234, symSize: 0x2C }
  - { offset: 0x4A5F8, size: 0x8, addend: 0x0, symName: __ZNSt3__114__split_bufferI4EdgeRNS_9allocatorIS1_EEED2Ev, symObjAddr: 0x16520, symBinAddr: 0x100017260, symSize: 0x84 }
  - { offset: 0x4A624, size: 0x8, addend: 0x0, symName: __ZNSt3__114__split_bufferI4EdgeRNS_9allocatorIS1_EEE5clearB8ne180100Ev, symObjAddr: 0x165A4, symBinAddr: 0x1000172E4, symSize: 0x28 }
  - { offset: 0x4A64A, size: 0x8, addend: 0x0, symName: __ZNKSt3__114__split_bufferI4EdgeRNS_9allocatorIS1_EEE8capacityB8ne180100Ev, symObjAddr: 0x165CC, symBinAddr: 0x10001730C, symSize: 0x40 }
  - { offset: 0x4A670, size: 0x8, addend: 0x0, symName: __ZNSt3__114__split_bufferI4EdgeRNS_9allocatorIS1_EEE17__destruct_at_endB8ne180100EPS1_, symObjAddr: 0x1660C, symBinAddr: 0x10001734C, symSize: 0x2C }
  - { offset: 0x4A6A4, size: 0x8, addend: 0x0, symName: __ZNSt3__114__split_bufferI4EdgeRNS_9allocatorIS1_EEE17__destruct_at_endB8ne180100EPS1_NS_17integral_constantIbLb0EEE, symObjAddr: 0x16638, symBinAddr: 0x100017378, symSize: 0x7C }
  - { offset: 0x4A6E4, size: 0x8, addend: 0x0, symName: __ZNKSt3__114__split_bufferI4EdgeRNS_9allocatorIS1_EEE9__end_capB8ne180100Ev, symObjAddr: 0x166B4, symBinAddr: 0x1000173F4, symSize: 0x28 }
  - { offset: 0x4A70A, size: 0x8, addend: 0x0, symName: __ZNKSt3__117__compressed_pairIP4EdgeRNS_9allocatorIS1_EEE5firstB8ne180100Ev, symObjAddr: 0x166DC, symBinAddr: 0x10001741C, symSize: 0x24 }
  - { offset: 0x4A730, size: 0x8, addend: 0x0, symName: __ZNSt3__16vectorIdNS_9allocatorIdEEEC2B8ne180100ESt16initializer_listIdE, symObjAddr: 0x16700, symBinAddr: 0x100017440, symSize: 0x11C }
  - { offset: 0x4A780, size: 0x8, addend: 0x0, symName: __ZNKSt16initializer_listIdE4sizeB8ne180100Ev, symObjAddr: 0x1681C, symBinAddr: 0x10001755C, symSize: 0x18 }
  - { offset: 0x4A7A6, size: 0x8, addend: 0x0, symName: __ZNSt3__16vectorIdNS_9allocatorIdEEE18__construct_at_endIPKdS6_EEvT_T0_m, symObjAddr: 0x16834, symBinAddr: 0x100017574, symSize: 0x8C }
  - { offset: 0x4A81A, size: 0x8, addend: 0x0, symName: __ZNKSt16initializer_listIdE5beginB8ne180100Ev, symObjAddr: 0x168C0, symBinAddr: 0x100017600, symSize: 0x18 }
  - { offset: 0x4A840, size: 0x8, addend: 0x0, symName: __ZNKSt16initializer_listIdE3endB8ne180100Ev, symObjAddr: 0x168D8, symBinAddr: 0x100017618, symSize: 0x20 }
  - { offset: 0x4A889, size: 0x8, addend: 0x0, symName: __ZNSt3__14pairIPKdS2_EC1B8ne180100IS2_S2_TnNS_9enable_ifIXclsr10_CheckArgsE17__enable_implicitIT_T0_EEEiE4typeELi0EEEOS6_OS7_, symObjAddr: 0x16A6C, symBinAddr: 0x1000177AC, symSize: 0x3C }
  - { offset: 0x4A8E7, size: 0x8, addend: 0x0, symName: __ZNSt3__14pairIPKdS2_EC2B8ne180100IS2_S2_TnNS_9enable_ifIXclsr10_CheckArgsE17__enable_implicitIT_T0_EEEiE4typeELi0EEEOS6_OS7_, symObjAddr: 0x16AA8, symBinAddr: 0x1000177E8, symSize: 0x34 }
  - { offset: 0x4A945, size: 0x8, addend: 0x0, symName: __ZNSt3__118__unwrap_iter_implIPKdLb1EE8__unwrapB8ne180100ES2_, symObjAddr: 0x16ADC, symBinAddr: 0x10001781C, symSize: 0x24 }
  - { offset: 0x4A985, size: 0x8, addend: 0x0, symName: __ZNKSt3__114__copy_trivialclB8ne180100IKddTnNS_9enable_ifIXsr38__can_lower_copy_assignment_to_memmoveIT_T0_EE5valueEiE4typeELi0EEENS_4pairIPS4_PS5_EES9_S9_SA_, symObjAddr: 0x16C90, symBinAddr: 0x1000179D0, symSize: 0x48 }
  - { offset: 0x4A9F3, size: 0x8, addend: 0x0, symName: __ZNSt3__14pairIPKdPdEC1B8ne180100IRS2_S3_TnNS_9enable_ifIXclsr10_CheckArgsE17__enable_implicitIT_T0_EEEiE4typeELi0EEEOS8_OS9_, symObjAddr: 0x16E54, symBinAddr: 0x100017B94, symSize: 0x3C }
  - { offset: 0x4AA51, size: 0x8, addend: 0x0, symName: __ZNSt3__14pairIPKdPdEC2B8ne180100IRS2_S3_TnNS_9enable_ifIXclsr10_CheckArgsE17__enable_implicitIT_T0_EEEiE4typeELi0EEEOS8_OS9_, symObjAddr: 0x16E90, symBinAddr: 0x100017BD0, symSize: 0x34 }
  - { offset: 0x4AAAF, size: 0x8, addend: 0x0, symName: __ZNSt3__14pairIPKdPdEC1B8ne180100IS2_S3_TnNS_9enable_ifIXclsr10_CheckArgsE17__enable_implicitIT_T0_EEEiE4typeELi0EEEOS7_OS8_, symObjAddr: 0x16EC4, symBinAddr: 0x100017C04, symSize: 0x3C }
  - { offset: 0x4AB0D, size: 0x8, addend: 0x0, symName: __ZNSt3__14pairIPKdPdEC2B8ne180100IS2_S3_TnNS_9enable_ifIXclsr10_CheckArgsE17__enable_implicitIT_T0_EEEiE4typeELi0EEEOS7_OS8_, symObjAddr: 0x16F00, symBinAddr: 0x100017C40, symSize: 0x34 }
  - { offset: 0x4AB6B, size: 0x8, addend: 0x0, symName: __ZNSt3__118__unwrap_iter_implIPKdLb1EE8__rewrapB8ne180100ES2_S2_, symObjAddr: 0x16F70, symBinAddr: 0x100017CB0, symSize: 0x50 }
  - { offset: 0x4AB9C, size: 0x8, addend: 0x0, symName: __ZNSt3__110shared_ptrI4NodeED2B8ne180100Ev, symObjAddr: 0x16FC0, symBinAddr: 0x100017D00, symSize: 0x4C }
  - { offset: 0x4ABC6, size: 0x8, addend: 0x0, symName: __ZNSt3__16vectorIdNS_9allocatorIdEEEC2B8ne180100Ev, symObjAddr: 0x1700C, symBinAddr: 0x100017D4C, symSize: 0x4C }
  - { offset: 0x4ABF0, size: 0x8, addend: 0x0, symName: __ZNSt3__16vectorIdNS_9allocatorIdEEE22__construct_one_at_endB8ne180100IJdEEEvDpOT_, symObjAddr: 0x17058, symBinAddr: 0x100017D98, symSize: 0x90 }
  - { offset: 0x4AC3F, size: 0x8, addend: 0x0, symName: __ZNSt3__16vectorIdNS_9allocatorIdEEE21__push_back_slow_pathIdEEPdOT_, symObjAddr: 0x170E8, symBinAddr: 0x100017E28, symSize: 0xE8 }
  - { offset: 0x4AC9B, size: 0x8, addend: 0x0, symName: __ZNSt3__116allocator_traitsINS_9allocatorIdEEE9constructB8ne180100IdJdEvEEvRS2_PT_DpOT0_, symObjAddr: 0x171D0, symBinAddr: 0x100017F10, symSize: 0x34 }
  - { offset: 0x4ACF2, size: 0x8, addend: 0x0, symName: __ZNSt3__19allocatorIdE9constructB8ne180100IdJdEEEvPT_DpOT0_, symObjAddr: 0x17204, symBinAddr: 0x100017F44, symSize: 0x28 }
  - { offset: 0x4AD48, size: 0x8, addend: 0x0, symName: __ZNKSt3__16vectorIdNS_9allocatorIdEEE11__recommendB8ne180100Em, symObjAddr: 0x1722C, symBinAddr: 0x100017F6C, symSize: 0xAC }
  - { offset: 0x4AD9D, size: 0x8, addend: 0x0, symName: __ZNSt3__114__split_bufferIdRNS_9allocatorIdEEEC1EmmS3_, symObjAddr: 0x172D8, symBinAddr: 0x100018018, symSize: 0x44 }
  - { offset: 0x4ADF3, size: 0x8, addend: 0x0, symName: __ZNSt3__114__split_bufferIdRNS_9allocatorIdEEED1Ev, symObjAddr: 0x1742C, symBinAddr: 0x10001816C, symSize: 0x2C }
  - { offset: 0x4AE1F, size: 0x8, addend: 0x0, symName: __ZNSt3__114__split_bufferIdRNS_9allocatorIdEEEC2EmmS3_, symObjAddr: 0x17458, symBinAddr: 0x100018198, symSize: 0xCC }
  - { offset: 0x4AE93, size: 0x8, addend: 0x0, symName: __ZNSt3__117__compressed_pairIPdRNS_9allocatorIdEEEC1B8ne180100IDnS4_EEOT_OT0_, symObjAddr: 0x17524, symBinAddr: 0x100018264, symSize: 0x3C }
  - { offset: 0x4AEEB, size: 0x8, addend: 0x0, symName: __ZNSt3__114__split_bufferIdRNS_9allocatorIdEEE7__allocB8ne180100Ev, symObjAddr: 0x17560, symBinAddr: 0x1000182A0, symSize: 0x28 }
  - { offset: 0x4AF11, size: 0x8, addend: 0x0, symName: __ZNSt3__114__split_bufferIdRNS_9allocatorIdEEE9__end_capB8ne180100Ev, symObjAddr: 0x17588, symBinAddr: 0x1000182C8, symSize: 0x28 }
  - { offset: 0x4AF37, size: 0x8, addend: 0x0, symName: __ZNSt3__117__compressed_pairIPdRNS_9allocatorIdEEEC2B8ne180100IDnS4_EEOT_OT0_, symObjAddr: 0x175B0, symBinAddr: 0x1000182F0, symSize: 0x48 }
  - { offset: 0x4AF8F, size: 0x8, addend: 0x0, symName: __ZNSt3__122__compressed_pair_elemIRNS_9allocatorIdEELi1ELb0EEC2B8ne180100IS3_vEEOT_, symObjAddr: 0x175F8, symBinAddr: 0x100018338, symSize: 0x20 }
  - { offset: 0x4AFD1, size: 0x8, addend: 0x0, symName: __ZNSt3__117__compressed_pairIPdRNS_9allocatorIdEEE6secondB8ne180100Ev, symObjAddr: 0x17618, symBinAddr: 0x100018358, symSize: 0x28 }
  - { offset: 0x4AFF7, size: 0x8, addend: 0x0, symName: __ZNSt3__122__compressed_pair_elemIRNS_9allocatorIdEELi1ELb0EE5__getB8ne180100Ev, symObjAddr: 0x17640, symBinAddr: 0x100018380, symSize: 0x18 }
  - { offset: 0x4B01D, size: 0x8, addend: 0x0, symName: __ZNSt3__117__compressed_pairIPdRNS_9allocatorIdEEE5firstB8ne180100Ev, symObjAddr: 0x17658, symBinAddr: 0x100018398, symSize: 0x24 }
  - { offset: 0x4B043, size: 0x8, addend: 0x0, symName: __ZNSt3__116reverse_iteratorIPdEC1B8ne180100ES1_, symObjAddr: 0x176F4, symBinAddr: 0x100018434, symSize: 0x34 }
  - { offset: 0x4B07B, size: 0x8, addend: 0x0, symName: __ZNKSt3__116reverse_iteratorIPdE4baseB8ne180100Ev, symObjAddr: 0x17728, symBinAddr: 0x100018468, symSize: 0x18 }
  - { offset: 0x4B0C9, size: 0x8, addend: 0x0, symName: __ZNKSt3__111__move_loopINS_17_ClassicAlgPolicyEEclB8ne180100INS_16reverse_iteratorIPdEES6_S6_EENS_4pairIT_T1_EES8_T0_S9_, symObjAddr: 0x17A6C, symBinAddr: 0x1000187AC, symSize: 0xA0 }
  - { offset: 0x4B13A, size: 0x8, addend: 0x0, symName: __ZNSt3__18_IterOpsINS_17_ClassicAlgPolicyEE11__iter_moveB8ne180100IRNS_16reverse_iteratorIPdEETnNS_9enable_ifIXsr12is_referenceIDTdeclsr3stdE7declvalIRT_EEEEE5valueEiE4typeELi0EEEDTclsr3stdE4movedeclsr3stdE7declvalISA_EEEEOS9_, symObjAddr: 0x17C9C, symBinAddr: 0x1000189DC, symSize: 0x28 }
  - { offset: 0x4B16C, size: 0x8, addend: 0x0, symName: __ZNKSt3__116reverse_iteratorIPdEdeB8ne180100Ev, symObjAddr: 0x17CC4, symBinAddr: 0x100018A04, symSize: 0x28 }
  - { offset: 0x4B1A0, size: 0x8, addend: 0x0, symName: __ZNSt3__116reverse_iteratorIPdEppB8ne180100Ev, symObjAddr: 0x17CEC, symBinAddr: 0x100018A2C, symSize: 0x20 }
  - { offset: 0x4B1C6, size: 0x8, addend: 0x0, symName: __ZNSt3__18_IterOpsINS_17_ClassicAlgPolicyEE25__validate_iter_referenceB8ne180100IRNS_16reverse_iteratorIPdEEEEvv, symObjAddr: 0x17D0C, symBinAddr: 0x100018A4C, symSize: 0x4 }
  - { offset: 0x4B1E4, size: 0x8, addend: 0x0, symName: __ZNSt3__118__unwrap_iter_implINS_16reverse_iteratorIPdEELb0EE8__unwrapB8ne180100ES3_, symObjAddr: 0x17D10, symBinAddr: 0x100018A50, symSize: 0x24 }
  - { offset: 0x4B20D, size: 0x8, addend: 0x0, symName: __ZNSt3__14pairINS_16reverse_iteratorIPdEES3_EC1B8ne180100IS3_S3_TnNS_9enable_ifIXclsr10_CheckArgsE17__enable_implicitIT_T0_EEEiE4typeELi0EEEOS7_OS8_, symObjAddr: 0x17D34, symBinAddr: 0x100018A74, symSize: 0x3C }
  - { offset: 0x4B26B, size: 0x8, addend: 0x0, symName: __ZNSt3__14pairINS_16reverse_iteratorIPdEES3_EC2B8ne180100IS3_S3_TnNS_9enable_ifIXclsr10_CheckArgsE17__enable_implicitIT_T0_EEEiE4typeELi0EEEOS7_OS8_, symObjAddr: 0x17D70, symBinAddr: 0x100018AB0, symSize: 0x34 }
  - { offset: 0x4B2C9, size: 0x8, addend: 0x0, symName: __ZNSt3__118__unwrap_iter_implINS_16reverse_iteratorIPdEELb0EE8__rewrapB8ne180100ES3_S3_, symObjAddr: 0x17DA4, symBinAddr: 0x100018AE4, symSize: 0x2C }
  - { offset: 0x4B2F6, size: 0x8, addend: 0x0, symName: __ZNSt3__116reverse_iteratorIPdEC2B8ne180100ES1_, symObjAddr: 0x17DD0, symBinAddr: 0x100018B10, symSize: 0x28 }
  - { offset: 0x4B32E, size: 0x8, addend: 0x0, symName: __ZNSt3__114__split_bufferIdRNS_9allocatorIdEEED2Ev, symObjAddr: 0x17DF8, symBinAddr: 0x100018B38, symSize: 0x84 }
  - { offset: 0x4B35A, size: 0x8, addend: 0x0, symName: __ZNSt3__114__split_bufferIdRNS_9allocatorIdEEE5clearB8ne180100Ev, symObjAddr: 0x17E7C, symBinAddr: 0x100018BBC, symSize: 0x28 }
  - { offset: 0x4B380, size: 0x8, addend: 0x0, symName: __ZNKSt3__114__split_bufferIdRNS_9allocatorIdEEE8capacityB8ne180100Ev, symObjAddr: 0x17EA4, symBinAddr: 0x100018BE4, symSize: 0x40 }
  - { offset: 0x4B3A6, size: 0x8, addend: 0x0, symName: __ZNSt3__114__split_bufferIdRNS_9allocatorIdEEE17__destruct_at_endB8ne180100EPd, symObjAddr: 0x17EE4, symBinAddr: 0x100018C24, symSize: 0x2C }
  - { offset: 0x4B3DA, size: 0x8, addend: 0x0, symName: __ZNSt3__114__split_bufferIdRNS_9allocatorIdEEE17__destruct_at_endB8ne180100EPdNS_17integral_constantIbLb0EEE, symObjAddr: 0x17F10, symBinAddr: 0x100018C50, symSize: 0x7C }
  - { offset: 0x4B41A, size: 0x8, addend: 0x0, symName: __ZNKSt3__114__split_bufferIdRNS_9allocatorIdEEE9__end_capB8ne180100Ev, symObjAddr: 0x17F8C, symBinAddr: 0x100018CCC, symSize: 0x28 }
  - { offset: 0x4B440, size: 0x8, addend: 0x0, symName: __ZNKSt3__117__compressed_pairIPdRNS_9allocatorIdEEE5firstB8ne180100Ev, symObjAddr: 0x17FB4, symBinAddr: 0x100018CF4, symSize: 0x24 }
  - { offset: 0x4B466, size: 0x8, addend: 0x0, symName: __ZNSt3__16vectorINS_10shared_ptrI4NodeEENS_9allocatorIS3_EEEC2B8ne180100Ev, symObjAddr: 0x17FD8, symBinAddr: 0x100018D18, symSize: 0x4C }
  - { offset: 0x4B490, size: 0x8, addend: 0x0, symName: __ZNSt3__117__compressed_pairIPNS_10shared_ptrI4NodeEENS_9allocatorIS3_EEEC1B8ne180100IDnNS_18__default_init_tagEEEOT_OT0_, symObjAddr: 0x18024, symBinAddr: 0x100018D64, symSize: 0x3C }
  - { offset: 0x4B4E8, size: 0x8, addend: 0x0, symName: __ZNSt3__117__compressed_pairIPNS_10shared_ptrI4NodeEENS_9allocatorIS3_EEEC2B8ne180100IDnNS_18__default_init_tagEEEOT_OT0_, symObjAddr: 0x18060, symBinAddr: 0x100018DA0, symSize: 0x40 }
  - { offset: 0x4B540, size: 0x8, addend: 0x0, symName: __ZNSt3__122__compressed_pair_elemINS_9allocatorINS_10shared_ptrI4NodeEEEELi1ELb1EEC2B8ne180100ENS_18__default_init_tagE, symObjAddr: 0x180A0, symBinAddr: 0x100018DE0, symSize: 0x2C }
  - { offset: 0x4B574, size: 0x8, addend: 0x0, symName: __ZNSt3__19allocatorINS_10shared_ptrI4NodeEEEC2B8ne180100Ev, symObjAddr: 0x180CC, symBinAddr: 0x100018E0C, symSize: 0x2C }
  - { offset: 0x4B59E, size: 0x8, addend: 0x0, symName: __ZNSt3__116__non_trivial_ifILb1ENS_9allocatorINS_10shared_ptrI4NodeEEEEEC2B8ne180100Ev, symObjAddr: 0x180F8, symBinAddr: 0x100018E38, symSize: 0x14 }
  - { offset: 0x4B5C8, size: 0x8, addend: 0x0, symName: __ZNSt3__16vectorINS_10shared_ptrI4NodeEENS_9allocatorIS3_EEED2B8ne180100Ev, symObjAddr: 0x1810C, symBinAddr: 0x100018E4C, symSize: 0x44 }
  - { offset: 0x4B5F2, size: 0x8, addend: 0x0, symName: __ZNSt3__16vectorINS_10shared_ptrI4NodeEENS_9allocatorIS3_EEE16__destroy_vectorC1B8ne180100ERS6_, symObjAddr: 0x18150, symBinAddr: 0x100018E90, symSize: 0x34 }
  - { offset: 0x4B62B, size: 0x8, addend: 0x0, symName: __ZNSt3__16vectorINS_10shared_ptrI4NodeEENS_9allocatorIS3_EEE16__destroy_vectorclB8ne180100Ev, symObjAddr: 0x18184, symBinAddr: 0x100018EC4, symSize: 0x88 }
  - { offset: 0x4B651, size: 0x8, addend: 0x0, symName: __ZNSt3__16vectorINS_10shared_ptrI4NodeEENS_9allocatorIS3_EEE16__destroy_vectorC2B8ne180100ERS6_, symObjAddr: 0x1820C, symBinAddr: 0x100018F4C, symSize: 0x20 }
  - { offset: 0x4B68A, size: 0x8, addend: 0x0, symName: __ZNSt3__16vectorINS_10shared_ptrI4NodeEENS_9allocatorIS3_EEE7__clearB8ne180100Ev, symObjAddr: 0x1822C, symBinAddr: 0x100018F6C, symSize: 0x28 }
  - { offset: 0x4B6B0, size: 0x8, addend: 0x0, symName: __ZNSt3__18functionIFbRKNS_10shared_ptrI4NodeEES5_EED2Ev, symObjAddr: 0x18254, symBinAddr: 0x100018F94, symSize: 0x2C }
  - { offset: 0x4B6DC, size: 0x8, addend: 0x0, symName: __ZNSt3__110__function12__value_funcIFbRKNS_10shared_ptrI4NodeEES6_EED1B8ne180100Ev, symObjAddr: 0x18280, symBinAddr: 0x100018FC0, symSize: 0x2C }
  - { offset: 0x4B706, size: 0x8, addend: 0x0, symName: __ZNSt3__110__function12__value_funcIFbRKNS_10shared_ptrI4NodeEES6_EED2B8ne180100Ev, symObjAddr: 0x182AC, symBinAddr: 0x100018FEC, symSize: 0x84 }
  - { offset: 0x4B730, size: 0x8, addend: 0x0, symName: __ZNSt3__16vectorINS0_IdNS_9allocatorIdEEEENS1_IS3_EEEC2B8ne180100Ev, symObjAddr: 0x18330, symBinAddr: 0x100019070, symSize: 0x4C }
  - { offset: 0x4B75A, size: 0x8, addend: 0x0, symName: __ZNSt3__117__compressed_pairIPNS_6vectorIdNS_9allocatorIdEEEENS2_IS4_EEEC1B8ne180100IDnNS_18__default_init_tagEEEOT_OT0_, symObjAddr: 0x1837C, symBinAddr: 0x1000190BC, symSize: 0x3C }
  - { offset: 0x4B7B2, size: 0x8, addend: 0x0, symName: __ZNSt3__117__compressed_pairIPNS_6vectorIdNS_9allocatorIdEEEENS2_IS4_EEEC2B8ne180100IDnNS_18__default_init_tagEEEOT_OT0_, symObjAddr: 0x183B8, symBinAddr: 0x1000190F8, symSize: 0x40 }
  - { offset: 0x4B80A, size: 0x8, addend: 0x0, symName: __ZNSt3__122__compressed_pair_elemIPNS_6vectorIdNS_9allocatorIdEEEELi0ELb0EEC2B8ne180100IDnvEEOT_, symObjAddr: 0x183F8, symBinAddr: 0x100019138, symSize: 0x1C }
  - { offset: 0x4B84C, size: 0x8, addend: 0x0, symName: __ZNSt3__122__compressed_pair_elemINS_9allocatorINS_6vectorIdNS1_IdEEEEEELi1ELb1EEC2B8ne180100ENS_18__default_init_tagE, symObjAddr: 0x18414, symBinAddr: 0x100019154, symSize: 0x2C }
  - { offset: 0x4B880, size: 0x8, addend: 0x0, symName: __ZNSt3__19allocatorINS_6vectorIdNS0_IdEEEEEC2B8ne180100Ev, symObjAddr: 0x18440, symBinAddr: 0x100019180, symSize: 0x2C }
  - { offset: 0x4B8AA, size: 0x8, addend: 0x0, symName: __ZNSt3__116__non_trivial_ifILb1ENS_9allocatorINS_6vectorIdNS1_IdEEEEEEEC2B8ne180100Ev, symObjAddr: 0x1846C, symBinAddr: 0x1000191AC, symSize: 0x14 }
  - { offset: 0x4B8D4, size: 0x8, addend: 0x0, symName: __ZNSt3__16vectorINS0_IdNS_9allocatorIdEEEENS1_IS3_EEED2B8ne180100Ev, symObjAddr: 0x18480, symBinAddr: 0x1000191C0, symSize: 0x44 }
  - { offset: 0x4B8FE, size: 0x8, addend: 0x0, symName: __ZNSt3__16vectorINS0_IdNS_9allocatorIdEEEENS1_IS3_EEE16__destroy_vectorC1B8ne180100ERS5_, symObjAddr: 0x184C4, symBinAddr: 0x100019204, symSize: 0x34 }
  - { offset: 0x4B937, size: 0x8, addend: 0x0, symName: __ZNSt3__16vectorINS0_IdNS_9allocatorIdEEEENS1_IS3_EEE16__destroy_vectorclB8ne180100Ev, symObjAddr: 0x184F8, symBinAddr: 0x100019238, symSize: 0x88 }
  - { offset: 0x4B95D, size: 0x8, addend: 0x0, symName: __ZNSt3__16vectorINS0_IdNS_9allocatorIdEEEENS1_IS3_EEE16__destroy_vectorC2B8ne180100ERS5_, symObjAddr: 0x18580, symBinAddr: 0x1000192C0, symSize: 0x20 }
  - { offset: 0x4B996, size: 0x8, addend: 0x0, symName: __ZNSt3__16vectorINS0_IdNS_9allocatorIdEEEENS1_IS3_EEE7__clearB8ne180100Ev, symObjAddr: 0x185A0, symBinAddr: 0x1000192E0, symSize: 0x28 }
  - { offset: 0x4B9BC, size: 0x8, addend: 0x0, symName: __ZNKSt3__16vectorINS0_IdNS_9allocatorIdEEEENS1_IS3_EEE17__annotate_deleteB8ne180100Ev, symObjAddr: 0x185C8, symBinAddr: 0x100019308, symSize: 0x10 }
  - { offset: 0x4B9E2, size: 0x8, addend: 0x0, symName: __ZNSt3__116allocator_traitsINS_9allocatorINS_6vectorIdNS1_IdEEEEEEE10deallocateB8ne180100ERS5_PS4_m, symObjAddr: 0x185D8, symBinAddr: 0x100019318, symSize: 0x34 }
  - { offset: 0x4BA24, size: 0x8, addend: 0x0, symName: __ZNSt3__16vectorINS0_IdNS_9allocatorIdEEEENS1_IS3_EEE7__allocB8ne180100Ev, symObjAddr: 0x1860C, symBinAddr: 0x10001934C, symSize: 0x28 }
  - { offset: 0x4BA4A, size: 0x8, addend: 0x0, symName: __ZNKSt3__16vectorINS0_IdNS_9allocatorIdEEEENS1_IS3_EEE8capacityB8ne180100Ev, symObjAddr: 0x18634, symBinAddr: 0x100019374, symSize: 0x40 }
  - { offset: 0x4BA70, size: 0x8, addend: 0x0, symName: __ZNSt3__16vectorINS0_IdNS_9allocatorIdEEEENS1_IS3_EEE22__base_destruct_at_endB8ne180100EPS3_, symObjAddr: 0x18674, symBinAddr: 0x1000193B4, symSize: 0x88 }
  - { offset: 0x4BAB4, size: 0x8, addend: 0x0, symName: __ZNSt3__116allocator_traitsINS_9allocatorINS_6vectorIdNS1_IdEEEEEEE7destroyB8ne180100IS4_vEEvRS5_PT_, symObjAddr: 0x186FC, symBinAddr: 0x10001943C, symSize: 0x2C }
  - { offset: 0x4BAF1, size: 0x8, addend: 0x0, symName: __ZNSt3__19allocatorINS_6vectorIdNS0_IdEEEEE7destroyB8ne180100EPS3_, symObjAddr: 0x1873C, symBinAddr: 0x10001947C, symSize: 0x28 }
  - { offset: 0x4BB25, size: 0x8, addend: 0x0, symName: __ZNSt3__19allocatorINS_6vectorIdNS0_IdEEEEE10deallocateB8ne180100EPS3_m, symObjAddr: 0x18764, symBinAddr: 0x1000194A4, symSize: 0x44 }
  - { offset: 0x4BB67, size: 0x8, addend: 0x0, symName: __ZNSt3__117__compressed_pairIPNS_6vectorIdNS_9allocatorIdEEEENS2_IS4_EEE6secondB8ne180100Ev, symObjAddr: 0x187A8, symBinAddr: 0x1000194E8, symSize: 0x24 }
  - { offset: 0x4BB8D, size: 0x8, addend: 0x0, symName: __ZNSt3__122__compressed_pair_elemINS_9allocatorINS_6vectorIdNS1_IdEEEEEELi1ELb1EE5__getB8ne180100Ev, symObjAddr: 0x187CC, symBinAddr: 0x10001950C, symSize: 0x14 }
  - { offset: 0x4BBB3, size: 0x8, addend: 0x0, symName: __ZNKSt3__16vectorINS0_IdNS_9allocatorIdEEEENS1_IS3_EEE9__end_capB8ne180100Ev, symObjAddr: 0x187E0, symBinAddr: 0x100019520, symSize: 0x28 }
  - { offset: 0x4BBD9, size: 0x8, addend: 0x0, symName: __ZNKSt3__117__compressed_pairIPNS_6vectorIdNS_9allocatorIdEEEENS2_IS4_EEE5firstB8ne180100Ev, symObjAddr: 0x18808, symBinAddr: 0x100019548, symSize: 0x24 }
  - { offset: 0x4BBFF, size: 0x8, addend: 0x0, symName: __ZNKSt3__122__compressed_pair_elemIPNS_6vectorIdNS_9allocatorIdEEEELi0ELb0EE5__getB8ne180100Ev, symObjAddr: 0x1882C, symBinAddr: 0x10001956C, symSize: 0x14 }
  - { offset: 0x4BC25, size: 0x8, addend: 0x0, symName: __ZNSt3__18functionIFbRKNS_10shared_ptrI4NodeEES5_EEC2I18more_than_specificvEET_, symObjAddr: 0x18840, symBinAddr: 0x100019580, symSize: 0x38 }
  - { offset: 0x4BC68, size: 0x8, addend: 0x0, symName: __ZNSt3__110__function12__value_funcIFbRKNS_10shared_ptrI4NodeEES6_EEC1B8ne180100I18more_than_specificTnNS_9enable_ifIXntsr7is_sameIu7__decayIT_ES8_EE5valueEiE4typeELi0EEEOSC_, symObjAddr: 0x18878, symBinAddr: 0x1000195B8, symSize: 0x50 }
  - { offset: 0x4BCB0, size: 0x8, addend: 0x0, symName: __ZNSt3__19allocatorI18more_than_specificEC1B8ne180100Ev, symObjAddr: 0x188C8, symBinAddr: 0x100019608, symSize: 0x2C }
  - { offset: 0x4BCDA, size: 0x8, addend: 0x0, symName: __ZNSt3__110__function12__value_funcIFbRKNS_10shared_ptrI4NodeEES6_EEC1B8ne180100I18more_than_specificNS_9allocatorISA_EEEEOT_RKT0_, symObjAddr: 0x188F4, symBinAddr: 0x100019634, symSize: 0x3C }
  - { offset: 0x4BD34, size: 0x8, addend: 0x0, symName: __ZNSt3__19allocatorI18more_than_specificEC2B8ne180100Ev, symObjAddr: 0x18930, symBinAddr: 0x100019670, symSize: 0x2C }
  - { offset: 0x4BD5E, size: 0x8, addend: 0x0, symName: __ZNSt3__116__non_trivial_ifILb1ENS_9allocatorI18more_than_specificEEEC2B8ne180100Ev, symObjAddr: 0x1895C, symBinAddr: 0x10001969C, symSize: 0x14 }
  - { offset: 0x4BD88, size: 0x8, addend: 0x0, symName: __ZNSt3__110__function12__value_funcIFbRKNS_10shared_ptrI4NodeEES6_EEC2B8ne180100I18more_than_specificNS_9allocatorISA_EEEEOT_RKT0_, symObjAddr: 0x18970, symBinAddr: 0x1000196B0, symSize: 0x94 }
  - { offset: 0x4BE35, size: 0x8, addend: 0x0, symName: __ZNSt3__19allocatorINS_10__function6__funcI18more_than_specificNS0_IS3_EEFbRKNS_10shared_ptrI4NodeEES9_EEEEC1B8ne180100IS3_EERKNS0_IT_EE, symObjAddr: 0x18A1C, symBinAddr: 0x10001975C, symSize: 0x34 }
  - { offset: 0x4BE78, size: 0x8, addend: 0x0, symName: __ZNSt3__19allocatorI18more_than_specificEC1B8ne180100INS_10__function6__funcIS1_S2_FbRKNS_10shared_ptrI4NodeEESA_EEEEERKNS0_IT_EE, symObjAddr: 0x18A50, symBinAddr: 0x100019790, symSize: 0x34 }
  - { offset: 0x4BEB5, size: 0x8, addend: 0x0, symName: __ZNSt3__110__function6__funcI18more_than_specificNS_9allocatorIS2_EEFbRKNS_10shared_ptrI4NodeEES9_EEC1B8ne180100EOS2_OS4_, symObjAddr: 0x18A84, symBinAddr: 0x1000197C4, symSize: 0x3C }
  - { offset: 0x4BEFD, size: 0x8, addend: 0x0, symName: __ZNSt3__19allocatorINS_10__function6__funcI18more_than_specificNS0_IS3_EEFbRKNS_10shared_ptrI4NodeEES9_EEEEC2B8ne180100IS3_EERKNS0_IT_EE, symObjAddr: 0x18AC0, symBinAddr: 0x100019800, symSize: 0x30 }
  - { offset: 0x4BF3A, size: 0x8, addend: 0x0, symName: __ZNSt3__116__non_trivial_ifILb1ENS_9allocatorINS_10__function6__funcI18more_than_specificNS1_IS4_EEFbRKNS_10shared_ptrI4NodeEESA_EEEEEEC2B8ne180100Ev, symObjAddr: 0x18AF0, symBinAddr: 0x100019830, symSize: 0x14 }
  - { offset: 0x4BF64, size: 0x8, addend: 0x0, symName: __ZNSt3__19allocatorI18more_than_specificEC2B8ne180100INS_10__function6__funcIS1_S2_FbRKNS_10shared_ptrI4NodeEESA_EEEEERKNS0_IT_EE, symObjAddr: 0x18B04, symBinAddr: 0x100019844, symSize: 0x30 }
  - { offset: 0x4BFA1, size: 0x8, addend: 0x0, symName: __ZNSt3__110__function6__funcI18more_than_specificNS_9allocatorIS2_EEFbRKNS_10shared_ptrI4NodeEES9_EEC2B8ne180100EOS2_OS4_, symObjAddr: 0x18B34, symBinAddr: 0x100019874, symSize: 0x80 }
  - { offset: 0x4BFE9, size: 0x8, addend: 0x0, symName: __ZNSt3__110__function6__baseIFbRKNS_10shared_ptrI4NodeEES6_EEC2B8ne180100Ev, symObjAddr: 0x18BB4, symBinAddr: 0x1000198F4, symSize: 0x24 }
  - { offset: 0x4C013, size: 0x8, addend: 0x0, symName: __ZNSt3__110__function12__alloc_funcI18more_than_specificNS_9allocatorIS2_EEFbRKNS_10shared_ptrI4NodeEES9_EEC1B8ne180100EOS2_OS4_, symObjAddr: 0x18BD8, symBinAddr: 0x100019918, symSize: 0x3C }
  - { offset: 0x4C059, size: 0x8, addend: 0x0, symName: __ZNSt3__110__function6__baseIFbRKNS_10shared_ptrI4NodeEES6_EED2Ev, symObjAddr: 0x18C14, symBinAddr: 0x100019954, symSize: 0x14 }
  - { offset: 0x4C083, size: 0x8, addend: 0x0, symName: __ZNSt3__110__function6__funcI18more_than_specificNS_9allocatorIS2_EEFbRKNS_10shared_ptrI4NodeEES9_EED1Ev, symObjAddr: 0x18C28, symBinAddr: 0x100019968, symSize: 0x2C }
  - { offset: 0x4C0AF, size: 0x8, addend: 0x0, symName: __ZNSt3__110__function6__funcI18more_than_specificNS_9allocatorIS2_EEFbRKNS_10shared_ptrI4NodeEES9_EED0Ev, symObjAddr: 0x18C54, symBinAddr: 0x100019994, symSize: 0x30 }
  - { offset: 0x4C0DB, size: 0x8, addend: 0x0, symName: __ZNKSt3__110__function6__funcI18more_than_specificNS_9allocatorIS2_EEFbRKNS_10shared_ptrI4NodeEES9_EE7__cloneEv, symObjAddr: 0x18C84, symBinAddr: 0x1000199C4, symSize: 0xFC }
  - { offset: 0x4C12B, size: 0x8, addend: 0x0, symName: __ZNKSt3__110__function6__funcI18more_than_specificNS_9allocatorIS2_EEFbRKNS_10shared_ptrI4NodeEES9_EE7__cloneEPNS0_6__baseISA_EE, symObjAddr: 0x18D80, symBinAddr: 0x100019AC0, symSize: 0x58 }
  - { offset: 0x4C160, size: 0x8, addend: 0x0, symName: __ZNSt3__110__function6__funcI18more_than_specificNS_9allocatorIS2_EEFbRKNS_10shared_ptrI4NodeEES9_EE7destroyEv, symObjAddr: 0x18DD8, symBinAddr: 0x100019B18, symSize: 0x28 }
  - { offset: 0x4C186, size: 0x8, addend: 0x0, symName: __ZNSt3__110__function6__funcI18more_than_specificNS_9allocatorIS2_EEFbRKNS_10shared_ptrI4NodeEES9_EE18destroy_deallocateEv, symObjAddr: 0x18E00, symBinAddr: 0x100019B40, symSize: 0x58 }
  - { offset: 0x4C1C7, size: 0x8, addend: 0x0, symName: __ZNSt3__110__function6__funcI18more_than_specificNS_9allocatorIS2_EEFbRKNS_10shared_ptrI4NodeEES9_EEclES9_S9_, symObjAddr: 0x18E58, symBinAddr: 0x100019B98, symSize: 0x38 }
  - { offset: 0x4C20B, size: 0x8, addend: 0x0, symName: __ZNKSt3__110__function6__funcI18more_than_specificNS_9allocatorIS2_EEFbRKNS_10shared_ptrI4NodeEES9_EE6targetERKSt9type_info, symObjAddr: 0x18E90, symBinAddr: 0x100019BD0, symSize: 0x60 }
  - { offset: 0x4C240, size: 0x8, addend: 0x0, symName: __ZNKSt3__110__function6__funcI18more_than_specificNS_9allocatorIS2_EEFbRKNS_10shared_ptrI4NodeEES9_EE11target_typeEv, symObjAddr: 0x18EF0, symBinAddr: 0x100019C30, symSize: 0x18 }
  - { offset: 0x4C266, size: 0x8, addend: 0x0, symName: __ZNSt3__110__function6__baseIFbRKNS_10shared_ptrI4NodeEES6_EED1Ev, symObjAddr: 0x18F08, symBinAddr: 0x100019C48, symSize: 0x14 }
  - { offset: 0x4C290, size: 0x8, addend: 0x0, symName: __ZNSt3__110__function6__baseIFbRKNS_10shared_ptrI4NodeEES6_EED0Ev, symObjAddr: 0x18F1C, symBinAddr: 0x100019C5C, symSize: 0xC }
  - { offset: 0x4C2BA, size: 0x8, addend: 0x0, symName: __ZNSt3__110__function12__alloc_funcI18more_than_specificNS_9allocatorIS2_EEFbRKNS_10shared_ptrI4NodeEES9_EEC2B8ne180100EOS2_OS4_, symObjAddr: 0x18F28, symBinAddr: 0x100019C68, symSize: 0x5C }
  - { offset: 0x4C300, size: 0x8, addend: 0x0, symName: __ZNSt3__117__compressed_pairI18more_than_specificNS_9allocatorIS1_EEEC1B8ne180100IJOS1_EJOS3_EEENS_21piecewise_construct_tENS_5tupleIJDpT_EEENS9_IJDpT0_EEE, symObjAddr: 0x18FDC, symBinAddr: 0x100019D1C, symSize: 0x3C }
  - { offset: 0x4C36A, size: 0x8, addend: 0x0, symName: __ZNSt3__15tupleIJO18more_than_specificEEC1B8ne180100IJS1_ETnNS_9enable_ifIXsr4_AndINS_17integral_constantIbXeqsZT_sZT_EEENS3_17_EnableUTypesCtorIJDpT_EEEEE5valueEiE4typeELi0EEEDpOS9_, symObjAddr: 0x19018, symBinAddr: 0x100019D58, symSize: 0x34 }
  - { offset: 0x4C3B4, size: 0x8, addend: 0x0, symName: __ZNSt3__15tupleIJO18more_than_specificEEC2B8ne180100IJS1_ETnNS_9enable_ifIXsr4_AndINS_17integral_constantIbXeqsZT_sZT_EEENS3_17_EnableUTypesCtorIJDpT_EEEEE5valueEiE4typeELi0EEEDpOS9_, symObjAddr: 0x1904C, symBinAddr: 0x100019D8C, symSize: 0x34 }
  - { offset: 0x4C3FE, size: 0x8, addend: 0x0, symName: __ZNSt3__112__tuple_implINS_15__tuple_indicesIJLm0EEEEJO18more_than_specificEEC1B8ne180100IJLm0EEJS4_ETpTnmJEJEJS3_EEENS1_IJXspT_EEEENS_13__tuple_typesIJDpT0_EEENS1_IJXspT1_EEEENS8_IJDpT2_EEEDpOT3_, symObjAddr: 0x19080, symBinAddr: 0x100019DC0, symSize: 0x34 }
  - { offset: 0x4C493, size: 0x8, addend: 0x0, symName: __ZNSt3__112__tuple_implINS_15__tuple_indicesIJLm0EEEEJO18more_than_specificEEC2B8ne180100IJLm0EEJS4_ETpTnmJEJEJS3_EEENS1_IJXspT_EEEENS_13__tuple_typesIJDpT0_EEENS1_IJXspT1_EEEENS8_IJDpT2_EEEDpOT3_, symObjAddr: 0x190B4, symBinAddr: 0x100019DF4, symSize: 0x34 }
  - { offset: 0x4C528, size: 0x8, addend: 0x0, symName: __ZNSt3__112__tuple_leafILm0EO18more_than_specificLb0EEC2B8ne180100IS1_vEEOT_, symObjAddr: 0x190E8, symBinAddr: 0x100019E28, symSize: 0x20 }
  - { offset: 0x4C56B, size: 0x8, addend: 0x0, symName: __ZNSt3__15tupleIJONS_9allocatorI18more_than_specificEEEEC1B8ne180100IJS3_ETnNS_9enable_ifIXsr4_AndINS_17integral_constantIbXeqsZT_sZT_EEENS5_17_EnableUTypesCtorIJDpT_EEEEE5valueEiE4typeELi0EEEDpOSB_, symObjAddr: 0x19108, symBinAddr: 0x100019E48, symSize: 0x34 }
  - { offset: 0x4C5B5, size: 0x8, addend: 0x0, symName: __ZNSt3__15tupleIJONS_9allocatorI18more_than_specificEEEEC2B8ne180100IJS3_ETnNS_9enable_ifIXsr4_AndINS_17integral_constantIbXeqsZT_sZT_EEENS5_17_EnableUTypesCtorIJDpT_EEEEE5valueEiE4typeELi0EEEDpOSB_, symObjAddr: 0x1913C, symBinAddr: 0x100019E7C, symSize: 0x34 }
  - { offset: 0x4C5FF, size: 0x8, addend: 0x0, symName: __ZNSt3__112__tuple_implINS_15__tuple_indicesIJLm0EEEEJONS_9allocatorI18more_than_specificEEEEC1B8ne180100IJLm0EEJS6_ETpTnmJEJEJS5_EEENS1_IJXspT_EEEENS_13__tuple_typesIJDpT0_EEENS1_IJXspT1_EEEENSA_IJDpT2_EEEDpOT3_, symObjAddr: 0x19170, symBinAddr: 0x100019EB0, symSize: 0x34 }
  - { offset: 0x4C694, size: 0x8, addend: 0x0, symName: __ZNSt3__112__tuple_implINS_15__tuple_indicesIJLm0EEEEJONS_9allocatorI18more_than_specificEEEEC2B8ne180100IJLm0EEJS6_ETpTnmJEJEJS5_EEENS1_IJXspT_EEEENS_13__tuple_typesIJDpT0_EEENS1_IJXspT1_EEEENSA_IJDpT2_EEEDpOT3_, symObjAddr: 0x191A4, symBinAddr: 0x100019EE4, symSize: 0x34 }
  - { offset: 0x4C729, size: 0x8, addend: 0x0, symName: __ZNSt3__112__tuple_leafILm0EONS_9allocatorI18more_than_specificEELb0EEC2B8ne180100IS3_vEEOT_, symObjAddr: 0x191D8, symBinAddr: 0x100019F18, symSize: 0x20 }
  - { offset: 0x4C76C, size: 0x8, addend: 0x0, symName: __ZNSt3__117__compressed_pairI18more_than_specificNS_9allocatorIS1_EEEC2B8ne180100IJOS1_EJOS3_EEENS_21piecewise_construct_tENS_5tupleIJDpT_EEENS9_IJDpT0_EEE, symObjAddr: 0x191F8, symBinAddr: 0x100019F38, symSize: 0x54 }
  - { offset: 0x4C7D6, size: 0x8, addend: 0x0, symName: __ZNSt3__122__compressed_pair_elemI18more_than_specificLi0ELb0EEC2B8ne180100IJOS1_EJLm0EEEENS_21piecewise_construct_tENS_5tupleIJDpT_EEENS_15__tuple_indicesIJXspT0_EEEE, symObjAddr: 0x1924C, symBinAddr: 0x100019F8C, symSize: 0x44 }
  - { offset: 0x4C839, size: 0x8, addend: 0x0, symName: __ZNSt3__122__compressed_pair_elemINS_9allocatorI18more_than_specificEELi1ELb1EEC2B8ne180100IJOS3_EJLm0EEEENS_21piecewise_construct_tENS_5tupleIJDpT_EEENS_15__tuple_indicesIJXspT0_EEEE, symObjAddr: 0x19290, symBinAddr: 0x100019FD0, symSize: 0x38 }
  - { offset: 0x4C89C, size: 0x8, addend: 0x0, symName: __ZNSt3__112__tuple_leafILm0EO18more_than_specificLb0EE3getB8ne180100Ev, symObjAddr: 0x192EC, symBinAddr: 0x10001A02C, symSize: 0x18 }
  - { offset: 0x4C8C2, size: 0x8, addend: 0x0, symName: __ZNSt3__112__tuple_leafILm0EONS_9allocatorI18more_than_specificEELb0EE3getB8ne180100Ev, symObjAddr: 0x19328, symBinAddr: 0x10001A068, symSize: 0x18 }
  - { offset: 0x4C8E8, size: 0x8, addend: 0x0, symName: __ZNSt3__110__function6__funcI18more_than_specificNS_9allocatorIS2_EEFbRKNS_10shared_ptrI4NodeEES9_EED2Ev, symObjAddr: 0x19340, symBinAddr: 0x10001A080, symSize: 0x2C }
  - { offset: 0x4C914, size: 0x8, addend: 0x0, symName: __ZNKSt3__110__function12__alloc_funcI18more_than_specificNS_9allocatorIS2_EEFbRKNS_10shared_ptrI4NodeEES9_EE15__get_allocatorB8ne180100Ev, symObjAddr: 0x1936C, symBinAddr: 0x10001A0AC, symSize: 0x24 }
  - { offset: 0x4C93A, size: 0x8, addend: 0x0, symName: __ZNSt3__19allocatorINS_10__function6__funcI18more_than_specificNS0_IS3_EEFbRKNS_10shared_ptrI4NodeEES9_EEEE8allocateB8ne180100Em, symObjAddr: 0x19390, symBinAddr: 0x10001A0D0, symSize: 0x54 }
  - { offset: 0x4C980, size: 0x8, addend: 0x0, symName: __ZNSt3__122__allocator_destructorINS_9allocatorINS_10__function6__funcI18more_than_specificNS1_IS4_EEFbRKNS_10shared_ptrI4NodeEESA_EEEEEEC1B8ne180100ERSD_m, symObjAddr: 0x193E4, symBinAddr: 0x10001A124, symSize: 0x3C }
  - { offset: 0x4CA67, size: 0x8, addend: 0x0, symName: __ZNSt3__110unique_ptrINS_10__function6__funcI18more_than_specificNS_9allocatorIS3_EEFbRKNS_10shared_ptrI4NodeEESA_EEENS_22__allocator_destructorINS4_ISC_EEEEEC1B8ne180100ILb1EvEEPSC_NS_16__dependent_typeINS_27__unique_ptr_deleter_sfinaeISF_EEXT_EE20__good_rval_ref_typeE, symObjAddr: 0x19420, symBinAddr: 0x10001A160, symSize: 0x3C }
  - { offset: 0x4CAB8, size: 0x8, addend: 0x0, symName: __ZNKSt3__110unique_ptrINS_10__function6__funcI18more_than_specificNS_9allocatorIS3_EEFbRKNS_10shared_ptrI4NodeEESA_EEENS_22__allocator_destructorINS4_ISC_EEEEE3getB8ne180100Ev, symObjAddr: 0x1945C, symBinAddr: 0x10001A19C, symSize: 0x28 }
  - { offset: 0x4CADE, size: 0x8, addend: 0x0, symName: __ZNKSt3__110__function12__alloc_funcI18more_than_specificNS_9allocatorIS2_EEFbRKNS_10shared_ptrI4NodeEES9_EE8__targetB8ne180100Ev, symObjAddr: 0x19484, symBinAddr: 0x10001A1C4, symSize: 0x24 }
  - { offset: 0x4CB04, size: 0x8, addend: 0x0, symName: __ZNSt3__110__function6__funcI18more_than_specificNS_9allocatorIS2_EEFbRKNS_10shared_ptrI4NodeEES9_EEC1B8ne180100ERKS2_OS4_, symObjAddr: 0x194A8, symBinAddr: 0x10001A1E8, symSize: 0x3C }
  - { offset: 0x4CB4C, size: 0x8, addend: 0x0, symName: __ZNSt3__110unique_ptrINS_10__function6__funcI18more_than_specificNS_9allocatorIS3_EEFbRKNS_10shared_ptrI4NodeEESA_EEENS_22__allocator_destructorINS4_ISC_EEEEE7releaseB8ne180100Ev, symObjAddr: 0x194E4, symBinAddr: 0x10001A224, symSize: 0x44 }
  - { offset: 0x4CB81, size: 0x8, addend: 0x0, symName: __ZNSt3__110unique_ptrINS_10__function6__funcI18more_than_specificNS_9allocatorIS3_EEFbRKNS_10shared_ptrI4NodeEESA_EEENS_22__allocator_destructorINS4_ISC_EEEEED1B8ne180100Ev, symObjAddr: 0x19528, symBinAddr: 0x10001A268, symSize: 0x2C }
  - { offset: 0x4CBAB, size: 0x8, addend: 0x0, symName: __ZNKSt3__117__compressed_pairI18more_than_specificNS_9allocatorIS1_EEE6secondB8ne180100Ev, symObjAddr: 0x19554, symBinAddr: 0x10001A294, symSize: 0x24 }
  - { offset: 0x4CBD1, size: 0x8, addend: 0x0, symName: __ZNKSt3__122__compressed_pair_elemINS_9allocatorI18more_than_specificEELi1ELb1EE5__getB8ne180100Ev, symObjAddr: 0x19578, symBinAddr: 0x10001A2B8, symSize: 0x14 }
  - { offset: 0x4CC02, size: 0x8, addend: 0x0, symName: __ZNSt3__116allocator_traitsINS_9allocatorINS_10__function6__funcI18more_than_specificNS1_IS4_EEFbRKNS_10shared_ptrI4NodeEESA_EEEEEE8max_sizeB8ne180100ISD_vEEmRKSD_, symObjAddr: 0x1958C, symBinAddr: 0x10001A2CC, symSize: 0x24 }
  - { offset: 0x4CC30, size: 0x8, addend: 0x0, symName: __ZNKSt3__19allocatorINS_10__function6__funcI18more_than_specificNS0_IS3_EEFbRKNS_10shared_ptrI4NodeEES9_EEEE8max_sizeB8ne180100Ev, symObjAddr: 0x195B0, symBinAddr: 0x10001A2F0, symSize: 0x14 }
  - { offset: 0x4CC56, size: 0x8, addend: 0x0, symName: __ZNSt3__122__allocator_destructorINS_9allocatorINS_10__function6__funcI18more_than_specificNS1_IS4_EEFbRKNS_10shared_ptrI4NodeEESA_EEEEEEC2B8ne180100ERSD_m, symObjAddr: 0x195C4, symBinAddr: 0x10001A304, symSize: 0x2C }
  - { offset: 0x4CC9C, size: 0x8, addend: 0x0, symName: __ZNSt3__110unique_ptrINS_10__function6__funcI18more_than_specificNS_9allocatorIS3_EEFbRKNS_10shared_ptrI4NodeEESA_EEENS_22__allocator_destructorINS4_ISC_EEEEEC2B8ne180100ILb1EvEEPSC_NS_16__dependent_typeINS_27__unique_ptr_deleter_sfinaeISF_EEXT_EE20__good_rval_ref_typeE, symObjAddr: 0x195F0, symBinAddr: 0x10001A330, symSize: 0x48 }
  - { offset: 0x4CCED, size: 0x8, addend: 0x0, symName: __ZNSt3__117__compressed_pairIPNS_10__function6__funcI18more_than_specificNS_9allocatorIS3_EEFbRKNS_10shared_ptrI4NodeEESA_EEENS_22__allocator_destructorINS4_ISC_EEEEEC1B8ne180100IRSD_SG_EEOT_OT0_, symObjAddr: 0x19638, symBinAddr: 0x10001A378, symSize: 0x3C }
  - { offset: 0x4CD45, size: 0x8, addend: 0x0, symName: __ZNSt3__117__compressed_pairIPNS_10__function6__funcI18more_than_specificNS_9allocatorIS3_EEFbRKNS_10shared_ptrI4NodeEESA_EEENS_22__allocator_destructorINS4_ISC_EEEEEC2B8ne180100IRSD_SG_EEOT_OT0_, symObjAddr: 0x19674, symBinAddr: 0x10001A3B4, symSize: 0x48 }
  - { offset: 0x4CD9D, size: 0x8, addend: 0x0, symName: __ZNSt3__122__compressed_pair_elemIPNS_10__function6__funcI18more_than_specificNS_9allocatorIS3_EEFbRKNS_10shared_ptrI4NodeEESA_EEELi0ELb0EEC2B8ne180100IRSD_vEEOT_, symObjAddr: 0x196BC, symBinAddr: 0x10001A3FC, symSize: 0x24 }
  - { offset: 0x4CDDF, size: 0x8, addend: 0x0, symName: __ZNSt3__122__compressed_pair_elemINS_22__allocator_destructorINS_9allocatorINS_10__function6__funcI18more_than_specificNS2_IS5_EEFbRKNS_10shared_ptrI4NodeEESB_EEEEEEELi1ELb0EEC2B8ne180100ISF_vEEOT_, symObjAddr: 0x196E0, symBinAddr: 0x10001A420, symSize: 0x24 }
  - { offset: 0x4CE21, size: 0x8, addend: 0x0, symName: __ZNKSt3__117__compressed_pairIPNS_10__function6__funcI18more_than_specificNS_9allocatorIS3_EEFbRKNS_10shared_ptrI4NodeEESA_EEENS_22__allocator_destructorINS4_ISC_EEEEE5firstB8ne180100Ev, symObjAddr: 0x19704, symBinAddr: 0x10001A444, symSize: 0x24 }
  - { offset: 0x4CE47, size: 0x8, addend: 0x0, symName: __ZNKSt3__122__compressed_pair_elemIPNS_10__function6__funcI18more_than_specificNS_9allocatorIS3_EEFbRKNS_10shared_ptrI4NodeEESA_EEELi0ELb0EE5__getB8ne180100Ev, symObjAddr: 0x19728, symBinAddr: 0x10001A468, symSize: 0x14 }
  - { offset: 0x4CE6D, size: 0x8, addend: 0x0, symName: __ZNKSt3__117__compressed_pairI18more_than_specificNS_9allocatorIS1_EEE5firstB8ne180100Ev, symObjAddr: 0x1973C, symBinAddr: 0x10001A47C, symSize: 0x24 }
  - { offset: 0x4CE93, size: 0x8, addend: 0x0, symName: __ZNKSt3__122__compressed_pair_elemI18more_than_specificLi0ELb0EE5__getB8ne180100Ev, symObjAddr: 0x19760, symBinAddr: 0x10001A4A0, symSize: 0x14 }
  - { offset: 0x4CEB9, size: 0x8, addend: 0x0, symName: __ZNSt3__110__function6__funcI18more_than_specificNS_9allocatorIS2_EEFbRKNS_10shared_ptrI4NodeEES9_EEC2B8ne180100ERKS2_OS4_, symObjAddr: 0x19774, symBinAddr: 0x10001A4B4, symSize: 0x80 }
  - { offset: 0x4CF01, size: 0x8, addend: 0x0, symName: __ZNSt3__110__function12__alloc_funcI18more_than_specificNS_9allocatorIS2_EEFbRKNS_10shared_ptrI4NodeEES9_EEC1B8ne180100ERKS2_OS4_, symObjAddr: 0x197F4, symBinAddr: 0x10001A534, symSize: 0x3C }
  - { offset: 0x4CF47, size: 0x8, addend: 0x0, symName: __ZNSt3__110__function12__alloc_funcI18more_than_specificNS_9allocatorIS2_EEFbRKNS_10shared_ptrI4NodeEES9_EEC2B8ne180100ERKS2_OS4_, symObjAddr: 0x19830, symBinAddr: 0x10001A570, symSize: 0x5C }
  - { offset: 0x4CF8D, size: 0x8, addend: 0x0, symName: __ZNSt3__117__compressed_pairI18more_than_specificNS_9allocatorIS1_EEEC1B8ne180100IJRKS1_EJOS3_EEENS_21piecewise_construct_tENS_5tupleIJDpT_EEENSA_IJDpT0_EEE, symObjAddr: 0x198B8, symBinAddr: 0x10001A5F8, symSize: 0x3C }
  - { offset: 0x4CFF7, size: 0x8, addend: 0x0, symName: __ZNSt3__15tupleIJRK18more_than_specificEEC1B8ne180100INS_4_AndETnNS_9enable_ifIXsrT_IJNS_17integral_constantIbLb1EEENS_21is_copy_constructibleIS3_EEEE5valueEiE4typeELi0EEES3_, symObjAddr: 0x198F4, symBinAddr: 0x10001A634, symSize: 0x34 }
  - { offset: 0x4D03F, size: 0x8, addend: 0x0, symName: __ZNSt3__15tupleIJRK18more_than_specificEEC2B8ne180100INS_4_AndETnNS_9enable_ifIXsrT_IJNS_17integral_constantIbLb1EEENS_21is_copy_constructibleIS3_EEEE5valueEiE4typeELi0EEES3_, symObjAddr: 0x19928, symBinAddr: 0x10001A668, symSize: 0x34 }
  - { offset: 0x4D087, size: 0x8, addend: 0x0, symName: __ZNSt3__112__tuple_implINS_15__tuple_indicesIJLm0EEEEJRK18more_than_specificEEC1B8ne180100IJLm0EEJS5_ETpTnmJEJEJS5_EEENS1_IJXspT_EEEENS_13__tuple_typesIJDpT0_EEENS1_IJXspT1_EEEENS9_IJDpT2_EEEDpOT3_, symObjAddr: 0x1995C, symBinAddr: 0x10001A69C, symSize: 0x34 }
  - { offset: 0x4D11C, size: 0x8, addend: 0x0, symName: __ZNSt3__112__tuple_implINS_15__tuple_indicesIJLm0EEEEJRK18more_than_specificEEC2B8ne180100IJLm0EEJS5_ETpTnmJEJEJS5_EEENS1_IJXspT_EEEENS_13__tuple_typesIJDpT0_EEENS1_IJXspT1_EEEENS9_IJDpT2_EEEDpOT3_, symObjAddr: 0x19990, symBinAddr: 0x10001A6D0, symSize: 0x34 }
  - { offset: 0x4D1B1, size: 0x8, addend: 0x0, symName: __ZNSt3__112__tuple_leafILm0ERK18more_than_specificLb0EEC2B8ne180100IS3_vEEOT_, symObjAddr: 0x199C4, symBinAddr: 0x10001A704, symSize: 0x20 }
  - { offset: 0x4D1F4, size: 0x8, addend: 0x0, symName: __ZNSt3__117__compressed_pairI18more_than_specificNS_9allocatorIS1_EEEC2B8ne180100IJRKS1_EJOS3_EEENS_21piecewise_construct_tENS_5tupleIJDpT_EEENSA_IJDpT0_EEE, symObjAddr: 0x199E4, symBinAddr: 0x10001A724, symSize: 0x54 }
  - { offset: 0x4D25E, size: 0x8, addend: 0x0, symName: __ZNSt3__122__compressed_pair_elemI18more_than_specificLi0ELb0EEC2B8ne180100IJRKS1_EJLm0EEEENS_21piecewise_construct_tENS_5tupleIJDpT_EEENS_15__tuple_indicesIJXspT0_EEEE, symObjAddr: 0x19A38, symBinAddr: 0x10001A778, symSize: 0x44 }
  - { offset: 0x4D2C1, size: 0x8, addend: 0x0, symName: __ZNSt3__112__tuple_leafILm0ERK18more_than_specificLb0EE3getB8ne180100Ev, symObjAddr: 0x19AA0, symBinAddr: 0x10001A7E0, symSize: 0x18 }
  - { offset: 0x4D2E7, size: 0x8, addend: 0x0, symName: __ZNSt3__117__compressed_pairIPNS_10__function6__funcI18more_than_specificNS_9allocatorIS3_EEFbRKNS_10shared_ptrI4NodeEESA_EEENS_22__allocator_destructorINS4_ISC_EEEEE5firstB8ne180100Ev, symObjAddr: 0x19AB8, symBinAddr: 0x10001A7F8, symSize: 0x24 }
  - { offset: 0x4D30D, size: 0x8, addend: 0x0, symName: __ZNSt3__122__compressed_pair_elemIPNS_10__function6__funcI18more_than_specificNS_9allocatorIS3_EEFbRKNS_10shared_ptrI4NodeEESA_EEELi0ELb0EE5__getB8ne180100Ev, symObjAddr: 0x19ADC, symBinAddr: 0x10001A81C, symSize: 0x14 }
  - { offset: 0x4D333, size: 0x8, addend: 0x0, symName: __ZNSt3__110unique_ptrINS_10__function6__funcI18more_than_specificNS_9allocatorIS3_EEFbRKNS_10shared_ptrI4NodeEESA_EEENS_22__allocator_destructorINS4_ISC_EEEEED2B8ne180100Ev, symObjAddr: 0x19AF0, symBinAddr: 0x10001A830, symSize: 0x30 }
  - { offset: 0x4D35D, size: 0x8, addend: 0x0, symName: __ZNSt3__110unique_ptrINS_10__function6__funcI18more_than_specificNS_9allocatorIS3_EEFbRKNS_10shared_ptrI4NodeEESA_EEENS_22__allocator_destructorINS4_ISC_EEEEE5resetB8ne180100EPSC_, symObjAddr: 0x19B20, symBinAddr: 0x10001A860, symSize: 0x70 }
  - { offset: 0x4D3A1, size: 0x8, addend: 0x0, symName: __ZNSt3__117__compressed_pairIPNS_10__function6__funcI18more_than_specificNS_9allocatorIS3_EEFbRKNS_10shared_ptrI4NodeEESA_EEENS_22__allocator_destructorINS4_ISC_EEEEE6secondB8ne180100Ev, symObjAddr: 0x19B90, symBinAddr: 0x10001A8D0, symSize: 0x28 }
  - { offset: 0x4D3C7, size: 0x8, addend: 0x0, symName: __ZNSt3__122__allocator_destructorINS_9allocatorINS_10__function6__funcI18more_than_specificNS1_IS4_EEFbRKNS_10shared_ptrI4NodeEESA_EEEEEEclB8ne180100EPSC_, symObjAddr: 0x19BB8, symBinAddr: 0x10001A8F8, symSize: 0x34 }
  - { offset: 0x4D3FB, size: 0x8, addend: 0x0, symName: __ZNSt3__122__compressed_pair_elemINS_22__allocator_destructorINS_9allocatorINS_10__function6__funcI18more_than_specificNS2_IS5_EEFbRKNS_10shared_ptrI4NodeEESB_EEEEEEELi1ELb0EE5__getB8ne180100Ev, symObjAddr: 0x19BEC, symBinAddr: 0x10001A92C, symSize: 0x14 }
  - { offset: 0x4D421, size: 0x8, addend: 0x0, symName: __ZNSt3__116allocator_traitsINS_9allocatorINS_10__function6__funcI18more_than_specificNS1_IS4_EEFbRKNS_10shared_ptrI4NodeEESA_EEEEEE10deallocateB8ne180100ERSD_PSC_m, symObjAddr: 0x19C00, symBinAddr: 0x10001A940, symSize: 0x34 }
  - { offset: 0x4D463, size: 0x8, addend: 0x0, symName: __ZNSt3__19allocatorINS_10__function6__funcI18more_than_specificNS0_IS3_EEFbRKNS_10shared_ptrI4NodeEES9_EEEE10deallocateB8ne180100EPSB_m, symObjAddr: 0x19C34, symBinAddr: 0x10001A974, symSize: 0x40 }
  - { offset: 0x4D4A5, size: 0x8, addend: 0x0, symName: __ZNSt3__110__function6__funcI18more_than_specificNS_9allocatorIS2_EEFbRKNS_10shared_ptrI4NodeEES9_EEC1B8ne180100ERKS2_RKS4_, symObjAddr: 0x19C74, symBinAddr: 0x10001A9B4, symSize: 0x3C }
  - { offset: 0x4D4ED, size: 0x8, addend: 0x0, symName: __ZNSt3__110__function6__funcI18more_than_specificNS_9allocatorIS2_EEFbRKNS_10shared_ptrI4NodeEES9_EEC2B8ne180100ERKS2_RKS4_, symObjAddr: 0x19CB0, symBinAddr: 0x10001A9F0, symSize: 0x80 }
  - { offset: 0x4D535, size: 0x8, addend: 0x0, symName: __ZNSt3__110__function12__alloc_funcI18more_than_specificNS_9allocatorIS2_EEFbRKNS_10shared_ptrI4NodeEES9_EEC1B8ne180100ERKS2_RKS4_, symObjAddr: 0x19D30, symBinAddr: 0x10001AA70, symSize: 0x3C }
  - { offset: 0x4D57B, size: 0x8, addend: 0x0, symName: __ZNSt3__110__function12__alloc_funcI18more_than_specificNS_9allocatorIS2_EEFbRKNS_10shared_ptrI4NodeEES9_EEC2B8ne180100ERKS2_RKS4_, symObjAddr: 0x19D6C, symBinAddr: 0x10001AAAC, symSize: 0x5C }
  - { offset: 0x4D5C1, size: 0x8, addend: 0x0, symName: __ZNSt3__117__compressed_pairI18more_than_specificNS_9allocatorIS1_EEEC1B8ne180100IJRKS1_EJRKS3_EEENS_21piecewise_construct_tENS_5tupleIJDpT_EEENSB_IJDpT0_EEE, symObjAddr: 0x19DF4, symBinAddr: 0x10001AB34, symSize: 0x3C }
  - { offset: 0x4D62B, size: 0x8, addend: 0x0, symName: __ZNSt3__15tupleIJRKNS_9allocatorI18more_than_specificEEEEC1B8ne180100INS_4_AndETnNS_9enable_ifIXsrT_IJNS_17integral_constantIbLb1EEENS_21is_copy_constructibleIS5_EEEE5valueEiE4typeELi0EEES5_, symObjAddr: 0x19E30, symBinAddr: 0x10001AB70, symSize: 0x34 }
  - { offset: 0x4D673, size: 0x8, addend: 0x0, symName: __ZNSt3__15tupleIJRKNS_9allocatorI18more_than_specificEEEEC2B8ne180100INS_4_AndETnNS_9enable_ifIXsrT_IJNS_17integral_constantIbLb1EEENS_21is_copy_constructibleIS5_EEEE5valueEiE4typeELi0EEES5_, symObjAddr: 0x19E64, symBinAddr: 0x10001ABA4, symSize: 0x34 }
  - { offset: 0x4D6BB, size: 0x8, addend: 0x0, symName: __ZNSt3__112__tuple_implINS_15__tuple_indicesIJLm0EEEEJRKNS_9allocatorI18more_than_specificEEEEC1B8ne180100IJLm0EEJS7_ETpTnmJEJEJS7_EEENS1_IJXspT_EEEENS_13__tuple_typesIJDpT0_EEENS1_IJXspT1_EEEENSB_IJDpT2_EEEDpOT3_, symObjAddr: 0x19E98, symBinAddr: 0x10001ABD8, symSize: 0x34 }
  - { offset: 0x4D750, size: 0x8, addend: 0x0, symName: __ZNSt3__112__tuple_implINS_15__tuple_indicesIJLm0EEEEJRKNS_9allocatorI18more_than_specificEEEEC2B8ne180100IJLm0EEJS7_ETpTnmJEJEJS7_EEENS1_IJXspT_EEEENS_13__tuple_typesIJDpT0_EEENS1_IJXspT1_EEEENSB_IJDpT2_EEEDpOT3_, symObjAddr: 0x19ECC, symBinAddr: 0x10001AC0C, symSize: 0x34 }
  - { offset: 0x4D7E5, size: 0x8, addend: 0x0, symName: __ZNSt3__112__tuple_leafILm0ERKNS_9allocatorI18more_than_specificEELb0EEC2B8ne180100IS5_vEEOT_, symObjAddr: 0x19F00, symBinAddr: 0x10001AC40, symSize: 0x20 }
  - { offset: 0x4D828, size: 0x8, addend: 0x0, symName: __ZNSt3__117__compressed_pairI18more_than_specificNS_9allocatorIS1_EEEC2B8ne180100IJRKS1_EJRKS3_EEENS_21piecewise_construct_tENS_5tupleIJDpT_EEENSB_IJDpT0_EEE, symObjAddr: 0x19F20, symBinAddr: 0x10001AC60, symSize: 0x54 }
  - { offset: 0x4D892, size: 0x8, addend: 0x0, symName: __ZNSt3__122__compressed_pair_elemINS_9allocatorI18more_than_specificEELi1ELb1EEC2B8ne180100IJRKS3_EJLm0EEEENS_21piecewise_construct_tENS_5tupleIJDpT_EEENS_15__tuple_indicesIJXspT0_EEEE, symObjAddr: 0x19F74, symBinAddr: 0x10001ACB4, symSize: 0x38 }
  - { offset: 0x4D8F5, size: 0x8, addend: 0x0, symName: __ZNSt3__112__tuple_leafILm0ERKNS_9allocatorI18more_than_specificEELb0EE3getB8ne180100Ev, symObjAddr: 0x19FD0, symBinAddr: 0x10001AD10, symSize: 0x18 }
  - { offset: 0x4D91B, size: 0x8, addend: 0x0, symName: __ZNSt3__110__function12__alloc_funcI18more_than_specificNS_9allocatorIS2_EEFbRKNS_10shared_ptrI4NodeEES9_EE7destroyB8ne180100Ev, symObjAddr: 0x19FE8, symBinAddr: 0x10001AD28, symSize: 0x10 }
  - { offset: 0x4D941, size: 0x8, addend: 0x0, symName: __ZNSt3__110__function12__alloc_funcI18more_than_specificNS_9allocatorIS2_EEFbRKNS_10shared_ptrI4NodeEES9_EEclB8ne180100ES9_S9_, symObjAddr: 0x19FF8, symBinAddr: 0x10001AD38, symSize: 0x38 }
  - { offset: 0x4D983, size: 0x8, addend: 0x0, symName: __ZNSt3__128__invoke_void_return_wrapperIbLb0EE6__callB8ne180100IJR18more_than_specificRKNS_10shared_ptrI4NodeEES9_EEEbDpOT_, symObjAddr: 0x1A030, symBinAddr: 0x10001AD70, symSize: 0x34 }
  - { offset: 0x4D9DA, size: 0x8, addend: 0x0, symName: __ZNSt3__117__compressed_pairI18more_than_specificNS_9allocatorIS1_EEE5firstB8ne180100Ev, symObjAddr: 0x1A064, symBinAddr: 0x10001ADA4, symSize: 0x24 }
  - { offset: 0x4DA00, size: 0x8, addend: 0x0, symName: __ZNK18more_than_specificclERKNSt3__110shared_ptrI4NodeEES5_, symObjAddr: 0x1A0BC, symBinAddr: 0x10001ADFC, symSize: 0x74 }
  - { offset: 0x4DA44, size: 0x8, addend: 0x0, symName: __ZNSt3__122__compressed_pair_elemI18more_than_specificLi0ELb0EE5__getB8ne180100Ev, symObjAddr: 0x1A130, symBinAddr: 0x10001AE70, symSize: 0x14 }
  - { offset: 0x4DA9E, size: 0x8, addend: 0x0, symName: __ZNKSt9type_infoeqB8ne180100ERKS_, symObjAddr: 0x1A144, symBinAddr: 0x10001AE84, symSize: 0xD4 }
  - { offset: 0x4DB3A, size: 0x8, addend: 0x0, symName: __ZNSt27__type_info_implementations30__non_unique_arm_rtti_bit_impl21__is_type_name_uniqueB8ne180100Em, symObjAddr: 0x1A218, symBinAddr: 0x10001AF58, symSize: 0x1C }
  - { offset: 0x4DB5E, size: 0x8, addend: 0x0, symName: __ZNSt3__16vectorINS0_IdNS_9allocatorIdEEEENS1_IS3_EEE9__end_capB8ne180100Ev, symObjAddr: 0x1A234, symBinAddr: 0x10001AF74, symSize: 0x28 }
  - { offset: 0x4DB84, size: 0x8, addend: 0x0, symName: __ZNSt3__16vectorINS0_IdNS_9allocatorIdEEEENS1_IS3_EEE22__construct_one_at_endB8ne180100IJRKS3_EEEvDpOT_, symObjAddr: 0x1A25C, symBinAddr: 0x10001AF9C, symSize: 0x90 }
  - { offset: 0x4DBD3, size: 0x8, addend: 0x0, symName: __ZNSt3__16vectorINS0_IdNS_9allocatorIdEEEENS1_IS3_EEE21__push_back_slow_pathIRKS3_EEPS3_OT_, symObjAddr: 0x1A2EC, symBinAddr: 0x10001B02C, symSize: 0xE8 }
  - { offset: 0x4DC2F, size: 0x8, addend: 0x0, symName: __ZNSt3__117__compressed_pairIPNS_6vectorIdNS_9allocatorIdEEEENS2_IS4_EEE5firstB8ne180100Ev, symObjAddr: 0x1A3D4, symBinAddr: 0x10001B114, symSize: 0x24 }
  - { offset: 0x4DC55, size: 0x8, addend: 0x0, symName: __ZNSt3__122__compressed_pair_elemIPNS_6vectorIdNS_9allocatorIdEEEELi0ELb0EE5__getB8ne180100Ev, symObjAddr: 0x1A3F8, symBinAddr: 0x10001B138, symSize: 0x14 }
  - { offset: 0x4DC97, size: 0x8, addend: 0x0, symName: __ZNSt3__16vectorINS0_IdNS_9allocatorIdEEEENS1_IS3_EEE21_ConstructTransactionC1B8ne180100ERS5_m, symObjAddr: 0x1A40C, symBinAddr: 0x10001B14C, symSize: 0x3C }
  - { offset: 0x4DCDF, size: 0x8, addend: 0x0, symName: __ZNSt3__116allocator_traitsINS_9allocatorINS_6vectorIdNS1_IdEEEEEEE9constructB8ne180100IS4_JRKS4_EvEEvRS5_PT_DpOT0_, symObjAddr: 0x1A448, symBinAddr: 0x10001B188, symSize: 0x34 }
  - { offset: 0x4DD36, size: 0x8, addend: 0x0, symName: __ZNSt3__16vectorINS0_IdNS_9allocatorIdEEEENS1_IS3_EEE21_ConstructTransactionD1B8ne180100Ev, symObjAddr: 0x1A47C, symBinAddr: 0x10001B1BC, symSize: 0x2C }
  - { offset: 0x4DD60, size: 0x8, addend: 0x0, symName: __ZNSt3__16vectorINS0_IdNS_9allocatorIdEEEENS1_IS3_EEE21_ConstructTransactionC2B8ne180100ERS5_m, symObjAddr: 0x1A4A8, symBinAddr: 0x10001B1E8, symSize: 0x4C }
  - { offset: 0x4DDA8, size: 0x8, addend: 0x0, symName: __ZNSt3__19allocatorINS_6vectorIdNS0_IdEEEEE9constructB8ne180100IS3_JRKS3_EEEvPT_DpOT0_, symObjAddr: 0x1A4F4, symBinAddr: 0x10001B234, symSize: 0x30 }
  - { offset: 0x4DDFE, size: 0x8, addend: 0x0, symName: __ZNSt3__16vectorINS0_IdNS_9allocatorIdEEEENS1_IS3_EEE21_ConstructTransactionD2B8ne180100Ev, symObjAddr: 0x1A524, symBinAddr: 0x10001B264, symSize: 0x20 }
  - { offset: 0x4DE28, size: 0x8, addend: 0x0, symName: __ZNKSt3__16vectorINS0_IdNS_9allocatorIdEEEENS1_IS3_EEE11__recommendB8ne180100Em, symObjAddr: 0x1A544, symBinAddr: 0x10001B284, symSize: 0xAC }
  - { offset: 0x4DE7D, size: 0x8, addend: 0x0, symName: __ZNSt3__114__split_bufferINS_6vectorIdNS_9allocatorIdEEEERNS2_IS4_EEEC1EmmS6_, symObjAddr: 0x1A5F0, symBinAddr: 0x10001B330, symSize: 0x44 }
  - { offset: 0x4DED3, size: 0x8, addend: 0x0, symName: __ZNSt3__114__split_bufferINS_6vectorIdNS_9allocatorIdEEEERNS2_IS4_EEED1Ev, symObjAddr: 0x1A744, symBinAddr: 0x10001B484, symSize: 0x2C }
  - { offset: 0x4DEFF, size: 0x8, addend: 0x0, symName: __ZNKSt3__16vectorINS0_IdNS_9allocatorIdEEEENS1_IS3_EEE8max_sizeEv, symObjAddr: 0x1A770, symBinAddr: 0x10001B4B0, symSize: 0x60 }
  - { offset: 0x4DF27, size: 0x8, addend: 0x0, symName: __ZNKSt3__16vectorINS0_IdNS_9allocatorIdEEEENS1_IS3_EEE20__throw_length_errorB8ne180100Ev, symObjAddr: 0x1A7D0, symBinAddr: 0x10001B510, symSize: 0x1C }
  - { offset: 0x4DF58, size: 0x8, addend: 0x0, symName: __ZNSt3__116allocator_traitsINS_9allocatorINS_6vectorIdNS1_IdEEEEEEE8max_sizeB8ne180100IS5_vEEmRKS5_, symObjAddr: 0x1A7EC, symBinAddr: 0x10001B52C, symSize: 0x24 }
  - { offset: 0x4DF86, size: 0x8, addend: 0x0, symName: __ZNKSt3__16vectorINS0_IdNS_9allocatorIdEEEENS1_IS3_EEE7__allocB8ne180100Ev, symObjAddr: 0x1A810, symBinAddr: 0x10001B550, symSize: 0x28 }
  - { offset: 0x4DFAC, size: 0x8, addend: 0x0, symName: __ZNKSt3__19allocatorINS_6vectorIdNS0_IdEEEEE8max_sizeB8ne180100Ev, symObjAddr: 0x1A838, symBinAddr: 0x10001B578, symSize: 0x18 }
  - { offset: 0x4DFD2, size: 0x8, addend: 0x0, symName: __ZNKSt3__117__compressed_pairIPNS_6vectorIdNS_9allocatorIdEEEENS2_IS4_EEE6secondB8ne180100Ev, symObjAddr: 0x1A850, symBinAddr: 0x10001B590, symSize: 0x24 }
  - { offset: 0x4DFF8, size: 0x8, addend: 0x0, symName: __ZNKSt3__122__compressed_pair_elemINS_9allocatorINS_6vectorIdNS1_IdEEEEEELi1ELb1EE5__getB8ne180100Ev, symObjAddr: 0x1A874, symBinAddr: 0x10001B5B4, symSize: 0x14 }
  - { offset: 0x4E01E, size: 0x8, addend: 0x0, symName: __ZNSt3__114__split_bufferINS_6vectorIdNS_9allocatorIdEEEERNS2_IS4_EEEC2EmmS6_, symObjAddr: 0x1A888, symBinAddr: 0x10001B5C8, symSize: 0xD8 }
  - { offset: 0x4E092, size: 0x8, addend: 0x0, symName: __ZNSt3__117__compressed_pairIPNS_6vectorIdNS_9allocatorIdEEEERNS2_IS4_EEEC1B8ne180100IDnS7_EEOT_OT0_, symObjAddr: 0x1A960, symBinAddr: 0x10001B6A0, symSize: 0x3C }
  - { offset: 0x4E0EA, size: 0x8, addend: 0x0, symName: __ZNSt3__114__split_bufferINS_6vectorIdNS_9allocatorIdEEEERNS2_IS4_EEE7__allocB8ne180100Ev, symObjAddr: 0x1A9DC, symBinAddr: 0x10001B71C, symSize: 0x28 }
  - { offset: 0x4E110, size: 0x8, addend: 0x0, symName: __ZNSt3__114__split_bufferINS_6vectorIdNS_9allocatorIdEEEERNS2_IS4_EEE9__end_capB8ne180100Ev, symObjAddr: 0x1AA04, symBinAddr: 0x10001B744, symSize: 0x28 }
  - { offset: 0x4E136, size: 0x8, addend: 0x0, symName: __ZNSt3__117__compressed_pairIPNS_6vectorIdNS_9allocatorIdEEEERNS2_IS4_EEEC2B8ne180100IDnS7_EEOT_OT0_, symObjAddr: 0x1AA2C, symBinAddr: 0x10001B76C, symSize: 0x48 }
  - { offset: 0x4E18E, size: 0x8, addend: 0x0, symName: __ZNSt3__122__compressed_pair_elemIRNS_9allocatorINS_6vectorIdNS1_IdEEEEEELi1ELb0EEC2B8ne180100IS6_vEEOT_, symObjAddr: 0x1AA74, symBinAddr: 0x10001B7B4, symSize: 0x20 }
  - { offset: 0x4E1D0, size: 0x8, addend: 0x0, symName: __ZNSt3__19allocatorINS_6vectorIdNS0_IdEEEEE8allocateB8ne180100Em, symObjAddr: 0x1AA94, symBinAddr: 0x10001B7D4, symSize: 0x58 }
  - { offset: 0x4E204, size: 0x8, addend: 0x0, symName: __ZNSt3__117__compressed_pairIPNS_6vectorIdNS_9allocatorIdEEEERNS2_IS4_EEE6secondB8ne180100Ev, symObjAddr: 0x1AAEC, symBinAddr: 0x10001B82C, symSize: 0x28 }
  - { offset: 0x4E22A, size: 0x8, addend: 0x0, symName: __ZNSt3__122__compressed_pair_elemIRNS_9allocatorINS_6vectorIdNS1_IdEEEEEELi1ELb0EE5__getB8ne180100Ev, symObjAddr: 0x1AB14, symBinAddr: 0x10001B854, symSize: 0x18 }
  - { offset: 0x4E250, size: 0x8, addend: 0x0, symName: __ZNSt3__117__compressed_pairIPNS_6vectorIdNS_9allocatorIdEEEERNS2_IS4_EEE5firstB8ne180100Ev, symObjAddr: 0x1AB2C, symBinAddr: 0x10001B86C, symSize: 0x24 }
  - { offset: 0x4E276, size: 0x8, addend: 0x0, symName: __ZNSt3__116reverse_iteratorIPNS_6vectorIdNS_9allocatorIdEEEEEC1B8ne180100ES5_, symObjAddr: 0x1AC7C, symBinAddr: 0x10001B9BC, symSize: 0x34 }
  - { offset: 0x4E2AE, size: 0x8, addend: 0x0, symName: __ZNKSt3__116reverse_iteratorIPNS_6vectorIdNS_9allocatorIdEEEEE4baseB8ne180100Ev, symObjAddr: 0x1ACB0, symBinAddr: 0x10001B9F0, symSize: 0x18 }
  - { offset: 0x4E2D4, size: 0x8, addend: 0x0, symName: __ZNKSt3__16vectorINS0_IdNS_9allocatorIdEEEENS1_IS3_EEE14__annotate_newB8ne180100Em, symObjAddr: 0x1AD04, symBinAddr: 0x10001BA44, symSize: 0x14 }
  - { offset: 0x4E309, size: 0x8, addend: 0x0, symName: __ZNSt3__129_AllocatorDestroyRangeReverseINS_9allocatorINS_6vectorIdNS1_IdEEEEEENS_16reverse_iteratorIPS4_EEEC1B8ne180100ERS5_RS8_SB_, symObjAddr: 0x1AD64, symBinAddr: 0x10001BAA4, symSize: 0x44 }
  - { offset: 0x4E360, size: 0x8, addend: 0x0, symName: __ZNSt3__116allocator_traitsINS_9allocatorINS_6vectorIdNS1_IdEEEEEEE9constructB8ne180100IS4_JS4_EvEEvRS5_PT_DpOT0_, symObjAddr: 0x1ADEC, symBinAddr: 0x10001BB2C, symSize: 0x34 }
  - { offset: 0x4E3B7, size: 0x8, addend: 0x0, symName: __ZNKSt3__116reverse_iteratorIPNS_6vectorIdNS_9allocatorIdEEEEEdeB8ne180100Ev, symObjAddr: 0x1AE44, symBinAddr: 0x10001BB84, symSize: 0x28 }
  - { offset: 0x4E3EB, size: 0x8, addend: 0x0, symName: __ZNSt3__116reverse_iteratorIPNS_6vectorIdNS_9allocatorIdEEEEEppB8ne180100Ev, symObjAddr: 0x1AE6C, symBinAddr: 0x10001BBAC, symSize: 0x20 }
  - { offset: 0x4E411, size: 0x8, addend: 0x0, symName: __ZNSt3__128__exception_guard_exceptionsINS_29_AllocatorDestroyRangeReverseINS_9allocatorINS_6vectorIdNS2_IdEEEEEENS_16reverse_iteratorIPS5_EEEEE10__completeB8ne180100Ev, symObjAddr: 0x1AE8C, symBinAddr: 0x10001BBCC, symSize: 0x1C }
  - { offset: 0x4E437, size: 0x8, addend: 0x0, symName: __ZNSt3__128__exception_guard_exceptionsINS_29_AllocatorDestroyRangeReverseINS_9allocatorINS_6vectorIdNS2_IdEEEEEENS_16reverse_iteratorIPS5_EEEEED1B8ne180100Ev, symObjAddr: 0x1AEA8, symBinAddr: 0x10001BBE8, symSize: 0x2C }
  - { offset: 0x4E461, size: 0x8, addend: 0x0, symName: __ZNSt3__128__exception_guard_exceptionsINS_29_AllocatorDestroyRangeReverseINS_9allocatorINS_6vectorIdNS2_IdEEEEEENS_16reverse_iteratorIPS5_EEEEEC1B8ne180100ESA_, symObjAddr: 0x1AED4, symBinAddr: 0x10001BC14, symSize: 0x34 }
  - { offset: 0x4E49A, size: 0x8, addend: 0x0, symName: __ZNSt3__128__exception_guard_exceptionsINS_29_AllocatorDestroyRangeReverseINS_9allocatorINS_6vectorIdNS2_IdEEEEEENS_16reverse_iteratorIPS5_EEEEEC2B8ne180100ESA_, symObjAddr: 0x1AF08, symBinAddr: 0x10001BC48, symSize: 0x30 }
  - { offset: 0x4E4D3, size: 0x8, addend: 0x0, symName: __ZNSt3__129_AllocatorDestroyRangeReverseINS_9allocatorINS_6vectorIdNS1_IdEEEEEENS_16reverse_iteratorIPS4_EEEC2B8ne180100ERS5_RS8_SB_, symObjAddr: 0x1AF38, symBinAddr: 0x10001BC78, symSize: 0x38 }
  - { offset: 0x4E52A, size: 0x8, addend: 0x0, symName: __ZNSt3__19allocatorINS_6vectorIdNS0_IdEEEEE9constructB8ne180100IS3_JS3_EEEvPT_DpOT0_, symObjAddr: 0x1AF70, symBinAddr: 0x10001BCB0, symSize: 0x30 }
  - { offset: 0x4E586, size: 0x8, addend: 0x0, symName: __ZNSt3__119__to_address_helperINS_16reverse_iteratorIPNS_6vectorIdNS_9allocatorIdEEEEEEvE6__callB8ne180100ERKS7_, symObjAddr: 0x1AFA0, symBinAddr: 0x10001BCE0, symSize: 0x38 }
  - { offset: 0x4E5A9, size: 0x8, addend: 0x0, symName: __ZNKSt3__116reverse_iteratorIPNS_6vectorIdNS_9allocatorIdEEEEEptB8ne180100Ev, symObjAddr: 0x1AFD8, symBinAddr: 0x10001BD18, symSize: 0x24 }
  - { offset: 0x4E5CF, size: 0x8, addend: 0x0, symName: __ZNSt3__128__exception_guard_exceptionsINS_29_AllocatorDestroyRangeReverseINS_9allocatorINS_6vectorIdNS2_IdEEEEEENS_16reverse_iteratorIPS5_EEEEED2B8ne180100Ev, symObjAddr: 0x1AFFC, symBinAddr: 0x10001BD3C, symSize: 0x50 }
  - { offset: 0x4E5F9, size: 0x8, addend: 0x0, symName: __ZNKSt3__129_AllocatorDestroyRangeReverseINS_9allocatorINS_6vectorIdNS1_IdEEEEEENS_16reverse_iteratorIPS4_EEEclB8ne180100Ev, symObjAddr: 0x1B04C, symBinAddr: 0x10001BD8C, symSize: 0xB0 }
  - { offset: 0x4E620, size: 0x8, addend: 0x0, symName: __ZNSt3__116reverse_iteratorINS0_IPNS_6vectorIdNS_9allocatorIdEEEEEEEC1B8ne180100ES6_, symObjAddr: 0x1B16C, symBinAddr: 0x10001BEAC, symSize: 0x3C }
  - { offset: 0x4E658, size: 0x8, addend: 0x0, symName: __ZNSt3__116reverse_iteratorINS0_IPNS_6vectorIdNS_9allocatorIdEEEEEEEppB8ne180100Ev, symObjAddr: 0x1B228, symBinAddr: 0x10001BF68, symSize: 0x30 }
  - { offset: 0x4E67E, size: 0x8, addend: 0x0, symName: __ZNKSt3__116reverse_iteratorINS0_IPNS_6vectorIdNS_9allocatorIdEEEEEEE4baseB8ne180100Ev, symObjAddr: 0x1B258, symBinAddr: 0x10001BF98, symSize: 0x24 }
  - { offset: 0x4E6AA, size: 0x8, addend: 0x0, symName: __ZNSt3__119__to_address_helperINS_16reverse_iteratorINS1_IPNS_6vectorIdNS_9allocatorIdEEEEEEEEvE6__callB8ne180100ERKS8_, symObjAddr: 0x1B27C, symBinAddr: 0x10001BFBC, symSize: 0x38 }
  - { offset: 0x4E6CD, size: 0x8, addend: 0x0, symName: __ZNKSt3__116reverse_iteratorINS0_IPNS_6vectorIdNS_9allocatorIdEEEEEEEptB8ne180100Ev, symObjAddr: 0x1B2B4, symBinAddr: 0x10001BFF4, symSize: 0x24 }
  - { offset: 0x4E6F3, size: 0x8, addend: 0x0, symName: __ZNKSt3__116reverse_iteratorINS0_IPNS_6vectorIdNS_9allocatorIdEEEEEEEdeB8ne180100Ev, symObjAddr: 0x1B2D8, symBinAddr: 0x10001C018, symSize: 0x34 }
  - { offset: 0x4E727, size: 0x8, addend: 0x0, symName: __ZNSt3__116reverse_iteratorIPNS_6vectorIdNS_9allocatorIdEEEEEmmB8ne180100Ev, symObjAddr: 0x1B30C, symBinAddr: 0x10001C04C, symSize: 0x20 }
  - { offset: 0x4E74D, size: 0x8, addend: 0x0, symName: __ZNSt3__116reverse_iteratorINS0_IPNS_6vectorIdNS_9allocatorIdEEEEEEEC2B8ne180100ES6_, symObjAddr: 0x1B32C, symBinAddr: 0x10001C06C, symSize: 0x2C }
  - { offset: 0x4E785, size: 0x8, addend: 0x0, symName: __ZNSt3__116reverse_iteratorIPNS_6vectorIdNS_9allocatorIdEEEEEC2B8ne180100ES5_, symObjAddr: 0x1B358, symBinAddr: 0x10001C098, symSize: 0x28 }
  - { offset: 0x4E7BD, size: 0x8, addend: 0x0, symName: __ZNSt3__114__split_bufferINS_6vectorIdNS_9allocatorIdEEEERNS2_IS4_EEED2Ev, symObjAddr: 0x1B380, symBinAddr: 0x10001C0C0, symSize: 0x84 }
  - { offset: 0x4E7E9, size: 0x8, addend: 0x0, symName: __ZNSt3__114__split_bufferINS_6vectorIdNS_9allocatorIdEEEERNS2_IS4_EEE5clearB8ne180100Ev, symObjAddr: 0x1B404, symBinAddr: 0x10001C144, symSize: 0x28 }
  - { offset: 0x4E80F, size: 0x8, addend: 0x0, symName: __ZNKSt3__114__split_bufferINS_6vectorIdNS_9allocatorIdEEEERNS2_IS4_EEE8capacityB8ne180100Ev, symObjAddr: 0x1B42C, symBinAddr: 0x10001C16C, symSize: 0x40 }
  - { offset: 0x4E835, size: 0x8, addend: 0x0, symName: __ZNSt3__114__split_bufferINS_6vectorIdNS_9allocatorIdEEEERNS2_IS4_EEE17__destruct_at_endB8ne180100EPS4_, symObjAddr: 0x1B46C, symBinAddr: 0x10001C1AC, symSize: 0x2C }
  - { offset: 0x4E869, size: 0x8, addend: 0x0, symName: __ZNSt3__114__split_bufferINS_6vectorIdNS_9allocatorIdEEEERNS2_IS4_EEE17__destruct_at_endB8ne180100EPS4_NS_17integral_constantIbLb0EEE, symObjAddr: 0x1B498, symBinAddr: 0x10001C1D8, symSize: 0x7C }
  - { offset: 0x4E8A9, size: 0x8, addend: 0x0, symName: __ZNKSt3__114__split_bufferINS_6vectorIdNS_9allocatorIdEEEERNS2_IS4_EEE9__end_capB8ne180100Ev, symObjAddr: 0x1B514, symBinAddr: 0x10001C254, symSize: 0x28 }
  - { offset: 0x4E8CF, size: 0x8, addend: 0x0, symName: __ZNKSt3__117__compressed_pairIPNS_6vectorIdNS_9allocatorIdEEEERNS2_IS4_EEE5firstB8ne180100Ev, symObjAddr: 0x1B53C, symBinAddr: 0x10001C27C, symSize: 0x24 }
  - { offset: 0x4E8F5, size: 0x8, addend: 0x0, symName: __ZNSt3__16vectorINS0_IdNS_9allocatorIdEEEENS1_IS3_EEEC2ERKS5_, symObjAddr: 0x1B560, symBinAddr: 0x10001C2A0, symSize: 0x94 }
  - { offset: 0x4E930, size: 0x8, addend: 0x0, symName: __ZNSt3__116allocator_traitsINS_9allocatorINS_6vectorIdNS1_IdEEEEEEE37select_on_container_copy_constructionB8ne180100IS5_vvEES5_RKS5_, symObjAddr: 0x1B5F4, symBinAddr: 0x10001C334, symSize: 0x10 }
  - { offset: 0x4E965, size: 0x8, addend: 0x0, symName: __ZNSt3__117__compressed_pairIPNS_6vectorIdNS_9allocatorIdEEEENS2_IS4_EEEC1B8ne180100IDnS6_EEOT_OT0_, symObjAddr: 0x1B604, symBinAddr: 0x10001C344, symSize: 0x3C }
  - { offset: 0x4E9BD, size: 0x8, addend: 0x0, symName: __ZNSt3__16vectorINS0_IdNS_9allocatorIdEEEENS1_IS3_EEE16__init_with_sizeB8ne180100IPS3_S7_EEvT_T0_m, symObjAddr: 0x1B640, symBinAddr: 0x10001C380, symSize: 0xB4 }
  - { offset: 0x4EA31, size: 0x8, addend: 0x0, symName: __ZNSt3__117__compressed_pairIPNS_6vectorIdNS_9allocatorIdEEEENS2_IS4_EEEC2B8ne180100IDnS6_EEOT_OT0_, symObjAddr: 0x1B6F4, symBinAddr: 0x10001C434, symSize: 0x44 }
  - { offset: 0x4EA89, size: 0x8, addend: 0x0, symName: __ZNSt3__122__compressed_pair_elemINS_9allocatorINS_6vectorIdNS1_IdEEEEEELi1ELb1EEC2B8ne180100IS5_vEEOT_, symObjAddr: 0x1B738, symBinAddr: 0x10001C478, symSize: 0x18 }
  - { offset: 0x4EACB, size: 0x8, addend: 0x0, symName: __ZNSt3__16vectorINS0_IdNS_9allocatorIdEEEENS1_IS3_EEE11__vallocateB8ne180100Em, symObjAddr: 0x1B790, symBinAddr: 0x10001C4D0, symSize: 0xB0 }
  - { offset: 0x4EB0F, size: 0x8, addend: 0x0, symName: __ZNSt3__16vectorINS0_IdNS_9allocatorIdEEEENS1_IS3_EEE18__construct_at_endIPS3_S7_EEvT_T0_m, symObjAddr: 0x1B840, symBinAddr: 0x10001C580, symSize: 0x8C }
  - { offset: 0x4EB83, size: 0x8, addend: 0x0, symName: __ZNSt3__128__exception_guard_exceptionsINS_6vectorINS1_IdNS_9allocatorIdEEEENS2_IS4_EEE16__destroy_vectorEE10__completeB8ne180100Ev, symObjAddr: 0x1B8CC, symBinAddr: 0x10001C60C, symSize: 0x1C }
  - { offset: 0x4EBA9, size: 0x8, addend: 0x0, symName: __ZNSt3__128__exception_guard_exceptionsINS_6vectorINS1_IdNS_9allocatorIdEEEENS2_IS4_EEE16__destroy_vectorEED1B8ne180100Ev, symObjAddr: 0x1B8E8, symBinAddr: 0x10001C628, symSize: 0x2C }
  - { offset: 0x4EBD3, size: 0x8, addend: 0x0, symName: __ZNSt3__128__exception_guard_exceptionsINS_6vectorINS1_IdNS_9allocatorIdEEEENS2_IS4_EEE16__destroy_vectorEEC1B8ne180100ES7_, symObjAddr: 0x1B914, symBinAddr: 0x10001C654, symSize: 0x34 }
  - { offset: 0x4EC0B, size: 0x8, addend: 0x0, symName: __ZNSt3__128__exception_guard_exceptionsINS_6vectorINS1_IdNS_9allocatorIdEEEENS2_IS4_EEE16__destroy_vectorEEC2B8ne180100ES7_, symObjAddr: 0x1B948, symBinAddr: 0x10001C688, symSize: 0x24 }
  - { offset: 0x4EC66, size: 0x8, addend: 0x0, symName: __ZNSt3__14pairIPNS_6vectorIdNS_9allocatorIdEEEES5_EC1B8ne180100IS5_S5_TnNS_9enable_ifIXclsr10_CheckArgsE17__enable_implicitIT_T0_EEEiE4typeELi0EEEOS9_OSA_, symObjAddr: 0x1BBD4, symBinAddr: 0x10001C914, symSize: 0x3C }
  - { offset: 0x4ECC4, size: 0x8, addend: 0x0, symName: __ZNSt3__14pairIPNS_6vectorIdNS_9allocatorIdEEEES5_EC2B8ne180100IS5_S5_TnNS_9enable_ifIXclsr10_CheckArgsE17__enable_implicitIT_T0_EEEiE4typeELi0EEEOS9_OSA_, symObjAddr: 0x1BC10, symBinAddr: 0x10001C950, symSize: 0x34 }
  - { offset: 0x4ED22, size: 0x8, addend: 0x0, symName: __ZNSt3__129_AllocatorDestroyRangeReverseINS_9allocatorINS_6vectorIdNS1_IdEEEEEEPS4_EC1B8ne180100ERS5_RS6_S9_, symObjAddr: 0x1BC90, symBinAddr: 0x10001C9D0, symSize: 0x44 }
  - { offset: 0x4ED79, size: 0x8, addend: 0x0, symName: __ZNSt3__116allocator_traitsINS_9allocatorINS_6vectorIdNS1_IdEEEEEEE9constructB8ne180100IS4_JRS4_EvEEvRS5_PT_DpOT0_, symObjAddr: 0x1BCD4, symBinAddr: 0x10001CA14, symSize: 0x34 }
  - { offset: 0x4EDD0, size: 0x8, addend: 0x0, symName: __ZNSt3__128__exception_guard_exceptionsINS_29_AllocatorDestroyRangeReverseINS_9allocatorINS_6vectorIdNS2_IdEEEEEEPS5_EEE10__completeB8ne180100Ev, symObjAddr: 0x1BD08, symBinAddr: 0x10001CA48, symSize: 0x1C }
  - { offset: 0x4EDF6, size: 0x8, addend: 0x0, symName: __ZNSt3__128__exception_guard_exceptionsINS_29_AllocatorDestroyRangeReverseINS_9allocatorINS_6vectorIdNS2_IdEEEEEEPS5_EEED1B8ne180100Ev, symObjAddr: 0x1BD24, symBinAddr: 0x10001CA64, symSize: 0x2C }
  - { offset: 0x4EE20, size: 0x8, addend: 0x0, symName: __ZNSt3__128__exception_guard_exceptionsINS_29_AllocatorDestroyRangeReverseINS_9allocatorINS_6vectorIdNS2_IdEEEEEEPS5_EEEC1B8ne180100ES8_, symObjAddr: 0x1BD50, symBinAddr: 0x10001CA90, symSize: 0x34 }
  - { offset: 0x4EE59, size: 0x8, addend: 0x0, symName: __ZNSt3__128__exception_guard_exceptionsINS_29_AllocatorDestroyRangeReverseINS_9allocatorINS_6vectorIdNS2_IdEEEEEEPS5_EEEC2B8ne180100ES8_, symObjAddr: 0x1BD84, symBinAddr: 0x10001CAC4, symSize: 0x30 }
  - { offset: 0x4EE92, size: 0x8, addend: 0x0, symName: __ZNSt3__129_AllocatorDestroyRangeReverseINS_9allocatorINS_6vectorIdNS1_IdEEEEEEPS4_EC2B8ne180100ERS5_RS6_S9_, symObjAddr: 0x1BDB4, symBinAddr: 0x10001CAF4, symSize: 0x38 }
  - { offset: 0x4EEE9, size: 0x8, addend: 0x0, symName: __ZNSt3__19allocatorINS_6vectorIdNS0_IdEEEEE9constructB8ne180100IS3_JRS3_EEEvPT_DpOT0_, symObjAddr: 0x1BDEC, symBinAddr: 0x10001CB2C, symSize: 0x30 }
  - { offset: 0x4EF3F, size: 0x8, addend: 0x0, symName: __ZNSt3__128__exception_guard_exceptionsINS_29_AllocatorDestroyRangeReverseINS_9allocatorINS_6vectorIdNS2_IdEEEEEEPS5_EEED2B8ne180100Ev, symObjAddr: 0x1BE1C, symBinAddr: 0x10001CB5C, symSize: 0x50 }
  - { offset: 0x4EF69, size: 0x8, addend: 0x0, symName: __ZNKSt3__129_AllocatorDestroyRangeReverseINS_9allocatorINS_6vectorIdNS1_IdEEEEEEPS4_EclB8ne180100Ev, symObjAddr: 0x1BE6C, symBinAddr: 0x10001CBAC, symSize: 0x68 }
  - { offset: 0x4EF8F, size: 0x8, addend: 0x0, symName: __ZNSt3__118__unwrap_iter_implIPNS_6vectorIdNS_9allocatorIdEEEELb1EE8__unwrapB8ne180100ES5_, symObjAddr: 0x1BF44, symBinAddr: 0x10001CC84, symSize: 0x24 }
  - { offset: 0x4EFB2, size: 0x8, addend: 0x0, symName: __ZNSt3__118__unwrap_iter_implIPNS_6vectorIdNS_9allocatorIdEEEELb1EE8__rewrapB8ne180100ES5_S5_, symObjAddr: 0x1BF68, symBinAddr: 0x10001CCA8, symSize: 0x58 }
  - { offset: 0x4EFE3, size: 0x8, addend: 0x0, symName: __ZNSt3__128__exception_guard_exceptionsINS_6vectorINS1_IdNS_9allocatorIdEEEENS2_IS4_EEE16__destroy_vectorEED2B8ne180100Ev, symObjAddr: 0x1BFC0, symBinAddr: 0x10001CD00, symSize: 0x48 }
  - { offset: 0x4F00D, size: 0x8, addend: 0x0, symName: __ZNSt3__16vectorIiNS_9allocatorIiEEED2B8ne180100Ev, symObjAddr: 0x1C008, symBinAddr: 0x10001CD48, symSize: 0x44 }
  - { offset: 0x4F037, size: 0x8, addend: 0x0, symName: __ZNSt3__16vectorIiNS_9allocatorIiEEE16__destroy_vectorC1B8ne180100ERS3_, symObjAddr: 0x1C04C, symBinAddr: 0x10001CD8C, symSize: 0x34 }
  - { offset: 0x4F070, size: 0x8, addend: 0x0, symName: __ZNSt3__16vectorIiNS_9allocatorIiEEE16__destroy_vectorclB8ne180100Ev, symObjAddr: 0x1C080, symBinAddr: 0x10001CDC0, symSize: 0x88 }
  - { offset: 0x4F096, size: 0x8, addend: 0x0, symName: __ZNSt3__16vectorIiNS_9allocatorIiEEE16__destroy_vectorC2B8ne180100ERS3_, symObjAddr: 0x1C108, symBinAddr: 0x10001CE48, symSize: 0x20 }
  - { offset: 0x4F0CF, size: 0x8, addend: 0x0, symName: __ZNSt3__16vectorIiNS_9allocatorIiEEE7__clearB8ne180100Ev, symObjAddr: 0x1C128, symBinAddr: 0x10001CE68, symSize: 0x28 }
  - { offset: 0x4F0F5, size: 0x8, addend: 0x0, symName: __ZNKSt3__16vectorIiNS_9allocatorIiEEE17__annotate_deleteB8ne180100Ev, symObjAddr: 0x1C150, symBinAddr: 0x10001CE90, symSize: 0x10 }
  - { offset: 0x4F11B, size: 0x8, addend: 0x0, symName: __ZNSt3__116allocator_traitsINS_9allocatorIiEEE10deallocateB8ne180100ERS2_Pim, symObjAddr: 0x1C160, symBinAddr: 0x10001CEA0, symSize: 0x34 }
  - { offset: 0x4F15D, size: 0x8, addend: 0x0, symName: __ZNSt3__16vectorIiNS_9allocatorIiEEE7__allocB8ne180100Ev, symObjAddr: 0x1C194, symBinAddr: 0x10001CED4, symSize: 0x28 }
  - { offset: 0x4F183, size: 0x8, addend: 0x0, symName: __ZNKSt3__16vectorIiNS_9allocatorIiEEE8capacityB8ne180100Ev, symObjAddr: 0x1C1BC, symBinAddr: 0x10001CEFC, symSize: 0x40 }
  - { offset: 0x4F1A9, size: 0x8, addend: 0x0, symName: __ZNSt3__16vectorIiNS_9allocatorIiEEE22__base_destruct_at_endB8ne180100EPi, symObjAddr: 0x1C1FC, symBinAddr: 0x10001CF3C, symSize: 0x88 }
  - { offset: 0x4F1ED, size: 0x8, addend: 0x0, symName: __ZNSt3__116allocator_traitsINS_9allocatorIiEEE7destroyB8ne180100IivEEvRS2_PT_, symObjAddr: 0x1C284, symBinAddr: 0x10001CFC4, symSize: 0x2C }
  - { offset: 0x4F22A, size: 0x8, addend: 0x0, symName: __ZNSt3__19allocatorIiE7destroyB8ne180100EPi, symObjAddr: 0x1C2C4, symBinAddr: 0x10001D004, symSize: 0x14 }
  - { offset: 0x4F25E, size: 0x8, addend: 0x0, symName: __ZNSt3__19allocatorIiE10deallocateB8ne180100EPim, symObjAddr: 0x1C2D8, symBinAddr: 0x10001D018, symSize: 0x40 }
  - { offset: 0x4F2A0, size: 0x8, addend: 0x0, symName: __ZNSt3__117__compressed_pairIPiNS_9allocatorIiEEE6secondB8ne180100Ev, symObjAddr: 0x1C318, symBinAddr: 0x10001D058, symSize: 0x24 }
  - { offset: 0x4F2C6, size: 0x8, addend: 0x0, symName: __ZNSt3__122__compressed_pair_elemINS_9allocatorIiEELi1ELb1EE5__getB8ne180100Ev, symObjAddr: 0x1C33C, symBinAddr: 0x10001D07C, symSize: 0x14 }
  - { offset: 0x4F2EC, size: 0x8, addend: 0x0, symName: __ZNKSt3__16vectorIiNS_9allocatorIiEEE9__end_capB8ne180100Ev, symObjAddr: 0x1C350, symBinAddr: 0x10001D090, symSize: 0x28 }
  - { offset: 0x4F312, size: 0x8, addend: 0x0, symName: __ZNKSt3__117__compressed_pairIPiNS_9allocatorIiEEE5firstB8ne180100Ev, symObjAddr: 0x1C378, symBinAddr: 0x10001D0B8, symSize: 0x24 }
  - { offset: 0x4F338, size: 0x8, addend: 0x0, symName: __ZNKSt3__122__compressed_pair_elemIPiLi0ELb0EE5__getB8ne180100Ev, symObjAddr: 0x1C39C, symBinAddr: 0x10001D0DC, symSize: 0x14 }
  - { offset: 0x4F35E, size: 0x8, addend: 0x0, symName: __ZNSt3__16vectorINS0_IdNS_9allocatorIdEEEENS1_IS3_EEE22__construct_one_at_endB8ne180100IJS3_EEEvDpOT_, symObjAddr: 0x1C3B0, symBinAddr: 0x10001D0F0, symSize: 0x90 }
  - { offset: 0x4F3AD, size: 0x8, addend: 0x0, symName: __ZNSt3__16vectorINS0_IdNS_9allocatorIdEEEENS1_IS3_EEE21__push_back_slow_pathIS3_EEPS3_OT_, symObjAddr: 0x1C440, symBinAddr: 0x10001D180, symSize: 0xE8 }
  - { offset: 0x4F409, size: 0x8, addend: 0x0, symName: __ZNSt3__16vectorINS0_IdNS_9allocatorIdEEEENS1_IS3_EEE13__move_assignERS5_NS_17integral_constantIbLb1EEE, symObjAddr: 0x1C528, symBinAddr: 0x10001D268, symSize: 0x94 }
  - { offset: 0x4F44C, size: 0x8, addend: 0x0, symName: __ZNSt3__16vectorINS0_IdNS_9allocatorIdEEEENS1_IS3_EEE13__vdeallocateEv, symObjAddr: 0x1C5BC, symBinAddr: 0x10001D2FC, symSize: 0x8C }
  - { offset: 0x4F474, size: 0x8, addend: 0x0, symName: __ZNSt3__16vectorINS0_IdNS_9allocatorIdEEEENS1_IS3_EEE19__move_assign_allocB8ne180100ERS5_, symObjAddr: 0x1C648, symBinAddr: 0x10001D388, symSize: 0x2C }
  - { offset: 0x4F4A9, size: 0x8, addend: 0x0, symName: __ZNSt3__16vectorINS0_IdNS_9allocatorIdEEEENS1_IS3_EEE19__move_assign_allocB8ne180100ERS5_NS_17integral_constantIbLb1EEE, symObjAddr: 0x1C674, symBinAddr: 0x10001D3B4, symSize: 0x38 }
  - { offset: 0x4F4EA, size: 0x8, addend: 0x0, symName: __ZNSt3__16vectorIdNS_9allocatorIdEEE13__move_assignERS3_NS_17integral_constantIbLb1EEE, symObjAddr: 0x1C6AC, symBinAddr: 0x10001D3EC, symSize: 0x94 }
  - { offset: 0x4F52D, size: 0x8, addend: 0x0, symName: __ZNSt3__16vectorIdNS_9allocatorIdEEE13__vdeallocateEv, symObjAddr: 0x1C740, symBinAddr: 0x10001D480, symSize: 0x8C }
  - { offset: 0x4F555, size: 0x8, addend: 0x0, symName: __ZNSt3__16vectorIdNS_9allocatorIdEEE19__move_assign_allocB8ne180100ERS3_, symObjAddr: 0x1C7CC, symBinAddr: 0x10001D50C, symSize: 0x2C }
  - { offset: 0x4F58A, size: 0x8, addend: 0x0, symName: __ZNSt3__16vectorIdNS_9allocatorIdEEE5clearB8ne180100Ev, symObjAddr: 0x1C7F8, symBinAddr: 0x10001D538, symSize: 0x44 }
  - { offset: 0x4F5BF, size: 0x8, addend: 0x0, symName: __ZNKSt3__16vectorIdNS_9allocatorIdEEE17__annotate_shrinkB8ne180100Em, symObjAddr: 0x1C83C, symBinAddr: 0x10001D57C, symSize: 0x14 }
  - { offset: 0x4F5F4, size: 0x8, addend: 0x0, symName: __ZNSt3__16vectorIdNS_9allocatorIdEEE19__move_assign_allocB8ne180100ERS3_NS_17integral_constantIbLb1EEE, symObjAddr: 0x1C850, symBinAddr: 0x10001D590, symSize: 0x38 }
  - { offset: 0x4F635, size: 0x8, addend: 0x0, symName: __ZNSt3__16vectorIiNS_9allocatorIiEEE13__move_assignERS3_NS_17integral_constantIbLb1EEE, symObjAddr: 0x1C888, symBinAddr: 0x10001D5C8, symSize: 0x94 }
  - { offset: 0x4F678, size: 0x8, addend: 0x0, symName: __ZNSt3__16vectorIiNS_9allocatorIiEEE13__vdeallocateEv, symObjAddr: 0x1C91C, symBinAddr: 0x10001D65C, symSize: 0x8C }
  - { offset: 0x4F6A0, size: 0x8, addend: 0x0, symName: __ZNSt3__16vectorIiNS_9allocatorIiEEE19__move_assign_allocB8ne180100ERS3_, symObjAddr: 0x1C9A8, symBinAddr: 0x10001D6E8, symSize: 0x2C }
  - { offset: 0x4F6D5, size: 0x8, addend: 0x0, symName: __ZNSt3__16vectorIiNS_9allocatorIiEEE9__end_capB8ne180100Ev, symObjAddr: 0x1C9D4, symBinAddr: 0x10001D714, symSize: 0x28 }
  - { offset: 0x4F6FB, size: 0x8, addend: 0x0, symName: __ZNSt3__16vectorIiNS_9allocatorIiEEE5clearB8ne180100Ev, symObjAddr: 0x1C9FC, symBinAddr: 0x10001D73C, symSize: 0x44 }
  - { offset: 0x4F730, size: 0x8, addend: 0x0, symName: __ZNKSt3__16vectorIiNS_9allocatorIiEEE4sizeB8ne180100Ev, symObjAddr: 0x1CA40, symBinAddr: 0x10001D780, symSize: 0x28 }
  - { offset: 0x4F756, size: 0x8, addend: 0x0, symName: __ZNKSt3__16vectorIiNS_9allocatorIiEEE17__annotate_shrinkB8ne180100Em, symObjAddr: 0x1CA68, symBinAddr: 0x10001D7A8, symSize: 0x14 }
  - { offset: 0x4F78B, size: 0x8, addend: 0x0, symName: __ZNSt3__16vectorIiNS_9allocatorIiEEE19__move_assign_allocB8ne180100ERS3_NS_17integral_constantIbLb1EEE, symObjAddr: 0x1CA7C, symBinAddr: 0x10001D7BC, symSize: 0x38 }
  - { offset: 0x4F7CC, size: 0x8, addend: 0x0, symName: __ZNSt3__117__compressed_pairIPiNS_9allocatorIiEEE5firstB8ne180100Ev, symObjAddr: 0x1CAB4, symBinAddr: 0x10001D7F4, symSize: 0x24 }
  - { offset: 0x4F7F2, size: 0x8, addend: 0x0, symName: __ZNSt3__122__compressed_pair_elemIPiLi0ELb0EE5__getB8ne180100Ev, symObjAddr: 0x1CAD8, symBinAddr: 0x10001D818, symSize: 0x14 }
  - { offset: 0x4F818, size: 0x8, addend: 0x0, symName: __ZNKSt3__16vectorINS0_IdNS_9allocatorIdEEEENS1_IS3_EEE17__annotate_shrinkB8ne180100Em, symObjAddr: 0x1CAEC, symBinAddr: 0x10001D82C, symSize: 0x14 }
  - { offset: 0x4F84D, size: 0x8, addend: 0x0, symName: __ZNSt3__111char_traitsIcE2eqEcc, symObjAddr: 0x1CCA8, symBinAddr: 0x10001D9E8, symSize: 0x24 }
  - { offset: 0x4F87E, size: 0x8, addend: 0x0, symName: __ZNSt3__19allocatorIcEC1B8ne180100Ev, symObjAddr: 0x1CCCC, symBinAddr: 0x10001DA0C, symSize: 0x2C }
  - { offset: 0x4F8A8, size: 0x8, addend: 0x0, symName: __ZNSt3__16vectorINS_12basic_stringIcNS_11char_traitsIcEENS_9allocatorIcEEEENS4_IS6_EEE9__end_capB8ne180100Ev, symObjAddr: 0x1CCF8, symBinAddr: 0x10001DA38, symSize: 0x28 }
  - { offset: 0x4F8D4, size: 0x8, addend: 0x0, symName: __ZNSt3__16vectorINS_12basic_stringIcNS_11char_traitsIcEENS_9allocatorIcEEEENS4_IS6_EEE22__construct_one_at_endB8ne180100IJS6_EEEvDpOT_, symObjAddr: 0x1CD20, symBinAddr: 0x10001DA60, symSize: 0x90 }
  - { offset: 0x4F923, size: 0x8, addend: 0x0, symName: __ZNSt3__16vectorINS_12basic_stringIcNS_11char_traitsIcEENS_9allocatorIcEEEENS4_IS6_EEE21__push_back_slow_pathIS6_EEPS6_OT_, symObjAddr: 0x1CDB0, symBinAddr: 0x10001DAF0, symSize: 0xE8 }
  - { offset: 0x4F97F, size: 0x8, addend: 0x0, symName: __ZNSt3__117__compressed_pairIPNS_12basic_stringIcNS_11char_traitsIcEENS_9allocatorIcEEEENS4_IS6_EEE5firstB8ne180100Ev, symObjAddr: 0x1CE98, symBinAddr: 0x10001DBD8, symSize: 0x24 }
  - { offset: 0x4F9A5, size: 0x8, addend: 0x0, symName: __ZNSt3__122__compressed_pair_elemIPNS_12basic_stringIcNS_11char_traitsIcEENS_9allocatorIcEEEELi0ELb0EE5__getB8ne180100Ev, symObjAddr: 0x1CEBC, symBinAddr: 0x10001DBFC, symSize: 0x14 }
  - { offset: 0x4F9E7, size: 0x8, addend: 0x0, symName: __ZNSt3__16vectorINS_12basic_stringIcNS_11char_traitsIcEENS_9allocatorIcEEEENS4_IS6_EEE21_ConstructTransactionC1B8ne180100ERS8_m, symObjAddr: 0x1CED0, symBinAddr: 0x10001DC10, symSize: 0x3C }
  - { offset: 0x4FA2F, size: 0x8, addend: 0x0, symName: __ZNSt3__116allocator_traitsINS_9allocatorINS_12basic_stringIcNS_11char_traitsIcEENS1_IcEEEEEEE9constructB8ne180100IS6_JS6_EvEEvRS7_PT_DpOT0_, symObjAddr: 0x1CF0C, symBinAddr: 0x10001DC4C, symSize: 0x34 }
  - { offset: 0x4FA86, size: 0x8, addend: 0x0, symName: __ZNSt3__16vectorINS_12basic_stringIcNS_11char_traitsIcEENS_9allocatorIcEEEENS4_IS6_EEE7__allocB8ne180100Ev, symObjAddr: 0x1CF40, symBinAddr: 0x10001DC80, symSize: 0x28 }
  - { offset: 0x4FAAC, size: 0x8, addend: 0x0, symName: __ZNSt3__16vectorINS_12basic_stringIcNS_11char_traitsIcEENS_9allocatorIcEEEENS4_IS6_EEE21_ConstructTransactionD1B8ne180100Ev, symObjAddr: 0x1CF68, symBinAddr: 0x10001DCA8, symSize: 0x2C }
  - { offset: 0x4FAD6, size: 0x8, addend: 0x0, symName: __ZNSt3__16vectorINS_12basic_stringIcNS_11char_traitsIcEENS_9allocatorIcEEEENS4_IS6_EEE21_ConstructTransactionC2B8ne180100ERS8_m, symObjAddr: 0x1CF94, symBinAddr: 0x10001DCD4, symSize: 0x4C }
  - { offset: 0x4FB1E, size: 0x8, addend: 0x0, symName: __ZNSt3__19allocatorINS_12basic_stringIcNS_11char_traitsIcEENS0_IcEEEEE9constructB8ne180100IS5_JS5_EEEvPT_DpOT0_, symObjAddr: 0x1CFE0, symBinAddr: 0x10001DD20, symSize: 0x30 }
  - { offset: 0x4FB74, size: 0x8, addend: 0x0, symName: __ZNSt3__117__compressed_pairIPNS_12basic_stringIcNS_11char_traitsIcEENS_9allocatorIcEEEENS4_IS6_EEE6secondB8ne180100Ev, symObjAddr: 0x1D010, symBinAddr: 0x10001DD50, symSize: 0x24 }
  - { offset: 0x4FB9A, size: 0x8, addend: 0x0, symName: __ZNSt3__122__compressed_pair_elemINS_9allocatorINS_12basic_stringIcNS_11char_traitsIcEENS1_IcEEEEEELi1ELb1EE5__getB8ne180100Ev, symObjAddr: 0x1D034, symBinAddr: 0x10001DD74, symSize: 0x14 }
  - { offset: 0x4FBC0, size: 0x8, addend: 0x0, symName: __ZNSt3__16vectorINS_12basic_stringIcNS_11char_traitsIcEENS_9allocatorIcEEEENS4_IS6_EEE21_ConstructTransactionD2B8ne180100Ev, symObjAddr: 0x1D048, symBinAddr: 0x10001DD88, symSize: 0x20 }
  - { offset: 0x4FBEA, size: 0x8, addend: 0x0, symName: __ZNKSt3__16vectorINS_12basic_stringIcNS_11char_traitsIcEENS_9allocatorIcEEEENS4_IS6_EEE11__recommendB8ne180100Em, symObjAddr: 0x1D068, symBinAddr: 0x10001DDA8, symSize: 0xAC }
  - { offset: 0x4FC3F, size: 0x8, addend: 0x0, symName: __ZNKSt3__16vectorINS_12basic_stringIcNS_11char_traitsIcEENS_9allocatorIcEEEENS4_IS6_EEE4sizeB8ne180100Ev, symObjAddr: 0x1D114, symBinAddr: 0x10001DE54, symSize: 0x28 }
  - { offset: 0x4FC65, size: 0x8, addend: 0x0, symName: __ZNSt3__114__split_bufferINS_12basic_stringIcNS_11char_traitsIcEENS_9allocatorIcEEEERNS4_IS6_EEEC1EmmS8_, symObjAddr: 0x1D13C, symBinAddr: 0x10001DE7C, symSize: 0x44 }
  - { offset: 0x4FCBB, size: 0x8, addend: 0x0, symName: __ZNSt3__114__split_bufferINS_12basic_stringIcNS_11char_traitsIcEENS_9allocatorIcEEEERNS4_IS6_EEED1Ev, symObjAddr: 0x1D290, symBinAddr: 0x10001DFD0, symSize: 0x2C }
  - { offset: 0x4FCE7, size: 0x8, addend: 0x0, symName: __ZNKSt3__16vectorINS_12basic_stringIcNS_11char_traitsIcEENS_9allocatorIcEEEENS4_IS6_EEE8max_sizeEv, symObjAddr: 0x1D2BC, symBinAddr: 0x10001DFFC, symSize: 0x60 }
  - { offset: 0x4FD0F, size: 0x8, addend: 0x0, symName: __ZNKSt3__16vectorINS_12basic_stringIcNS_11char_traitsIcEENS_9allocatorIcEEEENS4_IS6_EEE20__throw_length_errorB8ne180100Ev, symObjAddr: 0x1D31C, symBinAddr: 0x10001E05C, symSize: 0x1C }
  - { offset: 0x4FD35, size: 0x8, addend: 0x0, symName: __ZNKSt3__16vectorINS_12basic_stringIcNS_11char_traitsIcEENS_9allocatorIcEEEENS4_IS6_EEE8capacityB8ne180100Ev, symObjAddr: 0x1D338, symBinAddr: 0x10001E078, symSize: 0x40 }
  - { offset: 0x4FD66, size: 0x8, addend: 0x0, symName: __ZNSt3__116allocator_traitsINS_9allocatorINS_12basic_stringIcNS_11char_traitsIcEENS1_IcEEEEEEE8max_sizeB8ne180100IS7_vEEmRKS7_, symObjAddr: 0x1D378, symBinAddr: 0x10001E0B8, symSize: 0x24 }
  - { offset: 0x4FD94, size: 0x8, addend: 0x0, symName: __ZNKSt3__16vectorINS_12basic_stringIcNS_11char_traitsIcEENS_9allocatorIcEEEENS4_IS6_EEE7__allocB8ne180100Ev, symObjAddr: 0x1D39C, symBinAddr: 0x10001E0DC, symSize: 0x28 }
  - { offset: 0x4FDBA, size: 0x8, addend: 0x0, symName: __ZNKSt3__19allocatorINS_12basic_stringIcNS_11char_traitsIcEENS0_IcEEEEE8max_sizeB8ne180100Ev, symObjAddr: 0x1D3C4, symBinAddr: 0x10001E104, symSize: 0x18 }
  - { offset: 0x4FDE0, size: 0x8, addend: 0x0, symName: __ZNKSt3__117__compressed_pairIPNS_12basic_stringIcNS_11char_traitsIcEENS_9allocatorIcEEEENS4_IS6_EEE6secondB8ne180100Ev, symObjAddr: 0x1D3DC, symBinAddr: 0x10001E11C, symSize: 0x24 }
  - { offset: 0x4FE06, size: 0x8, addend: 0x0, symName: __ZNKSt3__122__compressed_pair_elemINS_9allocatorINS_12basic_stringIcNS_11char_traitsIcEENS1_IcEEEEEELi1ELb1EE5__getB8ne180100Ev, symObjAddr: 0x1D400, symBinAddr: 0x10001E140, symSize: 0x14 }
  - { offset: 0x4FE2C, size: 0x8, addend: 0x0, symName: __ZNKSt3__16vectorINS_12basic_stringIcNS_11char_traitsIcEENS_9allocatorIcEEEENS4_IS6_EEE9__end_capB8ne180100Ev, symObjAddr: 0x1D414, symBinAddr: 0x10001E154, symSize: 0x28 }
  - { offset: 0x4FE52, size: 0x8, addend: 0x0, symName: __ZNKSt3__117__compressed_pairIPNS_12basic_stringIcNS_11char_traitsIcEENS_9allocatorIcEEEENS4_IS6_EEE5firstB8ne180100Ev, symObjAddr: 0x1D43C, symBinAddr: 0x10001E17C, symSize: 0x24 }
  - { offset: 0x4FE78, size: 0x8, addend: 0x0, symName: __ZNKSt3__122__compressed_pair_elemIPNS_12basic_stringIcNS_11char_traitsIcEENS_9allocatorIcEEEELi0ELb0EE5__getB8ne180100Ev, symObjAddr: 0x1D460, symBinAddr: 0x10001E1A0, symSize: 0x14 }
  - { offset: 0x4FE9E, size: 0x8, addend: 0x0, symName: __ZNSt3__114__split_bufferINS_12basic_stringIcNS_11char_traitsIcEENS_9allocatorIcEEEERNS4_IS6_EEEC2EmmS8_, symObjAddr: 0x1D474, symBinAddr: 0x10001E1B4, symSize: 0xD8 }
  - { offset: 0x4FF12, size: 0x8, addend: 0x0, symName: __ZNSt3__117__compressed_pairIPNS_12basic_stringIcNS_11char_traitsIcEENS_9allocatorIcEEEERNS4_IS6_EEEC1B8ne180100IDnS9_EEOT_OT0_, symObjAddr: 0x1D54C, symBinAddr: 0x10001E28C, symSize: 0x3C }
  - { offset: 0x4FF6A, size: 0x8, addend: 0x0, symName: __ZNSt3__114__split_bufferINS_12basic_stringIcNS_11char_traitsIcEENS_9allocatorIcEEEERNS4_IS6_EEE7__allocB8ne180100Ev, symObjAddr: 0x1D5C8, symBinAddr: 0x10001E308, symSize: 0x28 }
  - { offset: 0x4FF90, size: 0x8, addend: 0x0, symName: __ZNSt3__114__split_bufferINS_12basic_stringIcNS_11char_traitsIcEENS_9allocatorIcEEEERNS4_IS6_EEE9__end_capB8ne180100Ev, symObjAddr: 0x1D5F0, symBinAddr: 0x10001E330, symSize: 0x28 }
  - { offset: 0x4FFB6, size: 0x8, addend: 0x0, symName: __ZNSt3__117__compressed_pairIPNS_12basic_stringIcNS_11char_traitsIcEENS_9allocatorIcEEEERNS4_IS6_EEEC2B8ne180100IDnS9_EEOT_OT0_, symObjAddr: 0x1D618, symBinAddr: 0x10001E358, symSize: 0x48 }
  - { offset: 0x5000E, size: 0x8, addend: 0x0, symName: __ZNSt3__122__compressed_pair_elemIPNS_12basic_stringIcNS_11char_traitsIcEENS_9allocatorIcEEEELi0ELb0EEC2B8ne180100IDnvEEOT_, symObjAddr: 0x1D660, symBinAddr: 0x10001E3A0, symSize: 0x1C }
  - { offset: 0x50050, size: 0x8, addend: 0x0, symName: __ZNSt3__122__compressed_pair_elemIRNS_9allocatorINS_12basic_stringIcNS_11char_traitsIcEENS1_IcEEEEEELi1ELb0EEC2B8ne180100IS8_vEEOT_, symObjAddr: 0x1D67C, symBinAddr: 0x10001E3BC, symSize: 0x20 }
  - { offset: 0x50092, size: 0x8, addend: 0x0, symName: __ZNSt3__19allocatorINS_12basic_stringIcNS_11char_traitsIcEENS0_IcEEEEE8allocateB8ne180100Em, symObjAddr: 0x1D69C, symBinAddr: 0x10001E3DC, symSize: 0x58 }
  - { offset: 0x500C6, size: 0x8, addend: 0x0, symName: __ZNSt3__117__compressed_pairIPNS_12basic_stringIcNS_11char_traitsIcEENS_9allocatorIcEEEERNS4_IS6_EEE6secondB8ne180100Ev, symObjAddr: 0x1D6F4, symBinAddr: 0x10001E434, symSize: 0x28 }
  - { offset: 0x500EC, size: 0x8, addend: 0x0, symName: __ZNSt3__122__compressed_pair_elemIRNS_9allocatorINS_12basic_stringIcNS_11char_traitsIcEENS1_IcEEEEEELi1ELb0EE5__getB8ne180100Ev, symObjAddr: 0x1D71C, symBinAddr: 0x10001E45C, symSize: 0x18 }
  - { offset: 0x50112, size: 0x8, addend: 0x0, symName: __ZNSt3__117__compressed_pairIPNS_12basic_stringIcNS_11char_traitsIcEENS_9allocatorIcEEEERNS4_IS6_EEE5firstB8ne180100Ev, symObjAddr: 0x1D734, symBinAddr: 0x10001E474, symSize: 0x24 }
  - { offset: 0x50138, size: 0x8, addend: 0x0, symName: __ZNKSt3__16vectorINS_12basic_stringIcNS_11char_traitsIcEENS_9allocatorIcEEEENS4_IS6_EEE17__annotate_deleteB8ne180100Ev, symObjAddr: 0x1D758, symBinAddr: 0x10001E498, symSize: 0x10 }
  - { offset: 0x5015E, size: 0x8, addend: 0x0, symName: __ZNSt3__116reverse_iteratorIPNS_12basic_stringIcNS_11char_traitsIcEENS_9allocatorIcEEEEEC1B8ne180100ES7_, symObjAddr: 0x1D894, symBinAddr: 0x10001E5D4, symSize: 0x34 }
  - { offset: 0x50196, size: 0x8, addend: 0x0, symName: __ZNKSt3__116reverse_iteratorIPNS_12basic_stringIcNS_11char_traitsIcEENS_9allocatorIcEEEEE4baseB8ne180100Ev, symObjAddr: 0x1D8C8, symBinAddr: 0x10001E608, symSize: 0x18 }
  - { offset: 0x501BC, size: 0x8, addend: 0x0, symName: __ZNKSt3__16vectorINS_12basic_stringIcNS_11char_traitsIcEENS_9allocatorIcEEEENS4_IS6_EEE14__annotate_newB8ne180100Em, symObjAddr: 0x1D91C, symBinAddr: 0x10001E65C, symSize: 0x14 }
  - { offset: 0x501F1, size: 0x8, addend: 0x0, symName: __ZNSt3__129_AllocatorDestroyRangeReverseINS_9allocatorINS_12basic_stringIcNS_11char_traitsIcEENS1_IcEEEEEENS_16reverse_iteratorIPS6_EEEC1B8ne180100ERS7_RSA_SD_, symObjAddr: 0x1D97C, symBinAddr: 0x10001E6BC, symSize: 0x44 }
  - { offset: 0x50248, size: 0x8, addend: 0x0, symName: __ZNKSt3__116reverse_iteratorIPNS_12basic_stringIcNS_11char_traitsIcEENS_9allocatorIcEEEEEdeB8ne180100Ev, symObjAddr: 0x1DA28, symBinAddr: 0x10001E768, symSize: 0x28 }
  - { offset: 0x5027C, size: 0x8, addend: 0x0, symName: __ZNSt3__116reverse_iteratorIPNS_12basic_stringIcNS_11char_traitsIcEENS_9allocatorIcEEEEEppB8ne180100Ev, symObjAddr: 0x1DA50, symBinAddr: 0x10001E790, symSize: 0x20 }
  - { offset: 0x502A2, size: 0x8, addend: 0x0, symName: __ZNSt3__128__exception_guard_exceptionsINS_29_AllocatorDestroyRangeReverseINS_9allocatorINS_12basic_stringIcNS_11char_traitsIcEENS2_IcEEEEEENS_16reverse_iteratorIPS7_EEEEE10__completeB8ne180100Ev, symObjAddr: 0x1DA70, symBinAddr: 0x10001E7B0, symSize: 0x1C }
  - { offset: 0x502C8, size: 0x8, addend: 0x0, symName: __ZNSt3__128__exception_guard_exceptionsINS_29_AllocatorDestroyRangeReverseINS_9allocatorINS_12basic_stringIcNS_11char_traitsIcEENS2_IcEEEEEENS_16reverse_iteratorIPS7_EEEEED1B8ne180100Ev, symObjAddr: 0x1DA8C, symBinAddr: 0x10001E7CC, symSize: 0x2C }
  - { offset: 0x502F2, size: 0x8, addend: 0x0, symName: __ZNSt3__128__exception_guard_exceptionsINS_29_AllocatorDestroyRangeReverseINS_9allocatorINS_12basic_stringIcNS_11char_traitsIcEENS2_IcEEEEEENS_16reverse_iteratorIPS7_EEEEEC1B8ne180100ESC_, symObjAddr: 0x1DAB8, symBinAddr: 0x10001E7F8, symSize: 0x34 }
  - { offset: 0x5032B, size: 0x8, addend: 0x0, symName: __ZNSt3__128__exception_guard_exceptionsINS_29_AllocatorDestroyRangeReverseINS_9allocatorINS_12basic_stringIcNS_11char_traitsIcEENS2_IcEEEEEENS_16reverse_iteratorIPS7_EEEEEC2B8ne180100ESC_, symObjAddr: 0x1DAEC, symBinAddr: 0x10001E82C, symSize: 0x30 }
  - { offset: 0x50364, size: 0x8, addend: 0x0, symName: __ZNSt3__129_AllocatorDestroyRangeReverseINS_9allocatorINS_12basic_stringIcNS_11char_traitsIcEENS1_IcEEEEEENS_16reverse_iteratorIPS6_EEEC2B8ne180100ERS7_RSA_SD_, symObjAddr: 0x1DB1C, symBinAddr: 0x10001E85C, symSize: 0x38 }
  - { offset: 0x503C1, size: 0x8, addend: 0x0, symName: __ZNSt3__119__to_address_helperINS_16reverse_iteratorIPNS_12basic_stringIcNS_11char_traitsIcEENS_9allocatorIcEEEEEEvE6__callB8ne180100ERKS9_, symObjAddr: 0x1DB54, symBinAddr: 0x10001E894, symSize: 0x38 }
  - { offset: 0x503E4, size: 0x8, addend: 0x0, symName: __ZNKSt3__116reverse_iteratorIPNS_12basic_stringIcNS_11char_traitsIcEENS_9allocatorIcEEEEEptB8ne180100Ev, symObjAddr: 0x1DB8C, symBinAddr: 0x10001E8CC, symSize: 0x24 }
  - { offset: 0x5040A, size: 0x8, addend: 0x0, symName: __ZNSt3__128__exception_guard_exceptionsINS_29_AllocatorDestroyRangeReverseINS_9allocatorINS_12basic_stringIcNS_11char_traitsIcEENS2_IcEEEEEENS_16reverse_iteratorIPS7_EEEEED2B8ne180100Ev, symObjAddr: 0x1DBB0, symBinAddr: 0x10001E8F0, symSize: 0x50 }
  - { offset: 0x50434, size: 0x8, addend: 0x0, symName: __ZNKSt3__129_AllocatorDestroyRangeReverseINS_9allocatorINS_12basic_stringIcNS_11char_traitsIcEENS1_IcEEEEEENS_16reverse_iteratorIPS6_EEEclB8ne180100Ev, symObjAddr: 0x1DC00, symBinAddr: 0x10001E940, symSize: 0xB0 }
  - { offset: 0x5045B, size: 0x8, addend: 0x0, symName: __ZNSt3__116reverse_iteratorINS0_IPNS_12basic_stringIcNS_11char_traitsIcEENS_9allocatorIcEEEEEEEC1B8ne180100ES8_, symObjAddr: 0x1DD20, symBinAddr: 0x10001EA60, symSize: 0x3C }
  - { offset: 0x50493, size: 0x8, addend: 0x0, symName: __ZNSt3__116allocator_traitsINS_9allocatorINS_12basic_stringIcNS_11char_traitsIcEENS1_IcEEEEEEE7destroyB8ne180100IS6_vEEvRS7_PT_, symObjAddr: 0x1DDB8, symBinAddr: 0x10001EAF8, symSize: 0x2C }
  - { offset: 0x504D0, size: 0x8, addend: 0x0, symName: __ZNSt3__116reverse_iteratorINS0_IPNS_12basic_stringIcNS_11char_traitsIcEENS_9allocatorIcEEEEEEEppB8ne180100Ev, symObjAddr: 0x1DE08, symBinAddr: 0x10001EB48, symSize: 0x30 }
  - { offset: 0x504F6, size: 0x8, addend: 0x0, symName: __ZNKSt3__116reverse_iteratorINS0_IPNS_12basic_stringIcNS_11char_traitsIcEENS_9allocatorIcEEEEEEE4baseB8ne180100Ev, symObjAddr: 0x1DE38, symBinAddr: 0x10001EB78, symSize: 0x24 }
  - { offset: 0x5051C, size: 0x8, addend: 0x0, symName: __ZNSt3__19allocatorINS_12basic_stringIcNS_11char_traitsIcEENS0_IcEEEEE7destroyB8ne180100EPS5_, symObjAddr: 0x1DE5C, symBinAddr: 0x10001EB9C, symSize: 0x28 }
  - { offset: 0x50556, size: 0x8, addend: 0x0, symName: __ZNSt3__119__to_address_helperINS_16reverse_iteratorINS1_IPNS_12basic_stringIcNS_11char_traitsIcEENS_9allocatorIcEEEEEEEEvE6__callB8ne180100ERKSA_, symObjAddr: 0x1DE84, symBinAddr: 0x10001EBC4, symSize: 0x38 }
  - { offset: 0x50579, size: 0x8, addend: 0x0, symName: __ZNKSt3__116reverse_iteratorINS0_IPNS_12basic_stringIcNS_11char_traitsIcEENS_9allocatorIcEEEEEEEptB8ne180100Ev, symObjAddr: 0x1DEBC, symBinAddr: 0x10001EBFC, symSize: 0x24 }
  - { offset: 0x5059F, size: 0x8, addend: 0x0, symName: __ZNKSt3__116reverse_iteratorINS0_IPNS_12basic_stringIcNS_11char_traitsIcEENS_9allocatorIcEEEEEEEdeB8ne180100Ev, symObjAddr: 0x1DEE0, symBinAddr: 0x10001EC20, symSize: 0x34 }
  - { offset: 0x505D3, size: 0x8, addend: 0x0, symName: __ZNSt3__116reverse_iteratorIPNS_12basic_stringIcNS_11char_traitsIcEENS_9allocatorIcEEEEEmmB8ne180100Ev, symObjAddr: 0x1DF14, symBinAddr: 0x10001EC54, symSize: 0x20 }
  - { offset: 0x505F9, size: 0x8, addend: 0x0, symName: __ZNSt3__116reverse_iteratorINS0_IPNS_12basic_stringIcNS_11char_traitsIcEENS_9allocatorIcEEEEEEEC2B8ne180100ES8_, symObjAddr: 0x1DF34, symBinAddr: 0x10001EC74, symSize: 0x2C }
  - { offset: 0x50631, size: 0x8, addend: 0x0, symName: __ZNSt3__116reverse_iteratorIPNS_12basic_stringIcNS_11char_traitsIcEENS_9allocatorIcEEEEEC2B8ne180100ES7_, symObjAddr: 0x1DF60, symBinAddr: 0x10001ECA0, symSize: 0x28 }
  - { offset: 0x50669, size: 0x8, addend: 0x0, symName: __ZNSt3__114__split_bufferINS_12basic_stringIcNS_11char_traitsIcEENS_9allocatorIcEEEERNS4_IS6_EEED2Ev, symObjAddr: 0x1DF88, symBinAddr: 0x10001ECC8, symSize: 0x84 }
  - { offset: 0x50695, size: 0x8, addend: 0x0, symName: __ZNSt3__114__split_bufferINS_12basic_stringIcNS_11char_traitsIcEENS_9allocatorIcEEEERNS4_IS6_EEE5clearB8ne180100Ev, symObjAddr: 0x1E00C, symBinAddr: 0x10001ED4C, symSize: 0x28 }
  - { offset: 0x506BB, size: 0x8, addend: 0x0, symName: __ZNSt3__116allocator_traitsINS_9allocatorINS_12basic_stringIcNS_11char_traitsIcEENS1_IcEEEEEEE10deallocateB8ne180100ERS7_PS6_m, symObjAddr: 0x1E034, symBinAddr: 0x10001ED74, symSize: 0x34 }
  - { offset: 0x506FD, size: 0x8, addend: 0x0, symName: __ZNKSt3__114__split_bufferINS_12basic_stringIcNS_11char_traitsIcEENS_9allocatorIcEEEERNS4_IS6_EEE8capacityB8ne180100Ev, symObjAddr: 0x1E068, symBinAddr: 0x10001EDA8, symSize: 0x40 }
  - { offset: 0x50723, size: 0x8, addend: 0x0, symName: __ZNSt3__114__split_bufferINS_12basic_stringIcNS_11char_traitsIcEENS_9allocatorIcEEEERNS4_IS6_EEE17__destruct_at_endB8ne180100EPS6_, symObjAddr: 0x1E0A8, symBinAddr: 0x10001EDE8, symSize: 0x2C }
  - { offset: 0x50757, size: 0x8, addend: 0x0, symName: __ZNSt3__114__split_bufferINS_12basic_stringIcNS_11char_traitsIcEENS_9allocatorIcEEEERNS4_IS6_EEE17__destruct_at_endB8ne180100EPS6_NS_17integral_constantIbLb0EEE, symObjAddr: 0x1E0D4, symBinAddr: 0x10001EE14, symSize: 0x7C }
  - { offset: 0x50797, size: 0x8, addend: 0x0, symName: __ZNSt3__19allocatorINS_12basic_stringIcNS_11char_traitsIcEENS0_IcEEEEE10deallocateB8ne180100EPS5_m, symObjAddr: 0x1E150, symBinAddr: 0x10001EE90, symSize: 0x44 }
  - { offset: 0x507D9, size: 0x8, addend: 0x0, symName: __ZNKSt3__114__split_bufferINS_12basic_stringIcNS_11char_traitsIcEENS_9allocatorIcEEEERNS4_IS6_EEE9__end_capB8ne180100Ev, symObjAddr: 0x1E194, symBinAddr: 0x10001EED4, symSize: 0x28 }
  - { offset: 0x507FF, size: 0x8, addend: 0x0, symName: __ZNKSt3__117__compressed_pairIPNS_12basic_stringIcNS_11char_traitsIcEENS_9allocatorIcEEEERNS4_IS6_EEE5firstB8ne180100Ev, symObjAddr: 0x1E1BC, symBinAddr: 0x10001EEFC, symSize: 0x24 }
  - { offset: 0x50825, size: 0x8, addend: 0x0, symName: __ZNSt3__16vectorINS_12basic_stringIcNS_11char_traitsIcEENS_9allocatorIcEEEENS4_IS6_EEE22__construct_one_at_endB8ne180100IJRKS6_EEEvDpOT_, symObjAddr: 0x1E1E0, symBinAddr: 0x10001EF20, symSize: 0x90 }
  - { offset: 0x50874, size: 0x8, addend: 0x0, symName: __ZNSt3__16vectorINS_12basic_stringIcNS_11char_traitsIcEENS_9allocatorIcEEEENS4_IS6_EEE21__push_back_slow_pathIRKS6_EEPS6_OT_, symObjAddr: 0x1E270, symBinAddr: 0x10001EFB0, symSize: 0xE8 }
  - { offset: 0x508D0, size: 0x8, addend: 0x0, symName: __ZNSt3__116allocator_traitsINS_9allocatorINS_12basic_stringIcNS_11char_traitsIcEENS1_IcEEEEEEE9constructB8ne180100IS6_JRKS6_EvEEvRS7_PT_DpOT0_, symObjAddr: 0x1E358, symBinAddr: 0x10001F098, symSize: 0x34 }
  - { offset: 0x50927, size: 0x8, addend: 0x0, symName: __ZNSt3__19allocatorINS_12basic_stringIcNS_11char_traitsIcEENS0_IcEEEEE9constructB8ne180100IS5_JRKS5_EEEvPT_DpOT0_, symObjAddr: 0x1E38C, symBinAddr: 0x10001F0CC, symSize: 0x30 }
  - { offset: 0x5097D, size: 0x8, addend: 0x0, symName: __ZNSt3__16vectorINS_12basic_stringIcNS_11char_traitsIcEENS_9allocatorIcEEEENS4_IS6_EEE11__make_iterB8ne180100EPS6_, symObjAddr: 0x1E3BC, symBinAddr: 0x10001F0FC, symSize: 0x30 }
  - { offset: 0x509B2, size: 0x8, addend: 0x0, symName: __ZNSt3__111__wrap_iterIPNS_12basic_stringIcNS_11char_traitsIcEENS_9allocatorIcEEEEEC1B8ne180100ES7_, symObjAddr: 0x1E3EC, symBinAddr: 0x10001F12C, symSize: 0x34 }
  - { offset: 0x509EA, size: 0x8, addend: 0x0, symName: __ZNSt3__111__wrap_iterIPNS_12basic_stringIcNS_11char_traitsIcEENS_9allocatorIcEEEEEC2B8ne180100ES7_, symObjAddr: 0x1E420, symBinAddr: 0x10001F160, symSize: 0x20 }
  - { offset: 0x50A22, size: 0x8, addend: 0x0, symName: __ZNSt3__19basic_iosIcNS_11char_traitsIcEEEC2B8ne180100Ev, symObjAddr: 0x1E440, symBinAddr: 0x10001F180, symSize: 0x3C }
  - { offset: 0x50A4C, size: 0x8, addend: 0x0, symName: __ZNSt3__113basic_istreamIcNS_11char_traitsIcEEEC2B8ne180100EPNS_15basic_streambufIcS2_EE, symObjAddr: 0x1E47C, symBinAddr: 0x10001F1BC, symSize: 0x64 }
  - { offset: 0x50A91, size: 0x8, addend: 0x0, symName: __ZNSt3__18ios_baseC2B8ne180100Ev, symObjAddr: 0x1E4E0, symBinAddr: 0x10001F220, symSize: 0x24 }
  - { offset: 0x50ABB, size: 0x8, addend: 0x0, symName: __ZNSt3__19basic_iosIcNS_11char_traitsIcEEE4initB8ne180100EPNS_15basic_streambufIcS2_EE, symObjAddr: 0x1E504, symBinAddr: 0x10001F244, symSize: 0x44 }
  - { offset: 0x50AF2, size: 0x8, addend: 0x0, symName: __ZNKSt3__113basic_filebufIcNS_11char_traitsIcEEE7is_openEv, symObjAddr: 0x1E548, symBinAddr: 0x10001F288, symSize: 0x20 }
  - { offset: 0x50B1A, size: 0x8, addend: 0x0, symName: __ZNKSt3__18ios_base3eofB8ne180100Ev, symObjAddr: 0x1E568, symBinAddr: 0x10001F2A8, symSize: 0x20 }
  - { offset: 0x50B65, size: 0x8, addend: 0x0, symName: __ZNKSt3__113basic_istreamIcNS_11char_traitsIcEEE6sentrycvbB8ne180100Ev, symObjAddr: 0x1E7AC, symBinAddr: 0x10001F4EC, symSize: 0x1C }
  - { offset: 0x50B8B, size: 0x8, addend: 0x0, symName: __ZNSt3__112basic_stringIcNS_11char_traitsIcEENS_9allocatorIcEEE5clearB8ne180100Ev, symObjAddr: 0x1E7C8, symBinAddr: 0x10001F508, symSize: 0x94 }
  - { offset: 0x50BC2, size: 0x8, addend: 0x0, symName: __ZNSt3__115basic_streambufIcNS_11char_traitsIcEEE6sbumpcB8ne180100Ev, symObjAddr: 0x1E85C, symBinAddr: 0x10001F59C, symSize: 0x74 }
  - { offset: 0x50BE8, size: 0x8, addend: 0x0, symName: __ZNSt3__111char_traitsIcE12to_char_typeB8ne180100Ei, symObjAddr: 0x1E8D0, symBinAddr: 0x10001F610, symSize: 0x18 }
  - { offset: 0x50C0C, size: 0x8, addend: 0x0, symName: __ZNKSt3__112basic_stringIcNS_11char_traitsIcEENS_9allocatorIcEEE8max_sizeB8ne180100Ev, symObjAddr: 0x1E8E8, symBinAddr: 0x10001F628, symSize: 0xA8 }
  - { offset: 0x50C5F, size: 0x8, addend: 0x0, symName: __ZNSt3__18ios_base18__setstate_nothrowB8ne180100Ej, symObjAddr: 0x1E990, symBinAddr: 0x10001F6D0, symSize: 0x5C }
  - { offset: 0x50C94, size: 0x8, addend: 0x0, symName: __ZNKSt3__19basic_iosIcNS_11char_traitsIcEEE10exceptionsB8ne180100Ev, symObjAddr: 0x1E9EC, symBinAddr: 0x10001F72C, symSize: 0x24 }
  - { offset: 0x50CBA, size: 0x8, addend: 0x0, symName: __ZNSt3__112basic_stringIcNS_11char_traitsIcEENS_9allocatorIcEEE15__set_long_sizeB8ne180100Em, symObjAddr: 0x1EA10, symBinAddr: 0x10001F750, symSize: 0x38 }
  - { offset: 0x50CEF, size: 0x8, addend: 0x0, symName: __ZNSt3__111char_traitsIcE11to_int_typeB8ne180100Ec, symObjAddr: 0x1EA48, symBinAddr: 0x10001F788, symSize: 0x14 }
  - { offset: 0x50D1E, size: 0x8, addend: 0x0, symName: __ZNSt3__116allocator_traitsINS_9allocatorIcEEE8max_sizeB8ne180100IS2_vEEmRKS2_, symObjAddr: 0x1EA5C, symBinAddr: 0x10001F79C, symSize: 0x24 }
  - { offset: 0x50D4C, size: 0x8, addend: 0x0, symName: __ZNKSt3__112basic_stringIcNS_11char_traitsIcEENS_9allocatorIcEEE7__allocB8ne180100Ev, symObjAddr: 0x1EA80, symBinAddr: 0x10001F7C0, symSize: 0x24 }
  - { offset: 0x50D72, size: 0x8, addend: 0x0, symName: __ZNSt3__114numeric_limitsImE3maxB8ne180100Ev, symObjAddr: 0x1EAA4, symBinAddr: 0x10001F7E4, symSize: 0x14 }
  - { offset: 0x50D86, size: 0x8, addend: 0x0, symName: __ZNKSt3__19allocatorIcE8max_sizeB8ne180100Ev, symObjAddr: 0x1EAB8, symBinAddr: 0x10001F7F8, symSize: 0x14 }
  - { offset: 0x50DAC, size: 0x8, addend: 0x0, symName: __ZNKSt3__117__compressed_pairINS_12basic_stringIcNS_11char_traitsIcEENS_9allocatorIcEEE5__repES5_E6secondB8ne180100Ev, symObjAddr: 0x1EACC, symBinAddr: 0x10001F80C, symSize: 0x24 }
  - { offset: 0x50DD2, size: 0x8, addend: 0x0, symName: __ZNKSt3__122__compressed_pair_elemINS_9allocatorIcEELi1ELb1EE5__getB8ne180100Ev, symObjAddr: 0x1EAF0, symBinAddr: 0x10001F830, symSize: 0x14 }
  - { offset: 0x50DF8, size: 0x8, addend: 0x0, symName: __ZNSt3__123__libcpp_numeric_limitsImLb1EE3maxB8ne180100Ev, symObjAddr: 0x1EB04, symBinAddr: 0x10001F844, symSize: 0x8 }
  - { offset: 0x50E0C, size: 0x8, addend: 0x0, symName: __ZNKSt3__18ios_base10exceptionsB8ne180100Ev, symObjAddr: 0x1EB0C, symBinAddr: 0x10001F84C, symSize: 0x18 }
  - { offset: 0x50E34, size: 0x8, addend: 0x0, symName: __ZNSt3__16vectorINS_12basic_stringIcNS_11char_traitsIcEENS_9allocatorIcEEEENS4_IS6_EEEC2B8ne180100Ev, symObjAddr: 0x1EB24, symBinAddr: 0x10001F864, symSize: 0x4C }
  - { offset: 0x50E5E, size: 0x8, addend: 0x0, symName: __ZNSt3__117__compressed_pairIPNS_12basic_stringIcNS_11char_traitsIcEENS_9allocatorIcEEEENS4_IS6_EEEC1B8ne180100IDnNS_18__default_init_tagEEEOT_OT0_, symObjAddr: 0x1EB70, symBinAddr: 0x10001F8B0, symSize: 0x3C }
  - { offset: 0x50EB6, size: 0x8, addend: 0x0, symName: __ZNSt3__117__compressed_pairIPNS_12basic_stringIcNS_11char_traitsIcEENS_9allocatorIcEEEENS4_IS6_EEEC2B8ne180100IDnNS_18__default_init_tagEEEOT_OT0_, symObjAddr: 0x1EBAC, symBinAddr: 0x10001F8EC, symSize: 0x40 }
  - { offset: 0x50F0E, size: 0x8, addend: 0x0, symName: __ZNSt3__122__compressed_pair_elemINS_9allocatorINS_12basic_stringIcNS_11char_traitsIcEENS1_IcEEEEEELi1ELb1EEC2B8ne180100ENS_18__default_init_tagE, symObjAddr: 0x1EBEC, symBinAddr: 0x10001F92C, symSize: 0x2C }
  - { offset: 0x50F42, size: 0x8, addend: 0x0, symName: __ZNSt3__19allocatorINS_12basic_stringIcNS_11char_traitsIcEENS0_IcEEEEEC2B8ne180100Ev, symObjAddr: 0x1EC18, symBinAddr: 0x10001F958, symSize: 0x2C }
  - { offset: 0x50F6C, size: 0x8, addend: 0x0, symName: __ZNSt3__116__non_trivial_ifILb1ENS_9allocatorINS_12basic_stringIcNS_11char_traitsIcEENS1_IcEEEEEEEC2B8ne180100Ev, symObjAddr: 0x1EC44, symBinAddr: 0x10001F984, symSize: 0x14 }
  - { offset: 0x50F96, size: 0x8, addend: 0x0, symName: __ZNSt3__16vectorINS_12basic_stringIcNS_11char_traitsIcEENS_9allocatorIcEEEENS4_IS6_EEED2B8ne180100Ev, symObjAddr: 0x1EC58, symBinAddr: 0x10001F998, symSize: 0x44 }
  - { offset: 0x50FC0, size: 0x8, addend: 0x0, symName: __ZNSt3__16vectorINS_12basic_stringIcNS_11char_traitsIcEENS_9allocatorIcEEEENS4_IS6_EEE16__destroy_vectorC1B8ne180100ERS8_, symObjAddr: 0x1EC9C, symBinAddr: 0x10001F9DC, symSize: 0x34 }
  - { offset: 0x50FF9, size: 0x8, addend: 0x0, symName: __ZNSt3__16vectorINS_12basic_stringIcNS_11char_traitsIcEENS_9allocatorIcEEEENS4_IS6_EEE16__destroy_vectorclB8ne180100Ev, symObjAddr: 0x1ECD0, symBinAddr: 0x10001FA10, symSize: 0x88 }
  - { offset: 0x5101F, size: 0x8, addend: 0x0, symName: __ZNSt3__16vectorINS_12basic_stringIcNS_11char_traitsIcEENS_9allocatorIcEEEENS4_IS6_EEE16__destroy_vectorC2B8ne180100ERS8_, symObjAddr: 0x1ED58, symBinAddr: 0x10001FA98, symSize: 0x20 }
  - { offset: 0x51058, size: 0x8, addend: 0x0, symName: __ZNSt3__16vectorINS_12basic_stringIcNS_11char_traitsIcEENS_9allocatorIcEEEENS4_IS6_EEE7__clearB8ne180100Ev, symObjAddr: 0x1ED78, symBinAddr: 0x10001FAB8, symSize: 0x28 }
  - { offset: 0x5107E, size: 0x8, addend: 0x0, symName: __ZNSt3__16vectorINS_12basic_stringIcNS_11char_traitsIcEENS_9allocatorIcEEEENS4_IS6_EEE22__base_destruct_at_endB8ne180100EPS6_, symObjAddr: 0x1EDA0, symBinAddr: 0x10001FAE0, symSize: 0x88 }
  - { offset: 0x510C2, size: 0x8, addend: 0x0, symName: __ZNSt3__114basic_iostreamIcNS_11char_traitsIcEEEC2B8ne180100EPNS_15basic_streambufIcS2_EE, symObjAddr: 0x1EE28, symBinAddr: 0x10001FB68, symSize: 0xAC }
  - { offset: 0x51108, size: 0x8, addend: 0x0, symName: __ZNSt3__113basic_filebufIcNS_11char_traitsIcEEE4openERKNS_12basic_stringIcS2_NS_9allocatorIcEEEEj, symObjAddr: 0x1EED4, symBinAddr: 0x10001FC14, symSize: 0x44 }
  - { offset: 0x5114E, size: 0x8, addend: 0x0, symName: __ZNSt3__113basic_ostreamIcNS_11char_traitsIcEEEC2B8ne180100Ev, symObjAddr: 0x1EF18, symBinAddr: 0x10001FC58, symSize: 0x34 }
  - { offset: 0x51185, size: 0x8, addend: 0x0, symName: __ZNSt3__16vectorINS_10shared_ptrI4NodeEENS_9allocatorIS3_EEE22__construct_one_at_endB8ne180100IJS3_EEEvDpOT_, symObjAddr: 0x1EF4C, symBinAddr: 0x10001FC8C, symSize: 0x90 }
  - { offset: 0x511D4, size: 0x8, addend: 0x0, symName: __ZNSt3__16vectorINS_10shared_ptrI4NodeEENS_9allocatorIS3_EEE21__push_back_slow_pathIS3_EEPS3_OT_, symObjAddr: 0x1EFDC, symBinAddr: 0x10001FD1C, symSize: 0xE8 }
  - { offset: 0x51230, size: 0x8, addend: 0x0, symName: __ZNSt3__115basic_streambufIcNS_11char_traitsIcEEE5sgetcB8ne180100Ev, symObjAddr: 0x1F0C4, symBinAddr: 0x10001FE04, symSize: 0x6C }
  - { offset: 0x51256, size: 0x8, addend: 0x0, symName: __ZNKSt3__15ctypeIcE2isB8ne180100Ejc, symObjAddr: 0x1F130, symBinAddr: 0x10001FE70, symSize: 0x74 }
  - { offset: 0x51299, size: 0x8, addend: 0x0, symName: __Z7isasciii, symObjAddr: 0x1F1A4, symBinAddr: 0x10001FEE4, symSize: 0x20 }
  - { offset: 0x512C6, size: 0x8, addend: 0x0, symName: __ZNKSt3__19basic_iosIcNS_11char_traitsIcEEE4failB8ne180100Ev, symObjAddr: 0x1F1C4, symBinAddr: 0x10001FF04, symSize: 0x24 }
  - { offset: 0x512EC, size: 0x8, addend: 0x0, symName: __ZNKSt3__18ios_base4failB8ne180100Ev, symObjAddr: 0x1F1E8, symBinAddr: 0x10001FF28, symSize: 0x24 }
  - { offset: 0x51314, size: 0x8, addend: 0x0, symName: __ZNSt3__120__shared_ptr_emplaceI4NodeNS_9allocatorIS1_EEEC1B8ne180100IJddRmES3_TnNS_9enable_ifIXntsr7is_sameINT0_10value_typeENS_19__for_overwrite_tagEEE5valueEiE4typeELi0EEES3_DpOT_, symObjAddr: 0x1F2B4, symBinAddr: 0x10001FFF4, symSize: 0x44 }
  - { offset: 0x5139E, size: 0x8, addend: 0x0, symName: __ZNSt3__120__shared_ptr_emplaceI4NodeNS_9allocatorIS1_EEEC2B8ne180100IJddRmES3_TnNS_9enable_ifIXntsr7is_sameINT0_10value_typeENS_19__for_overwrite_tagEEE5valueEiE4typeELi0EEES3_DpOT_, symObjAddr: 0x1F2F8, symBinAddr: 0x100020038, symSize: 0xCC }
  - { offset: 0x51449, size: 0x8, addend: 0x0, symName: __ZNSt3__116allocator_traitsINS_9allocatorI4NodeEEE9constructB8ne180100IS2_JddRmEvEEvRS3_PT_DpOT0_, symObjAddr: 0x1F3C4, symBinAddr: 0x100020104, symSize: 0x44 }
  - { offset: 0x514C8, size: 0x8, addend: 0x0, symName: __ZNSt3__19allocatorI4NodeE9constructB8ne180100IS1_JddRmEEEvPT_DpOT0_, symObjAddr: 0x1F408, symBinAddr: 0x100020148, symSize: 0x4C }
  - { offset: 0x51544, size: 0x8, addend: 0x0, symName: __ZN4NodeC1Eddm, symObjAddr: 0x1F454, symBinAddr: 0x100020194, symSize: 0x44 }
  - { offset: 0x51598, size: 0x8, addend: 0x0, symName: __ZN4NodeC2Eddm, symObjAddr: 0x1F498, symBinAddr: 0x1000201D8, symSize: 0x6C }
  - { offset: 0x515EC, size: 0x8, addend: 0x0, symName: __ZNSt3__16vectorIcNS_9allocatorIcEEEC2Em, symObjAddr: 0x1F504, symBinAddr: 0x100020244, symSize: 0xD0 }
  - { offset: 0x5163C, size: 0x8, addend: 0x0, symName: __ZNSt3__117__compressed_pairIPcNS_9allocatorIcEEEC1B8ne180100IDnNS_18__default_init_tagEEEOT_OT0_, symObjAddr: 0x1F5D4, symBinAddr: 0x100020314, symSize: 0x3C }
  - { offset: 0x51694, size: 0x8, addend: 0x0, symName: __ZNSt3__16vectorIcNS_9allocatorIcEEE16__destroy_vectorC1B8ne180100ERS3_, symObjAddr: 0x1F650, symBinAddr: 0x100020390, symSize: 0x34 }
  - { offset: 0x516CD, size: 0x8, addend: 0x0, symName: __ZNSt3__16vectorIcNS_9allocatorIcEEE11__vallocateB8ne180100Em, symObjAddr: 0x1F684, symBinAddr: 0x1000203C4, symSize: 0xA8 }
  - { offset: 0x51711, size: 0x8, addend: 0x0, symName: __ZNSt3__16vectorIcNS_9allocatorIcEEE18__construct_at_endEm, symObjAddr: 0x1F72C, symBinAddr: 0x10002046C, symSize: 0xC4 }
  - { offset: 0x51784, size: 0x8, addend: 0x0, symName: __ZNSt3__128__exception_guard_exceptionsINS_6vectorIcNS_9allocatorIcEEE16__destroy_vectorEE10__completeB8ne180100Ev, symObjAddr: 0x1F7F0, symBinAddr: 0x100020530, symSize: 0x1C }
  - { offset: 0x517AA, size: 0x8, addend: 0x0, symName: __ZNSt3__128__exception_guard_exceptionsINS_6vectorIcNS_9allocatorIcEEE16__destroy_vectorEED1B8ne180100Ev, symObjAddr: 0x1F80C, symBinAddr: 0x10002054C, symSize: 0x2C }
  - { offset: 0x517D4, size: 0x8, addend: 0x0, symName: __ZNSt3__117__compressed_pairIPcNS_9allocatorIcEEEC2B8ne180100IDnNS_18__default_init_tagEEEOT_OT0_, symObjAddr: 0x1F838, symBinAddr: 0x100020578, symSize: 0x40 }
  - { offset: 0x5182C, size: 0x8, addend: 0x0, symName: __ZNSt3__122__compressed_pair_elemIPcLi0ELb0EEC2B8ne180100IDnvEEOT_, symObjAddr: 0x1F878, symBinAddr: 0x1000205B8, symSize: 0x1C }
  - { offset: 0x5186E, size: 0x8, addend: 0x0, symName: __ZNSt3__128__exception_guard_exceptionsINS_6vectorIcNS_9allocatorIcEEE16__destroy_vectorEEC1B8ne180100ES5_, symObjAddr: 0x1F894, symBinAddr: 0x1000205D4, symSize: 0x34 }
  - { offset: 0x518A6, size: 0x8, addend: 0x0, symName: __ZNSt3__128__exception_guard_exceptionsINS_6vectorIcNS_9allocatorIcEEE16__destroy_vectorEEC2B8ne180100ES5_, symObjAddr: 0x1F8C8, symBinAddr: 0x100020608, symSize: 0x24 }
  - { offset: 0x518DE, size: 0x8, addend: 0x0, symName: __ZNSt3__16vectorIcNS_9allocatorIcEEE16__destroy_vectorC2B8ne180100ERS3_, symObjAddr: 0x1F8EC, symBinAddr: 0x10002062C, symSize: 0x20 }
  - { offset: 0x51917, size: 0x8, addend: 0x0, symName: __ZNKSt3__16vectorIcNS_9allocatorIcEEE8max_sizeEv, symObjAddr: 0x1F90C, symBinAddr: 0x10002064C, symSize: 0x60 }
  - { offset: 0x5193F, size: 0x8, addend: 0x0, symName: __ZNKSt3__16vectorIcNS_9allocatorIcEEE20__throw_length_errorB8ne180100Ev, symObjAddr: 0x1F96C, symBinAddr: 0x1000206AC, symSize: 0x1C }
  - { offset: 0x51965, size: 0x8, addend: 0x0, symName: __ZNSt3__16vectorIcNS_9allocatorIcEEE7__allocB8ne180100Ev, symObjAddr: 0x1F9C8, symBinAddr: 0x100020708, symSize: 0x28 }
  - { offset: 0x5198B, size: 0x8, addend: 0x0, symName: __ZNSt3__16vectorIcNS_9allocatorIcEEE9__end_capB8ne180100Ev, symObjAddr: 0x1F9F0, symBinAddr: 0x100020730, symSize: 0x28 }
  - { offset: 0x519B1, size: 0x8, addend: 0x0, symName: __ZNKSt3__16vectorIcNS_9allocatorIcEEE14__annotate_newB8ne180100Em, symObjAddr: 0x1FA18, symBinAddr: 0x100020758, symSize: 0x14 }
  - { offset: 0x519E6, size: 0x8, addend: 0x0, symName: __ZNKSt3__16vectorIcNS_9allocatorIcEEE7__allocB8ne180100Ev, symObjAddr: 0x1FA2C, symBinAddr: 0x10002076C, symSize: 0x28 }
  - { offset: 0x51A0C, size: 0x8, addend: 0x0, symName: __ZNKSt3__117__compressed_pairIPcNS_9allocatorIcEEE6secondB8ne180100Ev, symObjAddr: 0x1FA54, symBinAddr: 0x100020794, symSize: 0x24 }
  - { offset: 0x51A32, size: 0x8, addend: 0x0, symName: __ZNSt3__19allocatorIcE8allocateB8ne180100Em, symObjAddr: 0x1FA78, symBinAddr: 0x1000207B8, symSize: 0x54 }
  - { offset: 0x51A66, size: 0x8, addend: 0x0, symName: __ZNSt3__117__compressed_pairIPcNS_9allocatorIcEEE6secondB8ne180100Ev, symObjAddr: 0x1FACC, symBinAddr: 0x10002080C, symSize: 0x24 }
  - { offset: 0x51A8C, size: 0x8, addend: 0x0, symName: __ZNSt3__117__compressed_pairIPcNS_9allocatorIcEEE5firstB8ne180100Ev, symObjAddr: 0x1FAF0, symBinAddr: 0x100020830, symSize: 0x24 }
  - { offset: 0x51AB2, size: 0x8, addend: 0x0, symName: __ZNSt3__122__compressed_pair_elemIPcLi0ELb0EE5__getB8ne180100Ev, symObjAddr: 0x1FB14, symBinAddr: 0x100020854, symSize: 0x14 }
  - { offset: 0x51AF4, size: 0x8, addend: 0x0, symName: __ZNSt3__16vectorIcNS_9allocatorIcEEE21_ConstructTransactionC1B8ne180100ERS3_m, symObjAddr: 0x1FB28, symBinAddr: 0x100020868, symSize: 0x3C }
  - { offset: 0x51B3C, size: 0x8, addend: 0x0, symName: __ZNSt3__116allocator_traitsINS_9allocatorIcEEE9constructB8ne180100IcJEvEEvRS2_PT_DpOT0_, symObjAddr: 0x1FB64, symBinAddr: 0x1000208A4, symSize: 0x2C }
  - { offset: 0x51B7E, size: 0x8, addend: 0x0, symName: __ZNSt3__16vectorIcNS_9allocatorIcEEE21_ConstructTransactionD1B8ne180100Ev, symObjAddr: 0x1FB90, symBinAddr: 0x1000208D0, symSize: 0x2C }
  - { offset: 0x51BA8, size: 0x8, addend: 0x0, symName: __ZNSt3__16vectorIcNS_9allocatorIcEEE21_ConstructTransactionC2B8ne180100ERS3_m, symObjAddr: 0x1FBBC, symBinAddr: 0x1000208FC, symSize: 0x44 }
  - { offset: 0x51BF0, size: 0x8, addend: 0x0, symName: __ZNSt3__19allocatorIcE9constructB8ne180100IcJEEEvPT_DpOT0_, symObjAddr: 0x1FC00, symBinAddr: 0x100020940, symSize: 0x1C }
  - { offset: 0x51C32, size: 0x8, addend: 0x0, symName: __ZNSt3__16vectorIcNS_9allocatorIcEEE21_ConstructTransactionD2B8ne180100Ev, symObjAddr: 0x1FC1C, symBinAddr: 0x10002095C, symSize: 0x20 }
  - { offset: 0x51C5C, size: 0x8, addend: 0x0, symName: __ZNSt3__128__exception_guard_exceptionsINS_6vectorIcNS_9allocatorIcEEE16__destroy_vectorEED2B8ne180100Ev, symObjAddr: 0x1FC3C, symBinAddr: 0x10002097C, symSize: 0x50 }
  - { offset: 0x51C86, size: 0x8, addend: 0x0, symName: __ZNSt3__16vectorIcNS_9allocatorIcEEE16__destroy_vectorclB8ne180100Ev, symObjAddr: 0x1FC8C, symBinAddr: 0x1000209CC, symSize: 0x88 }
  - { offset: 0x51CAC, size: 0x8, addend: 0x0, symName: __ZNSt3__16vectorIcNS_9allocatorIcEEE7__clearB8ne180100Ev, symObjAddr: 0x1FD14, symBinAddr: 0x100020A54, symSize: 0x28 }
  - { offset: 0x51CD2, size: 0x8, addend: 0x0, symName: __ZNKSt3__16vectorIcNS_9allocatorIcEEE17__annotate_deleteB8ne180100Ev, symObjAddr: 0x1FD3C, symBinAddr: 0x100020A7C, symSize: 0x10 }
  - { offset: 0x51CF8, size: 0x8, addend: 0x0, symName: __ZNKSt3__16vectorIcNS_9allocatorIcEEE8capacityB8ne180100Ev, symObjAddr: 0x1FD4C, symBinAddr: 0x100020A8C, symSize: 0x38 }
  - { offset: 0x51D1E, size: 0x8, addend: 0x0, symName: __ZNSt3__16vectorIcNS_9allocatorIcEEE22__base_destruct_at_endB8ne180100EPc, symObjAddr: 0x1FD84, symBinAddr: 0x100020AC4, symSize: 0x88 }
  - { offset: 0x51D62, size: 0x8, addend: 0x0, symName: __ZNSt3__116allocator_traitsINS_9allocatorIcEEE7destroyB8ne180100IcvEEvRS2_PT_, symObjAddr: 0x1FE0C, symBinAddr: 0x100020B4C, symSize: 0x2C }
  - { offset: 0x51D9F, size: 0x8, addend: 0x0, symName: __ZNSt3__19allocatorIcE7destroyB8ne180100EPc, symObjAddr: 0x1FE38, symBinAddr: 0x100020B78, symSize: 0x14 }
  - { offset: 0x51DD3, size: 0x8, addend: 0x0, symName: __ZNKSt3__16vectorIcNS_9allocatorIcEEE9__end_capB8ne180100Ev, symObjAddr: 0x1FE4C, symBinAddr: 0x100020B8C, symSize: 0x28 }
  - { offset: 0x51DF9, size: 0x8, addend: 0x0, symName: __ZNKSt3__117__compressed_pairIPcNS_9allocatorIcEEE5firstB8ne180100Ev, symObjAddr: 0x1FE74, symBinAddr: 0x100020BB4, symSize: 0x24 }
  - { offset: 0x51E1F, size: 0x8, addend: 0x0, symName: __ZNKSt3__122__compressed_pair_elemIPcLi0ELb0EE5__getB8ne180100Ev, symObjAddr: 0x1FE98, symBinAddr: 0x100020BD8, symSize: 0x14 }
  - { offset: 0x51E45, size: 0x8, addend: 0x0, symName: __ZNSt3__16vectorIcNS_9allocatorIcEEED2B8ne180100Ev, symObjAddr: 0x1FEAC, symBinAddr: 0x100020BEC, symSize: 0x40 }
  - { offset: 0x51E6F, size: 0x8, addend: 0x0, symName: __ZNSt3__16vectorINS0_IcNS_9allocatorIcEEEENS1_IS3_EEEC2EmRKS3_, symObjAddr: 0x1FEEC, symBinAddr: 0x100020C2C, symSize: 0xD8 }
  - { offset: 0x51ECE, size: 0x8, addend: 0x0, symName: __ZNSt3__117__compressed_pairIPNS_6vectorIcNS_9allocatorIcEEEENS2_IS4_EEEC1B8ne180100IDnNS_18__default_init_tagEEEOT_OT0_, symObjAddr: 0x1FFC4, symBinAddr: 0x100020D04, symSize: 0x3C }
  - { offset: 0x51F26, size: 0x8, addend: 0x0, symName: __ZNSt3__16vectorINS0_IcNS_9allocatorIcEEEENS1_IS3_EEE16__destroy_vectorC1B8ne180100ERS5_, symObjAddr: 0x20040, symBinAddr: 0x100020D80, symSize: 0x34 }
  - { offset: 0x51F5F, size: 0x8, addend: 0x0, symName: __ZNSt3__16vectorINS0_IcNS_9allocatorIcEEEENS1_IS3_EEE11__vallocateB8ne180100Em, symObjAddr: 0x20074, symBinAddr: 0x100020DB4, symSize: 0xB0 }
  - { offset: 0x51FA3, size: 0x8, addend: 0x0, symName: __ZNSt3__16vectorINS0_IcNS_9allocatorIcEEEENS1_IS3_EEE18__construct_at_endEmRKS3_, symObjAddr: 0x20124, symBinAddr: 0x100020E64, symSize: 0xCC }
  - { offset: 0x52025, size: 0x8, addend: 0x0, symName: __ZNSt3__128__exception_guard_exceptionsINS_6vectorINS1_IcNS_9allocatorIcEEEENS2_IS4_EEE16__destroy_vectorEE10__completeB8ne180100Ev, symObjAddr: 0x201F0, symBinAddr: 0x100020F30, symSize: 0x1C }
  - { offset: 0x5204B, size: 0x8, addend: 0x0, symName: __ZNSt3__128__exception_guard_exceptionsINS_6vectorINS1_IcNS_9allocatorIcEEEENS2_IS4_EEE16__destroy_vectorEED1B8ne180100Ev, symObjAddr: 0x2020C, symBinAddr: 0x100020F4C, symSize: 0x2C }
  - { offset: 0x52075, size: 0x8, addend: 0x0, symName: __ZNSt3__117__compressed_pairIPNS_6vectorIcNS_9allocatorIcEEEENS2_IS4_EEEC2B8ne180100IDnNS_18__default_init_tagEEEOT_OT0_, symObjAddr: 0x20238, symBinAddr: 0x100020F78, symSize: 0x40 }
  - { offset: 0x520CD, size: 0x8, addend: 0x0, symName: __ZNSt3__122__compressed_pair_elemIPNS_6vectorIcNS_9allocatorIcEEEELi0ELb0EEC2B8ne180100IDnvEEOT_, symObjAddr: 0x20278, symBinAddr: 0x100020FB8, symSize: 0x1C }
  - { offset: 0x5210F, size: 0x8, addend: 0x0, symName: __ZNSt3__122__compressed_pair_elemINS_9allocatorINS_6vectorIcNS1_IcEEEEEELi1ELb1EEC2B8ne180100ENS_18__default_init_tagE, symObjAddr: 0x20294, symBinAddr: 0x100020FD4, symSize: 0x2C }
  - { offset: 0x52143, size: 0x8, addend: 0x0, symName: __ZNSt3__19allocatorINS_6vectorIcNS0_IcEEEEEC2B8ne180100Ev, symObjAddr: 0x202C0, symBinAddr: 0x100021000, symSize: 0x2C }
  - { offset: 0x5216D, size: 0x8, addend: 0x0, symName: __ZNSt3__116__non_trivial_ifILb1ENS_9allocatorINS_6vectorIcNS1_IcEEEEEEEC2B8ne180100Ev, symObjAddr: 0x202EC, symBinAddr: 0x10002102C, symSize: 0x14 }
  - { offset: 0x52197, size: 0x8, addend: 0x0, symName: __ZNSt3__128__exception_guard_exceptionsINS_6vectorINS1_IcNS_9allocatorIcEEEENS2_IS4_EEE16__destroy_vectorEEC1B8ne180100ES7_, symObjAddr: 0x20300, symBinAddr: 0x100021040, symSize: 0x34 }
  - { offset: 0x521CF, size: 0x8, addend: 0x0, symName: __ZNSt3__128__exception_guard_exceptionsINS_6vectorINS1_IcNS_9allocatorIcEEEENS2_IS4_EEE16__destroy_vectorEEC2B8ne180100ES7_, symObjAddr: 0x20334, symBinAddr: 0x100021074, symSize: 0x24 }
  - { offset: 0x52207, size: 0x8, addend: 0x0, symName: __ZNSt3__16vectorINS0_IcNS_9allocatorIcEEEENS1_IS3_EEE16__destroy_vectorC2B8ne180100ERS5_, symObjAddr: 0x20358, symBinAddr: 0x100021098, symSize: 0x20 }
  - { offset: 0x52240, size: 0x8, addend: 0x0, symName: __ZNKSt3__16vectorINS0_IcNS_9allocatorIcEEEENS1_IS3_EEE8max_sizeEv, symObjAddr: 0x20378, symBinAddr: 0x1000210B8, symSize: 0x60 }
  - { offset: 0x52268, size: 0x8, addend: 0x0, symName: __ZNKSt3__16vectorINS0_IcNS_9allocatorIcEEEENS1_IS3_EEE20__throw_length_errorB8ne180100Ev, symObjAddr: 0x203D8, symBinAddr: 0x100021118, symSize: 0x1C }
  - { offset: 0x5228E, size: 0x8, addend: 0x0, symName: __ZNSt3__16vectorINS0_IcNS_9allocatorIcEEEENS1_IS3_EEE7__allocB8ne180100Ev, symObjAddr: 0x20434, symBinAddr: 0x100021174, symSize: 0x28 }
  - { offset: 0x522B4, size: 0x8, addend: 0x0, symName: __ZNSt3__16vectorINS0_IcNS_9allocatorIcEEEENS1_IS3_EEE9__end_capB8ne180100Ev, symObjAddr: 0x2045C, symBinAddr: 0x10002119C, symSize: 0x28 }
  - { offset: 0x522DA, size: 0x8, addend: 0x0, symName: __ZNKSt3__16vectorINS0_IcNS_9allocatorIcEEEENS1_IS3_EEE14__annotate_newB8ne180100Em, symObjAddr: 0x20484, symBinAddr: 0x1000211C4, symSize: 0x14 }
  - { offset: 0x5231A, size: 0x8, addend: 0x0, symName: __ZNSt3__116allocator_traitsINS_9allocatorINS_6vectorIcNS1_IcEEEEEEE8max_sizeB8ne180100IS5_vEEmRKS5_, symObjAddr: 0x20498, symBinAddr: 0x1000211D8, symSize: 0x24 }
  - { offset: 0x52348, size: 0x8, addend: 0x0, symName: __ZNKSt3__16vectorINS0_IcNS_9allocatorIcEEEENS1_IS3_EEE7__allocB8ne180100Ev, symObjAddr: 0x204BC, symBinAddr: 0x1000211FC, symSize: 0x28 }
  - { offset: 0x5236E, size: 0x8, addend: 0x0, symName: __ZNKSt3__19allocatorINS_6vectorIcNS0_IcEEEEE8max_sizeB8ne180100Ev, symObjAddr: 0x204E4, symBinAddr: 0x100021224, symSize: 0x18 }
  - { offset: 0x52394, size: 0x8, addend: 0x0, symName: __ZNKSt3__117__compressed_pairIPNS_6vectorIcNS_9allocatorIcEEEENS2_IS4_EEE6secondB8ne180100Ev, symObjAddr: 0x204FC, symBinAddr: 0x10002123C, symSize: 0x24 }
  - { offset: 0x523BA, size: 0x8, addend: 0x0, symName: __ZNKSt3__122__compressed_pair_elemINS_9allocatorINS_6vectorIcNS1_IcEEEEEELi1ELb1EE5__getB8ne180100Ev, symObjAddr: 0x20520, symBinAddr: 0x100021260, symSize: 0x14 }
  - { offset: 0x523E0, size: 0x8, addend: 0x0, symName: __ZNSt3__19allocatorINS_6vectorIcNS0_IcEEEEE8allocateB8ne180100Em, symObjAddr: 0x20534, symBinAddr: 0x100021274, symSize: 0x58 }
  - { offset: 0x52414, size: 0x8, addend: 0x0, symName: __ZNSt3__117__compressed_pairIPNS_6vectorIcNS_9allocatorIcEEEENS2_IS4_EEE6secondB8ne180100Ev, symObjAddr: 0x2058C, symBinAddr: 0x1000212CC, symSize: 0x24 }
  - { offset: 0x5243A, size: 0x8, addend: 0x0, symName: __ZNSt3__122__compressed_pair_elemINS_9allocatorINS_6vectorIcNS1_IcEEEEEELi1ELb1EE5__getB8ne180100Ev, symObjAddr: 0x205B0, symBinAddr: 0x1000212F0, symSize: 0x14 }
  - { offset: 0x52460, size: 0x8, addend: 0x0, symName: __ZNSt3__117__compressed_pairIPNS_6vectorIcNS_9allocatorIcEEEENS2_IS4_EEE5firstB8ne180100Ev, symObjAddr: 0x205C4, symBinAddr: 0x100021304, symSize: 0x24 }
  - { offset: 0x52486, size: 0x8, addend: 0x0, symName: __ZNSt3__122__compressed_pair_elemIPNS_6vectorIcNS_9allocatorIcEEEELi0ELb0EE5__getB8ne180100Ev, symObjAddr: 0x205E8, symBinAddr: 0x100021328, symSize: 0x14 }
  - { offset: 0x524C8, size: 0x8, addend: 0x0, symName: __ZNSt3__16vectorINS0_IcNS_9allocatorIcEEEENS1_IS3_EEE21_ConstructTransactionC1B8ne180100ERS5_m, symObjAddr: 0x205FC, symBinAddr: 0x10002133C, symSize: 0x3C }
  - { offset: 0x52510, size: 0x8, addend: 0x0, symName: __ZNSt3__116allocator_traitsINS_9allocatorINS_6vectorIcNS1_IcEEEEEEE9constructB8ne180100IS4_JRKS4_EvEEvRS5_PT_DpOT0_, symObjAddr: 0x20638, symBinAddr: 0x100021378, symSize: 0x34 }
  - { offset: 0x52567, size: 0x8, addend: 0x0, symName: __ZNSt3__16vectorINS0_IcNS_9allocatorIcEEEENS1_IS3_EEE21_ConstructTransactionD1B8ne180100Ev, symObjAddr: 0x20680, symBinAddr: 0x1000213C0, symSize: 0x2C }
  - { offset: 0x52591, size: 0x8, addend: 0x0, symName: __ZNSt3__16vectorINS0_IcNS_9allocatorIcEEEENS1_IS3_EEE21_ConstructTransactionC2B8ne180100ERS5_m, symObjAddr: 0x206AC, symBinAddr: 0x1000213EC, symSize: 0x4C }
  - { offset: 0x525D9, size: 0x8, addend: 0x0, symName: __ZNSt3__19allocatorINS_6vectorIcNS0_IcEEEEE9constructB8ne180100IS3_JRKS3_EEEvPT_DpOT0_, symObjAddr: 0x206F8, symBinAddr: 0x100021438, symSize: 0x30 }
  - { offset: 0x5262F, size: 0x8, addend: 0x0, symName: __ZNSt3__16vectorIcNS_9allocatorIcEEEC1ERKS3_, symObjAddr: 0x20728, symBinAddr: 0x100021468, symSize: 0x34 }
  - { offset: 0x5266A, size: 0x8, addend: 0x0, symName: __ZNSt3__16vectorIcNS_9allocatorIcEEEC2ERKS3_, symObjAddr: 0x2075C, symBinAddr: 0x10002149C, symSize: 0x94 }
  - { offset: 0x526A5, size: 0x8, addend: 0x0, symName: __ZNSt3__116allocator_traitsINS_9allocatorIcEEE37select_on_container_copy_constructionB8ne180100IS2_vvEES2_RKS2_, symObjAddr: 0x207F0, symBinAddr: 0x100021530, symSize: 0x10 }
  - { offset: 0x526DA, size: 0x8, addend: 0x0, symName: __ZNSt3__117__compressed_pairIPcNS_9allocatorIcEEEC1B8ne180100IDnS3_EEOT_OT0_, symObjAddr: 0x20800, symBinAddr: 0x100021540, symSize: 0x3C }
  - { offset: 0x52732, size: 0x8, addend: 0x0, symName: __ZNSt3__16vectorIcNS_9allocatorIcEEE16__init_with_sizeB8ne180100IPcS5_EEvT_T0_m, symObjAddr: 0x2083C, symBinAddr: 0x10002157C, symSize: 0xB4 }
  - { offset: 0x527A6, size: 0x8, addend: 0x0, symName: __ZNKSt3__16vectorIcNS_9allocatorIcEEE4sizeB8ne180100Ev, symObjAddr: 0x208F0, symBinAddr: 0x100021630, symSize: 0x20 }
  - { offset: 0x527CC, size: 0x8, addend: 0x0, symName: __ZNSt3__117__compressed_pairIPcNS_9allocatorIcEEEC2B8ne180100IDnS3_EEOT_OT0_, symObjAddr: 0x20910, symBinAddr: 0x100021650, symSize: 0x44 }
  - { offset: 0x52824, size: 0x8, addend: 0x0, symName: __ZNSt3__122__compressed_pair_elemINS_9allocatorIcEELi1ELb1EEC2B8ne180100IS2_vEEOT_, symObjAddr: 0x20954, symBinAddr: 0x100021694, symSize: 0x18 }
  - { offset: 0x52866, size: 0x8, addend: 0x0, symName: __ZNSt3__16vectorIcNS_9allocatorIcEEE18__construct_at_endIPcS5_EEvT_T0_m, symObjAddr: 0x2096C, symBinAddr: 0x1000216AC, symSize: 0x8C }
  - { offset: 0x528FD, size: 0x8, addend: 0x0, symName: __ZNSt3__14pairIPcS1_EC1B8ne180100IS1_S1_TnNS_9enable_ifIXclsr10_CheckArgsE17__enable_implicitIT_T0_EEEiE4typeELi0EEEOS5_OS6_, symObjAddr: 0x20BA8, symBinAddr: 0x1000218E8, symSize: 0x3C }
  - { offset: 0x5295B, size: 0x8, addend: 0x0, symName: __ZNSt3__14pairIPcS1_EC2B8ne180100IS1_S1_TnNS_9enable_ifIXclsr10_CheckArgsE17__enable_implicitIT_T0_EEEiE4typeELi0EEEOS5_OS6_, symObjAddr: 0x20BE4, symBinAddr: 0x100021924, symSize: 0x34 }
  - { offset: 0x529B9, size: 0x8, addend: 0x0, symName: __ZNKSt3__114__copy_trivialclB8ne180100IccTnNS_9enable_ifIXsr38__can_lower_copy_assignment_to_memmoveIT_T0_EE5valueEiE4typeELi0EEENS_4pairIPS3_PS4_EES8_S8_S9_, symObjAddr: 0x20D94, symBinAddr: 0x100021AD4, symSize: 0x48 }
  - { offset: 0x52A21, size: 0x8, addend: 0x0, symName: __ZNSt3__14pairIPcS1_EC1B8ne180100IRS1_S1_TnNS_9enable_ifIXclsr10_CheckArgsE17__enable_implicitIT_T0_EEEiE4typeELi0EEEOS6_OS7_, symObjAddr: 0x20F18, symBinAddr: 0x100021C58, symSize: 0x3C }
  - { offset: 0x52A7F, size: 0x8, addend: 0x0, symName: __ZNSt3__14pairIPcS1_EC2B8ne180100IRS1_S1_TnNS_9enable_ifIXclsr10_CheckArgsE17__enable_implicitIT_T0_EEEiE4typeELi0EEEOS6_OS7_, symObjAddr: 0x20F54, symBinAddr: 0x100021C94, symSize: 0x34 }
  - { offset: 0x52ADD, size: 0x8, addend: 0x0, symName: __ZNSt3__118__unwrap_iter_implIPcLb1EE8__unwrapB8ne180100ES1_, symObjAddr: 0x20F88, symBinAddr: 0x100021CC8, symSize: 0x24 }
  - { offset: 0x52B00, size: 0x8, addend: 0x0, symName: __ZNSt3__118__unwrap_iter_implIPcLb1EE8__rewrapB8ne180100ES1_S1_, symObjAddr: 0x20FAC, symBinAddr: 0x100021CEC, symSize: 0x48 }
  - { offset: 0x52B31, size: 0x8, addend: 0x0, symName: __ZNSt3__16vectorINS0_IcNS_9allocatorIcEEEENS1_IS3_EEE21_ConstructTransactionD2B8ne180100Ev, symObjAddr: 0x20FF4, symBinAddr: 0x100021D34, symSize: 0x20 }
  - { offset: 0x52B5B, size: 0x8, addend: 0x0, symName: __ZNSt3__128__exception_guard_exceptionsINS_6vectorINS1_IcNS_9allocatorIcEEEENS2_IS4_EEE16__destroy_vectorEED2B8ne180100Ev, symObjAddr: 0x21014, symBinAddr: 0x100021D54, symSize: 0x50 }
  - { offset: 0x52B85, size: 0x8, addend: 0x0, symName: __ZNSt3__16vectorINS0_IcNS_9allocatorIcEEEENS1_IS3_EEE16__destroy_vectorclB8ne180100Ev, symObjAddr: 0x21064, symBinAddr: 0x100021DA4, symSize: 0x88 }
  - { offset: 0x52BAB, size: 0x8, addend: 0x0, symName: __ZNSt3__16vectorINS0_IcNS_9allocatorIcEEEENS1_IS3_EEE7__clearB8ne180100Ev, symObjAddr: 0x210EC, symBinAddr: 0x100021E2C, symSize: 0x28 }
  - { offset: 0x52BD1, size: 0x8, addend: 0x0, symName: __ZNKSt3__16vectorINS0_IcNS_9allocatorIcEEEENS1_IS3_EEE17__annotate_deleteB8ne180100Ev, symObjAddr: 0x21114, symBinAddr: 0x100021E54, symSize: 0x10 }
  - { offset: 0x52BF7, size: 0x8, addend: 0x0, symName: __ZNSt3__116allocator_traitsINS_9allocatorINS_6vectorIcNS1_IcEEEEEEE10deallocateB8ne180100ERS5_PS4_m, symObjAddr: 0x21124, symBinAddr: 0x100021E64, symSize: 0x34 }
  - { offset: 0x52C39, size: 0x8, addend: 0x0, symName: __ZNKSt3__16vectorINS0_IcNS_9allocatorIcEEEENS1_IS3_EEE8capacityB8ne180100Ev, symObjAddr: 0x21158, symBinAddr: 0x100021E98, symSize: 0x40 }
  - { offset: 0x52C5F, size: 0x8, addend: 0x0, symName: __ZNSt3__16vectorINS0_IcNS_9allocatorIcEEEENS1_IS3_EEE22__base_destruct_at_endB8ne180100EPS3_, symObjAddr: 0x21198, symBinAddr: 0x100021ED8, symSize: 0x88 }
  - { offset: 0x52CA3, size: 0x8, addend: 0x0, symName: __ZNSt3__116allocator_traitsINS_9allocatorINS_6vectorIcNS1_IcEEEEEEE7destroyB8ne180100IS4_vEEvRS5_PT_, symObjAddr: 0x21220, symBinAddr: 0x100021F60, symSize: 0x2C }
  - { offset: 0x52CE0, size: 0x8, addend: 0x0, symName: __ZNSt3__19allocatorINS_6vectorIcNS0_IcEEEEE7destroyB8ne180100EPS3_, symObjAddr: 0x2124C, symBinAddr: 0x100021F8C, symSize: 0x28 }
  - { offset: 0x52D14, size: 0x8, addend: 0x0, symName: __ZNSt3__19allocatorINS_6vectorIcNS0_IcEEEEE10deallocateB8ne180100EPS3_m, symObjAddr: 0x21274, symBinAddr: 0x100021FB4, symSize: 0x44 }
  - { offset: 0x52D56, size: 0x8, addend: 0x0, symName: __ZNKSt3__16vectorINS0_IcNS_9allocatorIcEEEENS1_IS3_EEE9__end_capB8ne180100Ev, symObjAddr: 0x212B8, symBinAddr: 0x100021FF8, symSize: 0x28 }
  - { offset: 0x52D7C, size: 0x8, addend: 0x0, symName: __ZNKSt3__117__compressed_pairIPNS_6vectorIcNS_9allocatorIcEEEENS2_IS4_EEE5firstB8ne180100Ev, symObjAddr: 0x212E0, symBinAddr: 0x100022020, symSize: 0x24 }
  - { offset: 0x52DA2, size: 0x8, addend: 0x0, symName: __ZNKSt3__122__compressed_pair_elemIPNS_6vectorIcNS_9allocatorIcEEEELi0ELb0EE5__getB8ne180100Ev, symObjAddr: 0x21304, symBinAddr: 0x100022044, symSize: 0x14 }
  - { offset: 0x52DC8, size: 0x8, addend: 0x0, symName: __ZNSt3__16vectorINS0_IcNS_9allocatorIcEEEENS1_IS3_EEED2B8ne180100Ev, symObjAddr: 0x21318, symBinAddr: 0x100022058, symSize: 0x40 }
  - { offset: 0x52DF2, size: 0x8, addend: 0x0, symName: __ZNSt3__113unordered_mapINS_4pairIddEEm9pair_hashNS_8equal_toIS2_EENS_9allocatorINS1_IKS2_mEEEEEC2B8ne180100Ev, symObjAddr: 0x21358, symBinAddr: 0x100022098, symSize: 0x2C }
  - { offset: 0x52E1C, size: 0x8, addend: 0x0, symName: __ZNSt3__112__hash_tableINS_17__hash_value_typeINS_4pairIddEEmEENS_22__unordered_map_hasherIS3_S4_9pair_hashNS_8equal_toIS3_EELb1EEENS_21__unordered_map_equalIS3_S4_S8_S6_Lb1EEENS_9allocatorIS4_EEEC1Ev, symObjAddr: 0x21384, symBinAddr: 0x1000220C4, symSize: 0x2C }
  - { offset: 0x52E48, size: 0x8, addend: 0x0, symName: __ZNSt3__112__hash_tableINS_17__hash_value_typeINS_4pairIddEEmEENS_22__unordered_map_hasherIS3_S4_9pair_hashNS_8equal_toIS3_EELb1EEENS_21__unordered_map_equalIS3_S4_S8_S6_Lb1EEENS_9allocatorIS4_EEEC2Ev, symObjAddr: 0x213B0, symBinAddr: 0x1000220F0, symSize: 0x7C }
  - { offset: 0x52E74, size: 0x8, addend: 0x0, symName: __ZNSt3__110unique_ptrIA_PNS_16__hash_node_baseIPNS_11__hash_nodeINS_17__hash_value_typeINS_4pairIddEEmEEPvEEEENS_25__bucket_list_deallocatorINS_9allocatorISB_EEEEEC1B8ne180100ILb1EvEEv, symObjAddr: 0x2142C, symBinAddr: 0x10002216C, symSize: 0x2C }
  - { offset: 0x52EA9, size: 0x8, addend: 0x0, symName: __ZNSt3__117__compressed_pairINS_16__hash_node_baseIPNS_11__hash_nodeINS_17__hash_value_typeINS_4pairIddEEmEEPvEEEENS_9allocatorIS8_EEEC1B8ne180100ILb1EvEEv, symObjAddr: 0x21458, symBinAddr: 0x100022198, symSize: 0x2C }
  - { offset: 0x52EDE, size: 0x8, addend: 0x0, symName: __ZNSt3__117__compressed_pairImNS_22__unordered_map_hasherINS_4pairIddEENS_17__hash_value_typeIS3_mEE9pair_hashNS_8equal_toIS3_EELb1EEEEC1B8ne180100IiNS_18__default_init_tagEEEOT_OT0_, symObjAddr: 0x21484, symBinAddr: 0x1000221C4, symSize: 0x3C }
  - { offset: 0x52F36, size: 0x8, addend: 0x0, symName: __ZNSt3__117__compressed_pairIfNS_21__unordered_map_equalINS_4pairIddEENS_17__hash_value_typeIS3_mEENS_8equal_toIS3_EE9pair_hashLb1EEEEC1B8ne180100IfNS_18__default_init_tagEEEOT_OT0_, symObjAddr: 0x214C0, symBinAddr: 0x100022200, symSize: 0x3C }
  - { offset: 0x52F8E, size: 0x8, addend: 0x0, symName: __ZNSt3__110unique_ptrIA_PNS_16__hash_node_baseIPNS_11__hash_nodeINS_17__hash_value_typeINS_4pairIddEEmEEPvEEEENS_25__bucket_list_deallocatorINS_9allocatorISB_EEEEEC2B8ne180100ILb1EvEEv, symObjAddr: 0x214FC, symBinAddr: 0x10002223C, symSize: 0x3C }
  - { offset: 0x52FC3, size: 0x8, addend: 0x0, symName: __ZNSt3__117__compressed_pairIPPNS_16__hash_node_baseIPNS_11__hash_nodeINS_17__hash_value_typeINS_4pairIddEEmEEPvEEEENS_25__bucket_list_deallocatorINS_9allocatorISB_EEEEEC1B8ne180100INS_16__value_init_tagESJ_EEOT_OT0_, symObjAddr: 0x21538, symBinAddr: 0x100022278, symSize: 0x3C }
  - { offset: 0x5301B, size: 0x8, addend: 0x0, symName: __ZNSt3__117__compressed_pairIPPNS_16__hash_node_baseIPNS_11__hash_nodeINS_17__hash_value_typeINS_4pairIddEEmEEPvEEEENS_25__bucket_list_deallocatorINS_9allocatorISB_EEEEEC2B8ne180100INS_16__value_init_tagESJ_EEOT_OT0_, symObjAddr: 0x21574, symBinAddr: 0x1000222B4, symSize: 0x40 }
  - { offset: 0x53073, size: 0x8, addend: 0x0, symName: __ZNSt3__122__compressed_pair_elemIPPNS_16__hash_node_baseIPNS_11__hash_nodeINS_17__hash_value_typeINS_4pairIddEEmEEPvEEEELi0ELb0EEC2B8ne180100ENS_16__value_init_tagE, symObjAddr: 0x215B4, symBinAddr: 0x1000222F4, symSize: 0x18 }
  - { offset: 0x530A7, size: 0x8, addend: 0x0, symName: __ZNSt3__122__compressed_pair_elemINS_25__bucket_list_deallocatorINS_9allocatorIPNS_16__hash_node_baseIPNS_11__hash_nodeINS_17__hash_value_typeINS_4pairIddEEmEEPvEEEEEEEELi1ELb0EEC2B8ne180100ENS_16__value_init_tagE, symObjAddr: 0x215CC, symBinAddr: 0x10002230C, symSize: 0x2C }
  - { offset: 0x530DB, size: 0x8, addend: 0x0, symName: __ZNSt3__125__bucket_list_deallocatorINS_9allocatorIPNS_16__hash_node_baseIPNS_11__hash_nodeINS_17__hash_value_typeINS_4pairIddEEmEEPvEEEEEEEC1B8ne180100Ev, symObjAddr: 0x215F8, symBinAddr: 0x100022338, symSize: 0x2C }
  - { offset: 0x53105, size: 0x8, addend: 0x0, symName: __ZNSt3__125__bucket_list_deallocatorINS_9allocatorIPNS_16__hash_node_baseIPNS_11__hash_nodeINS_17__hash_value_typeINS_4pairIddEEmEEPvEEEEEEEC2B8ne180100Ev, symObjAddr: 0x21624, symBinAddr: 0x100022364, symSize: 0x40 }
  - { offset: 0x5312F, size: 0x8, addend: 0x0, symName: __ZNSt3__117__compressed_pairImNS_9allocatorIPNS_16__hash_node_baseIPNS_11__hash_nodeINS_17__hash_value_typeINS_4pairIddEEmEEPvEEEEEEEC1B8ne180100IiNS_18__default_init_tagEEEOT_OT0_, symObjAddr: 0x21664, symBinAddr: 0x1000223A4, symSize: 0x3C }
  - { offset: 0x53187, size: 0x8, addend: 0x0, symName: __ZNSt3__117__compressed_pairImNS_9allocatorIPNS_16__hash_node_baseIPNS_11__hash_nodeINS_17__hash_value_typeINS_4pairIddEEmEEPvEEEEEEEC2B8ne180100IiNS_18__default_init_tagEEEOT_OT0_, symObjAddr: 0x216A0, symBinAddr: 0x1000223E0, symSize: 0x40 }
  - { offset: 0x531DF, size: 0x8, addend: 0x0, symName: __ZNSt3__122__compressed_pair_elemINS_9allocatorIPNS_16__hash_node_baseIPNS_11__hash_nodeINS_17__hash_value_typeINS_4pairIddEEmEEPvEEEEEELi1ELb1EEC2B8ne180100ENS_18__default_init_tagE, symObjAddr: 0x216E0, symBinAddr: 0x100022420, symSize: 0x2C }
  - { offset: 0x53213, size: 0x8, addend: 0x0, symName: __ZNSt3__19allocatorIPNS_16__hash_node_baseIPNS_11__hash_nodeINS_17__hash_value_typeINS_4pairIddEEmEEPvEEEEEC2B8ne180100Ev, symObjAddr: 0x2170C, symBinAddr: 0x10002244C, symSize: 0x2C }
  - { offset: 0x5323D, size: 0x8, addend: 0x0, symName: __ZNSt3__116__non_trivial_ifILb1ENS_9allocatorIPNS_16__hash_node_baseIPNS_11__hash_nodeINS_17__hash_value_typeINS_4pairIddEEmEEPvEEEEEEEC2B8ne180100Ev, symObjAddr: 0x21738, symBinAddr: 0x100022478, symSize: 0x14 }
  - { offset: 0x53267, size: 0x8, addend: 0x0, symName: __ZNSt3__117__compressed_pairINS_16__hash_node_baseIPNS_11__hash_nodeINS_17__hash_value_typeINS_4pairIddEEmEEPvEEEENS_9allocatorIS8_EEEC2B8ne180100ILb1EvEEv, symObjAddr: 0x2174C, symBinAddr: 0x10002248C, symSize: 0x34 }
  - { offset: 0x5329C, size: 0x8, addend: 0x0, symName: __ZNSt3__122__compressed_pair_elemINS_16__hash_node_baseIPNS_11__hash_nodeINS_17__hash_value_typeINS_4pairIddEEmEEPvEEEELi0ELb0EEC2B8ne180100ENS_16__value_init_tagE, symObjAddr: 0x21780, symBinAddr: 0x1000224C0, symSize: 0x2C }
  - { offset: 0x532D0, size: 0x8, addend: 0x0, symName: __ZNSt3__122__compressed_pair_elemINS_9allocatorINS_11__hash_nodeINS_17__hash_value_typeINS_4pairIddEEmEEPvEEEELi1ELb1EEC2B8ne180100ENS_16__value_init_tagE, symObjAddr: 0x217AC, symBinAddr: 0x1000224EC, symSize: 0x2C }
  - { offset: 0x53304, size: 0x8, addend: 0x0, symName: __ZNSt3__116__hash_node_baseIPNS_11__hash_nodeINS_17__hash_value_typeINS_4pairIddEEmEEPvEEEC1B8ne180100Ev, symObjAddr: 0x217D8, symBinAddr: 0x100022518, symSize: 0x2C }
  - { offset: 0x5332E, size: 0x8, addend: 0x0, symName: __ZNSt3__116__hash_node_baseIPNS_11__hash_nodeINS_17__hash_value_typeINS_4pairIddEEmEEPvEEEC2B8ne180100Ev, symObjAddr: 0x21804, symBinAddr: 0x100022544, symSize: 0x18 }
  - { offset: 0x53358, size: 0x8, addend: 0x0, symName: __ZNSt3__19allocatorINS_11__hash_nodeINS_17__hash_value_typeINS_4pairIddEEmEEPvEEEC2B8ne180100Ev, symObjAddr: 0x2181C, symBinAddr: 0x10002255C, symSize: 0x2C }
  - { offset: 0x53382, size: 0x8, addend: 0x0, symName: __ZNSt3__116__non_trivial_ifILb1ENS_9allocatorINS_11__hash_nodeINS_17__hash_value_typeINS_4pairIddEEmEEPvEEEEEC2B8ne180100Ev, symObjAddr: 0x21848, symBinAddr: 0x100022588, symSize: 0x14 }
  - { offset: 0x533AC, size: 0x8, addend: 0x0, symName: __ZNSt3__117__compressed_pairImNS_22__unordered_map_hasherINS_4pairIddEENS_17__hash_value_typeIS3_mEE9pair_hashNS_8equal_toIS3_EELb1EEEEC2B8ne180100IiNS_18__default_init_tagEEEOT_OT0_, symObjAddr: 0x2185C, symBinAddr: 0x10002259C, symSize: 0x40 }
  - { offset: 0x53404, size: 0x8, addend: 0x0, symName: __ZNSt3__122__compressed_pair_elemINS_22__unordered_map_hasherINS_4pairIddEENS_17__hash_value_typeIS3_mEE9pair_hashNS_8equal_toIS3_EELb1EEELi1ELb1EEC2B8ne180100ENS_18__default_init_tagE, symObjAddr: 0x2189C, symBinAddr: 0x1000225DC, symSize: 0x2C }
  - { offset: 0x53438, size: 0x8, addend: 0x0, symName: __ZNSt3__122__unordered_map_hasherINS_4pairIddEENS_17__hash_value_typeIS2_mEE9pair_hashNS_8equal_toIS2_EELb1EEC2B8ne180100Ev, symObjAddr: 0x218C8, symBinAddr: 0x100022608, symSize: 0x14 }
  - { offset: 0x53462, size: 0x8, addend: 0x0, symName: __ZNSt3__117__compressed_pairIfNS_21__unordered_map_equalINS_4pairIddEENS_17__hash_value_typeIS3_mEENS_8equal_toIS3_EE9pair_hashLb1EEEEC2B8ne180100IfNS_18__default_init_tagEEEOT_OT0_, symObjAddr: 0x218DC, symBinAddr: 0x10002261C, symSize: 0x40 }
  - { offset: 0x534BA, size: 0x8, addend: 0x0, symName: __ZNSt3__122__compressed_pair_elemINS_21__unordered_map_equalINS_4pairIddEENS_17__hash_value_typeIS3_mEENS_8equal_toIS3_EE9pair_hashLb1EEELi1ELb1EEC2B8ne180100ENS_18__default_init_tagE, symObjAddr: 0x2191C, symBinAddr: 0x10002265C, symSize: 0x2C }
  - { offset: 0x534EE, size: 0x8, addend: 0x0, symName: __ZNSt3__121__unordered_map_equalINS_4pairIddEENS_17__hash_value_typeIS2_mEENS_8equal_toIS2_EE9pair_hashLb1EEC2B8ne180100Ev, symObjAddr: 0x21948, symBinAddr: 0x100022688, symSize: 0x14 }
  - { offset: 0x53518, size: 0x8, addend: 0x0, symName: __ZNSt3__113unordered_mapINS_4pairIddEEm9pair_hashNS_8equal_toIS2_EENS_9allocatorINS1_IKS2_mEEEEED2B8ne180100Ev, symObjAddr: 0x2195C, symBinAddr: 0x10002269C, symSize: 0x2C }
  - { offset: 0x53542, size: 0x8, addend: 0x0, symName: __ZNSt3__112__hash_tableINS_17__hash_value_typeINS_4pairIddEEmEENS_22__unordered_map_hasherIS3_S4_9pair_hashNS_8equal_toIS3_EELb1EEENS_21__unordered_map_equalIS3_S4_S8_S6_Lb1EEENS_9allocatorIS4_EEED1Ev, symObjAddr: 0x21988, symBinAddr: 0x1000226C8, symSize: 0x2C }
  - { offset: 0x5356E, size: 0x8, addend: 0x0, symName: __ZNSt3__112__hash_tableINS_17__hash_value_typeINS_4pairIddEEmEENS_22__unordered_map_hasherIS3_S4_9pair_hashNS_8equal_toIS3_EELb1EEENS_21__unordered_map_equalIS3_S4_S8_S6_Lb1EEENS_9allocatorIS4_EEED2Ev, symObjAddr: 0x219B4, symBinAddr: 0x1000226F4, symSize: 0x48 }
  - { offset: 0x5359A, size: 0x8, addend: 0x0, symName: __ZNSt3__112__hash_tableINS_17__hash_value_typeINS_4pairIddEEmEENS_22__unordered_map_hasherIS3_S4_9pair_hashNS_8equal_toIS3_EELb1EEENS_21__unordered_map_equalIS3_S4_S8_S6_Lb1EEENS_9allocatorIS4_EEE17__deallocate_nodeEPNS_16__hash_node_baseIPNS_11__hash_nodeIS4_PvEEEE, symObjAddr: 0x219FC, symBinAddr: 0x10002273C, symSize: 0xB8 }
  - { offset: 0x53604, size: 0x8, addend: 0x0, symName: __ZNSt3__117__compressed_pairINS_16__hash_node_baseIPNS_11__hash_nodeINS_17__hash_value_typeINS_4pairIddEEmEEPvEEEENS_9allocatorIS8_EEE5firstB8ne180100Ev, symObjAddr: 0x21AB4, symBinAddr: 0x1000227F4, symSize: 0x24 }
  - { offset: 0x5362A, size: 0x8, addend: 0x0, symName: __ZNSt3__110unique_ptrIA_PNS_16__hash_node_baseIPNS_11__hash_nodeINS_17__hash_value_typeINS_4pairIddEEmEEPvEEEENS_25__bucket_list_deallocatorINS_9allocatorISB_EEEEED1B8ne180100Ev, symObjAddr: 0x21AD8, symBinAddr: 0x100022818, symSize: 0x2C }
  - { offset: 0x53654, size: 0x8, addend: 0x0, symName: __ZNSt3__112__hash_tableINS_17__hash_value_typeINS_4pairIddEEmEENS_22__unordered_map_hasherIS3_S4_9pair_hashNS_8equal_toIS3_EELb1EEENS_21__unordered_map_equalIS3_S4_S8_S6_Lb1EEENS_9allocatorIS4_EEE12__node_allocB8ne180100Ev, symObjAddr: 0x21B04, symBinAddr: 0x100022844, symSize: 0x28 }
  - { offset: 0x5367A, size: 0x8, addend: 0x0, symName: __ZNSt3__116__hash_node_baseIPNS_11__hash_nodeINS_17__hash_value_typeINS_4pairIddEEmEEPvEEE8__upcastB8ne180100Ev, symObjAddr: 0x21B2C, symBinAddr: 0x10002286C, symSize: 0x24 }
  - { offset: 0x536A0, size: 0x8, addend: 0x0, symName: __ZNSt3__116allocator_traitsINS_9allocatorINS_11__hash_nodeINS_17__hash_value_typeINS_4pairIddEEmEEPvEEEEE7destroyB8ne180100INS4_IKS5_mEEvvEEvRS9_PT_, symObjAddr: 0x21B50, symBinAddr: 0x100022890, symSize: 0x28 }
  - { offset: 0x536DB, size: 0x8, addend: 0x0, symName: __ZNSt3__122__hash_key_value_typesINS_17__hash_value_typeINS_4pairIddEEmEEE9__get_ptrB8ne180100ERS4_, symObjAddr: 0x21B78, symBinAddr: 0x1000228B8, symSize: 0x24 }
  - { offset: 0x536FE, size: 0x8, addend: 0x0, symName: __ZNSt3__111__hash_nodeINS_17__hash_value_typeINS_4pairIddEEmEEPvE11__get_valueB8ne180100Ev, symObjAddr: 0x21B9C, symBinAddr: 0x1000228DC, symSize: 0x18 }
  - { offset: 0x53724, size: 0x8, addend: 0x0, symName: __ZNSt3__116allocator_traitsINS_9allocatorINS_11__hash_nodeINS_17__hash_value_typeINS_4pairIddEEmEEPvEEEEE10deallocateB8ne180100ERS9_PS8_m, symObjAddr: 0x21BD8, symBinAddr: 0x100022918, symSize: 0x34 }
  - { offset: 0x53766, size: 0x8, addend: 0x0, symName: __ZNSt3__117__compressed_pairINS_16__hash_node_baseIPNS_11__hash_nodeINS_17__hash_value_typeINS_4pairIddEEmEEPvEEEENS_9allocatorIS8_EEE6secondB8ne180100Ev, symObjAddr: 0x21C0C, symBinAddr: 0x10002294C, symSize: 0x24 }
  - { offset: 0x5378C, size: 0x8, addend: 0x0, symName: __ZNSt3__122__compressed_pair_elemINS_9allocatorINS_11__hash_nodeINS_17__hash_value_typeINS_4pairIddEEmEEPvEEEELi1ELb1EE5__getB8ne180100Ev, symObjAddr: 0x21C30, symBinAddr: 0x100022970, symSize: 0x14 }
  - { offset: 0x537B2, size: 0x8, addend: 0x0, symName: __ZNSt3__114pointer_traitsIPNS_16__hash_node_baseIPNS_11__hash_nodeINS_17__hash_value_typeINS_4pairIddEEmEEPvEEEEE10pointer_toB8ne180100ERSA_, symObjAddr: 0x21C44, symBinAddr: 0x100022984, symSize: 0x14 }
  - { offset: 0x537D5, size: 0x8, addend: 0x0, symName: __ZNSt3__117__hash_value_typeINS_4pairIddEEmE11__get_valueB8ne180100Ev, symObjAddr: 0x21C68, symBinAddr: 0x1000229A8, symSize: 0x24 }
  - { offset: 0x537FB, size: 0x8, addend: 0x0, symName: __ZNSt3__111__hash_nodeINS_17__hash_value_typeINS_4pairIddEEmEEPvED1B8ne180100Ev, symObjAddr: 0x21CC4, symBinAddr: 0x100022A04, symSize: 0x2C }
  - { offset: 0x53825, size: 0x8, addend: 0x0, symName: __ZNSt3__111__hash_nodeINS_17__hash_value_typeINS_4pairIddEEmEEPvED2B8ne180100Ev, symObjAddr: 0x21CF0, symBinAddr: 0x100022A30, symSize: 0x14 }
  - { offset: 0x5384F, size: 0x8, addend: 0x0, symName: __ZNSt3__19allocatorINS_11__hash_nodeINS_17__hash_value_typeINS_4pairIddEEmEEPvEEE10deallocateB8ne180100EPS7_m, symObjAddr: 0x21D04, symBinAddr: 0x100022A44, symSize: 0x44 }
  - { offset: 0x53891, size: 0x8, addend: 0x0, symName: __ZNSt3__122__compressed_pair_elemINS_16__hash_node_baseIPNS_11__hash_nodeINS_17__hash_value_typeINS_4pairIddEEmEEPvEEEELi0ELb0EE5__getB8ne180100Ev, symObjAddr: 0x21D48, symBinAddr: 0x100022A88, symSize: 0x14 }
  - { offset: 0x538B7, size: 0x8, addend: 0x0, symName: __ZNSt3__110unique_ptrIA_PNS_16__hash_node_baseIPNS_11__hash_nodeINS_17__hash_value_typeINS_4pairIddEEmEEPvEEEENS_25__bucket_list_deallocatorINS_9allocatorISB_EEEEED2B8ne180100Ev, symObjAddr: 0x21D5C, symBinAddr: 0x100022A9C, symSize: 0x30 }
  - { offset: 0x538E1, size: 0x8, addend: 0x0, symName: __ZNSt3__110unique_ptrIA_PNS_16__hash_node_baseIPNS_11__hash_nodeINS_17__hash_value_typeINS_4pairIddEEmEEPvEEEENS_25__bucket_list_deallocatorINS_9allocatorISB_EEEEE5resetB8ne180100EDn, symObjAddr: 0x21D8C, symBinAddr: 0x100022ACC, symSize: 0x64 }
  - { offset: 0x53922, size: 0x8, addend: 0x0, symName: __ZNSt3__117__compressed_pairIPPNS_16__hash_node_baseIPNS_11__hash_nodeINS_17__hash_value_typeINS_4pairIddEEmEEPvEEEENS_25__bucket_list_deallocatorINS_9allocatorISB_EEEEE5firstB8ne180100Ev, symObjAddr: 0x21DF0, symBinAddr: 0x100022B30, symSize: 0x24 }
  - { offset: 0x53948, size: 0x8, addend: 0x0, symName: __ZNSt3__117__compressed_pairIPPNS_16__hash_node_baseIPNS_11__hash_nodeINS_17__hash_value_typeINS_4pairIddEEmEEPvEEEENS_25__bucket_list_deallocatorINS_9allocatorISB_EEEEE6secondB8ne180100Ev, symObjAddr: 0x21E14, symBinAddr: 0x100022B54, symSize: 0x28 }
  - { offset: 0x5396E, size: 0x8, addend: 0x0, symName: __ZNSt3__125__bucket_list_deallocatorINS_9allocatorIPNS_16__hash_node_baseIPNS_11__hash_nodeINS_17__hash_value_typeINS_4pairIddEEmEEPvEEEEEEEclB8ne180100EPSC_, symObjAddr: 0x21E3C, symBinAddr: 0x100022B7C, symSize: 0x58 }
  - { offset: 0x539A3, size: 0x8, addend: 0x0, symName: __ZNSt3__122__compressed_pair_elemIPPNS_16__hash_node_baseIPNS_11__hash_nodeINS_17__hash_value_typeINS_4pairIddEEmEEPvEEEELi0ELb0EE5__getB8ne180100Ev, symObjAddr: 0x21E94, symBinAddr: 0x100022BD4, symSize: 0x14 }
  - { offset: 0x539C9, size: 0x8, addend: 0x0, symName: __ZNSt3__122__compressed_pair_elemINS_25__bucket_list_deallocatorINS_9allocatorIPNS_16__hash_node_baseIPNS_11__hash_nodeINS_17__hash_value_typeINS_4pairIddEEmEEPvEEEEEEEELi1ELb0EE5__getB8ne180100Ev, symObjAddr: 0x21EA8, symBinAddr: 0x100022BE8, symSize: 0x14 }
  - { offset: 0x539EF, size: 0x8, addend: 0x0, symName: __ZNSt3__116allocator_traitsINS_9allocatorIPNS_16__hash_node_baseIPNS_11__hash_nodeINS_17__hash_value_typeINS_4pairIddEEmEEPvEEEEEEE10deallocateB8ne180100ERSD_PSC_m, symObjAddr: 0x21EBC, symBinAddr: 0x100022BFC, symSize: 0x34 }
  - { offset: 0x53A31, size: 0x8, addend: 0x0, symName: __ZNSt3__125__bucket_list_deallocatorINS_9allocatorIPNS_16__hash_node_baseIPNS_11__hash_nodeINS_17__hash_value_typeINS_4pairIddEEmEEPvEEEEEEE7__allocB8ne180100Ev, symObjAddr: 0x21EF0, symBinAddr: 0x100022C30, symSize: 0x24 }
  - { offset: 0x53A57, size: 0x8, addend: 0x0, symName: __ZNSt3__125__bucket_list_deallocatorINS_9allocatorIPNS_16__hash_node_baseIPNS_11__hash_nodeINS_17__hash_value_typeINS_4pairIddEEmEEPvEEEEEEE4sizeB8ne180100Ev, symObjAddr: 0x21F14, symBinAddr: 0x100022C54, symSize: 0x24 }
  - { offset: 0x53A7D, size: 0x8, addend: 0x0, symName: __ZNSt3__19allocatorIPNS_16__hash_node_baseIPNS_11__hash_nodeINS_17__hash_value_typeINS_4pairIddEEmEEPvEEEEE10deallocateB8ne180100EPSB_m, symObjAddr: 0x21F38, symBinAddr: 0x100022C78, symSize: 0x40 }
  - { offset: 0x53ABF, size: 0x8, addend: 0x0, symName: __ZNSt3__117__compressed_pairImNS_9allocatorIPNS_16__hash_node_baseIPNS_11__hash_nodeINS_17__hash_value_typeINS_4pairIddEEmEEPvEEEEEEE6secondB8ne180100Ev, symObjAddr: 0x21F78, symBinAddr: 0x100022CB8, symSize: 0x24 }
  - { offset: 0x53AE5, size: 0x8, addend: 0x0, symName: __ZNSt3__122__compressed_pair_elemINS_9allocatorIPNS_16__hash_node_baseIPNS_11__hash_nodeINS_17__hash_value_typeINS_4pairIddEEmEEPvEEEEEELi1ELb1EE5__getB8ne180100Ev, symObjAddr: 0x21F9C, symBinAddr: 0x100022CDC, symSize: 0x14 }
  - { offset: 0x53B0B, size: 0x8, addend: 0x0, symName: __ZNSt3__117__compressed_pairImNS_9allocatorIPNS_16__hash_node_baseIPNS_11__hash_nodeINS_17__hash_value_typeINS_4pairIddEEmEEPvEEEEEEE5firstB8ne180100Ev, symObjAddr: 0x21FB0, symBinAddr: 0x100022CF0, symSize: 0x24 }
  - { offset: 0x53B31, size: 0x8, addend: 0x0, symName: __ZNSt3__112basic_stringIcNS_11char_traitsIcEENS_9allocatorIcEEE13__fits_in_ssoB8ne180100Em, symObjAddr: 0x21FD4, symBinAddr: 0x100022D14, symSize: 0x1C }
  - { offset: 0x53B55, size: 0x8, addend: 0x0, symName: __ZNSt3__120__shared_ptr_emplaceI4NodeNS_9allocatorIS1_EEEC1B8ne180100IJRiS6_RmES3_TnNS_9enable_ifIXntsr7is_sameINT0_10value_typeENS_19__for_overwrite_tagEEE5valueEiE4typeELi0EEES3_DpOT_, symObjAddr: 0x22098, symBinAddr: 0x100022DD8, symSize: 0x44 }
  - { offset: 0x53BDF, size: 0x8, addend: 0x0, symName: __ZNSt3__120__shared_ptr_emplaceI4NodeNS_9allocatorIS1_EEEC2B8ne180100IJRiS6_RmES3_TnNS_9enable_ifIXntsr7is_sameINT0_10value_typeENS_19__for_overwrite_tagEEE5valueEiE4typeELi0EEES3_DpOT_, symObjAddr: 0x220DC, symBinAddr: 0x100022E1C, symSize: 0xCC }
  - { offset: 0x53C8A, size: 0x8, addend: 0x0, symName: __ZNSt3__116allocator_traitsINS_9allocatorI4NodeEEE9constructB8ne180100IS2_JRiS6_RmEvEEvRS3_PT_DpOT0_, symObjAddr: 0x221A8, symBinAddr: 0x100022EE8, symSize: 0x44 }
  - { offset: 0x53D09, size: 0x8, addend: 0x0, symName: __ZNSt3__19allocatorI4NodeE9constructB8ne180100IS1_JRiS4_RmEEEvPT_DpOT0_, symObjAddr: 0x221EC, symBinAddr: 0x100022F2C, symSize: 0x64 }
  - { offset: 0x53D9D, size: 0x8, addend: 0x0, symName: __ZNSt3__112__hash_tableINS_17__hash_value_typeINS_4pairIddEEmEENS_22__unordered_map_hasherIS3_S4_9pair_hashNS_8equal_toIS3_EELb1EEENS_21__unordered_map_equalIS3_S4_S8_S6_Lb1EEENS_9allocatorIS4_EEE25__emplace_unique_key_argsIS3_JRKNS_21piecewise_construct_tENS_5tupleIJOS3_EEENSJ_IJEEEEEENS2_INS_15__hash_iteratorIPNS_11__hash_nodeIS4_PvEEEEbEERKT_DpOT0_, symObjAddr: 0x22250, symBinAddr: 0x100022F90, symSize: 0x490 }
  - { offset: 0x53EA5, size: 0x8, addend: 0x0, symName: __ZNKSt3__115__hash_iteratorIPNS_11__hash_nodeINS_17__hash_value_typeINS_4pairIddEEmEEPvEEEptB8ne180100Ev, symObjAddr: 0x22710, symBinAddr: 0x100023450, symSize: 0x30 }
  - { offset: 0x53ECB, size: 0x8, addend: 0x0, symName: __ZNSt3__112__hash_tableINS_17__hash_value_typeINS_4pairIddEEmEENS_22__unordered_map_hasherIS3_S4_9pair_hashNS_8equal_toIS3_EELb1EEENS_21__unordered_map_equalIS3_S4_S8_S6_Lb1EEENS_9allocatorIS4_EEE13hash_functionB8ne180100Ev, symObjAddr: 0x22740, symBinAddr: 0x100023480, symSize: 0x28 }
  - { offset: 0x53EF1, size: 0x8, addend: 0x0, symName: __ZNKSt3__122__unordered_map_hasherINS_4pairIddEENS_17__hash_value_typeIS2_mEE9pair_hashNS_8equal_toIS2_EELb1EEclB8ne180100ERKS2_, symObjAddr: 0x22768, symBinAddr: 0x1000234A8, symSize: 0x2C }
  - { offset: 0x53F26, size: 0x8, addend: 0x0, symName: __ZNKSt3__112__hash_tableINS_17__hash_value_typeINS_4pairIddEEmEENS_22__unordered_map_hasherIS3_S4_9pair_hashNS_8equal_toIS3_EELb1EEENS_21__unordered_map_equalIS3_S4_S8_S6_Lb1EEENS_9allocatorIS4_EEE12bucket_countB8ne180100Ev, symObjAddr: 0x22794, symBinAddr: 0x1000234D4, symSize: 0x28 }
  - { offset: 0x53F4C, size: 0x8, addend: 0x0, symName: __ZNKSt3__110unique_ptrIA_PNS_16__hash_node_baseIPNS_11__hash_nodeINS_17__hash_value_typeINS_4pairIddEEmEEPvEEEENS_25__bucket_list_deallocatorINS_9allocatorISB_EEEEEixB8ne180100Em, symObjAddr: 0x227BC, symBinAddr: 0x1000234FC, symSize: 0x34 }
  - { offset: 0x53F81, size: 0x8, addend: 0x0, symName: __ZNKSt3__116__hash_node_baseIPNS_11__hash_nodeINS_17__hash_value_typeINS_4pairIddEEmEEPvEEE6__hashB8ne180100Ev, symObjAddr: 0x227F0, symBinAddr: 0x100023530, symSize: 0x18 }
  - { offset: 0x53FA7, size: 0x8, addend: 0x0, symName: __ZNSt3__112__hash_tableINS_17__hash_value_typeINS_4pairIddEEmEENS_22__unordered_map_hasherIS3_S4_9pair_hashNS_8equal_toIS3_EELb1EEENS_21__unordered_map_equalIS3_S4_S8_S6_Lb1EEENS_9allocatorIS4_EEE6key_eqB8ne180100Ev, symObjAddr: 0x22808, symBinAddr: 0x100023548, symSize: 0x28 }
  - { offset: 0x53FCD, size: 0x8, addend: 0x0, symName: __ZNKSt3__121__unordered_map_equalINS_4pairIddEENS_17__hash_value_typeIS2_mEENS_8equal_toIS2_EE9pair_hashLb1EEclB8ne180100ERKS4_RKS2_, symObjAddr: 0x22830, symBinAddr: 0x100023570, symSize: 0x44 }
  - { offset: 0x54011, size: 0x8, addend: 0x0, symName: __ZNSt3__112__hash_tableINS_17__hash_value_typeINS_4pairIddEEmEENS_22__unordered_map_hasherIS3_S4_9pair_hashNS_8equal_toIS3_EELb1EEENS_21__unordered_map_equalIS3_S4_S8_S6_Lb1EEENS_9allocatorIS4_EEE21__construct_node_hashIRKNS_21piecewise_construct_tEJNS_5tupleIJOS3_EEENSJ_IJEEEEEENS_10unique_ptrINS_11__hash_nodeIS4_PvEENS_22__hash_node_destructorINSC_ISQ_EEEEEEmOT_DpOT0_, symObjAddr: 0x22874, symBinAddr: 0x1000235B4, symSize: 0x14C }
  - { offset: 0x540AB, size: 0x8, addend: 0x0, symName: __ZNSt3__112__hash_tableINS_17__hash_value_typeINS_4pairIddEEmEENS_22__unordered_map_hasherIS3_S4_9pair_hashNS_8equal_toIS3_EELb1EEENS_21__unordered_map_equalIS3_S4_S8_S6_Lb1EEENS_9allocatorIS4_EEE4sizeB8ne180100Ev, symObjAddr: 0x229C0, symBinAddr: 0x100023700, symSize: 0x28 }
  - { offset: 0x540D1, size: 0x8, addend: 0x0, symName: __ZNSt3__112__hash_tableINS_17__hash_value_typeINS_4pairIddEEmEENS_22__unordered_map_hasherIS3_S4_9pair_hashNS_8equal_toIS3_EELb1EEENS_21__unordered_map_equalIS3_S4_S8_S6_Lb1EEENS_9allocatorIS4_EEE15max_load_factorB8ne180100Ev, symObjAddr: 0x229E8, symBinAddr: 0x100023728, symSize: 0x28 }
  - { offset: 0x540F7, size: 0x8, addend: 0x0, symName: __ZNSt3__112__hash_tableINS_17__hash_value_typeINS_4pairIddEEmEENS_22__unordered_map_hasherIS3_S4_9pair_hashNS_8equal_toIS3_EELb1EEENS_21__unordered_map_equalIS3_S4_S8_S6_Lb1EEENS_9allocatorIS4_EEE15__rehash_uniqueB8ne180100Em, symObjAddr: 0x22A10, symBinAddr: 0x100023750, symSize: 0x2C }
  - { offset: 0x5412C, size: 0x8, addend: 0x0, symName: __ZNSt3__116__hash_node_baseIPNS_11__hash_nodeINS_17__hash_value_typeINS_4pairIddEEmEEPvEEE5__ptrB8ne180100Ev, symObjAddr: 0x22A3C, symBinAddr: 0x10002377C, symSize: 0x24 }
  - { offset: 0x54152, size: 0x8, addend: 0x0, symName: __ZNKSt3__110unique_ptrINS_11__hash_nodeINS_17__hash_value_typeINS_4pairIddEEmEEPvEENS_22__hash_node_destructorINS_9allocatorIS7_EEEEEptB8ne180100Ev, symObjAddr: 0x22A60, symBinAddr: 0x1000237A0, symSize: 0x28 }
  - { offset: 0x54178, size: 0x8, addend: 0x0, symName: __ZNKSt3__110unique_ptrINS_11__hash_nodeINS_17__hash_value_typeINS_4pairIddEEmEEPvEENS_22__hash_node_destructorINS_9allocatorIS7_EEEEE3getB8ne180100Ev, symObjAddr: 0x22A88, symBinAddr: 0x1000237C8, symSize: 0x28 }
  - { offset: 0x5419E, size: 0x8, addend: 0x0, symName: __ZNSt3__110unique_ptrINS_11__hash_nodeINS_17__hash_value_typeINS_4pairIddEEmEEPvEENS_22__hash_node_destructorINS_9allocatorIS7_EEEEE7releaseB8ne180100Ev, symObjAddr: 0x22AB0, symBinAddr: 0x1000237F0, symSize: 0x44 }
  - { offset: 0x541D3, size: 0x8, addend: 0x0, symName: __ZNSt3__110unique_ptrINS_11__hash_nodeINS_17__hash_value_typeINS_4pairIddEEmEEPvEENS_22__hash_node_destructorINS_9allocatorIS7_EEEEED1B8ne180100Ev, symObjAddr: 0x22AF4, symBinAddr: 0x100023834, symSize: 0x2C }
  - { offset: 0x541FD, size: 0x8, addend: 0x0, symName: __ZNSt3__115__hash_iteratorIPNS_11__hash_nodeINS_17__hash_value_typeINS_4pairIddEEmEEPvEEEC1B8ne180100EPNS_16__hash_node_baseIS8_EE, symObjAddr: 0x22B20, symBinAddr: 0x100023860, symSize: 0x34 }
  - { offset: 0x5423C, size: 0x8, addend: 0x0, symName: __ZNSt3__14pairINS_15__hash_iteratorIPNS_11__hash_nodeINS_17__hash_value_typeINS0_IddEEmEEPvEEEEbEC1B8ne180100IS9_RbTnNS_9enable_ifIXclsr10_CheckArgsE17__enable_implicitIT_T0_EEEiE4typeELi0EEEOSE_OSF_, symObjAddr: 0x22B54, symBinAddr: 0x100023894, symSize: 0x3C }
  - { offset: 0x5429A, size: 0x8, addend: 0x0, symName: __ZNSt3__117__compressed_pairImNS_22__unordered_map_hasherINS_4pairIddEENS_17__hash_value_typeIS3_mEE9pair_hashNS_8equal_toIS3_EELb1EEEE6secondB8ne180100Ev, symObjAddr: 0x22B90, symBinAddr: 0x1000238D0, symSize: 0x24 }
  - { offset: 0x542C0, size: 0x8, addend: 0x0, symName: __ZNSt3__122__compressed_pair_elemINS_22__unordered_map_hasherINS_4pairIddEENS_17__hash_value_typeIS3_mEE9pair_hashNS_8equal_toIS3_EELb1EEELi1ELb1EE5__getB8ne180100Ev, symObjAddr: 0x22BB4, symBinAddr: 0x1000238F4, symSize: 0x14 }
  - { offset: 0x542EC, size: 0x8, addend: 0x0, symName: __ZNK9pair_hashclIddEEmRKNSt3__14pairIT_T0_EE, symObjAddr: 0x22BC8, symBinAddr: 0x100023908, symSize: 0x80 }
  - { offset: 0x54367, size: 0x8, addend: 0x0, symName: __ZNKSt3__14hashIdEclB8ne180100Ed, symObjAddr: 0x22C48, symBinAddr: 0x100023988, symSize: 0x58 }
  - { offset: 0x5439C, size: 0x8, addend: 0x0, symName: __ZNKSt3__113__scalar_hashIdLm1EEclB8ne180100Ed, symObjAddr: 0x22CA0, symBinAddr: 0x1000239E0, symSize: 0x20 }
  - { offset: 0x54402, size: 0x8, addend: 0x0, symName: __ZNKSt3__110unique_ptrIA_PNS_16__hash_node_baseIPNS_11__hash_nodeINS_17__hash_value_typeINS_4pairIddEEmEEPvEEEENS_25__bucket_list_deallocatorINS_9allocatorISB_EEEEE11get_deleterB8ne180100Ev, symObjAddr: 0x22CC0, symBinAddr: 0x100023A00, symSize: 0x24 }
  - { offset: 0x54428, size: 0x8, addend: 0x0, symName: __ZNKSt3__125__bucket_list_deallocatorINS_9allocatorIPNS_16__hash_node_baseIPNS_11__hash_nodeINS_17__hash_value_typeINS_4pairIddEEmEEPvEEEEEEE4sizeB8ne180100Ev, symObjAddr: 0x22CE4, symBinAddr: 0x100023A24, symSize: 0x28 }
  - { offset: 0x5444E, size: 0x8, addend: 0x0, symName: __ZNKSt3__117__compressed_pairIPPNS_16__hash_node_baseIPNS_11__hash_nodeINS_17__hash_value_typeINS_4pairIddEEmEEPvEEEENS_25__bucket_list_deallocatorINS_9allocatorISB_EEEEE6secondB8ne180100Ev, symObjAddr: 0x22D0C, symBinAddr: 0x100023A4C, symSize: 0x28 }
  - { offset: 0x54474, size: 0x8, addend: 0x0, symName: __ZNKSt3__122__compressed_pair_elemINS_25__bucket_list_deallocatorINS_9allocatorIPNS_16__hash_node_baseIPNS_11__hash_nodeINS_17__hash_value_typeINS_4pairIddEEmEEPvEEEEEEEELi1ELb0EE5__getB8ne180100Ev, symObjAddr: 0x22D34, symBinAddr: 0x100023A74, symSize: 0x14 }
  - { offset: 0x5449A, size: 0x8, addend: 0x0, symName: __ZNKSt3__117__compressed_pairImNS_9allocatorIPNS_16__hash_node_baseIPNS_11__hash_nodeINS_17__hash_value_typeINS_4pairIddEEmEEPvEEEEEEE5firstB8ne180100Ev, symObjAddr: 0x22D48, symBinAddr: 0x100023A88, symSize: 0x24 }
  - { offset: 0x544C0, size: 0x8, addend: 0x0, symName: __ZNKSt3__117__compressed_pairIPPNS_16__hash_node_baseIPNS_11__hash_nodeINS_17__hash_value_typeINS_4pairIddEEmEEPvEEEENS_25__bucket_list_deallocatorINS_9allocatorISB_EEEEE5firstB8ne180100Ev, symObjAddr: 0x22D6C, symBinAddr: 0x100023AAC, symSize: 0x24 }
  - { offset: 0x544E6, size: 0x8, addend: 0x0, symName: __ZNKSt3__122__compressed_pair_elemIPPNS_16__hash_node_baseIPNS_11__hash_nodeINS_17__hash_value_typeINS_4pairIddEEmEEPvEEEELi0ELb0EE5__getB8ne180100Ev, symObjAddr: 0x22D90, symBinAddr: 0x100023AD0, symSize: 0x14 }
  - { offset: 0x5450C, size: 0x8, addend: 0x0, symName: __ZNSt3__117__compressed_pairIfNS_21__unordered_map_equalINS_4pairIddEENS_17__hash_value_typeIS3_mEENS_8equal_toIS3_EE9pair_hashLb1EEEE6secondB8ne180100Ev, symObjAddr: 0x22DA4, symBinAddr: 0x100023AE4, symSize: 0x24 }
  - { offset: 0x54532, size: 0x8, addend: 0x0, symName: __ZNSt3__122__compressed_pair_elemINS_21__unordered_map_equalINS_4pairIddEENS_17__hash_value_typeIS3_mEENS_8equal_toIS3_EE9pair_hashLb1EEELi1ELb1EE5__getB8ne180100Ev, symObjAddr: 0x22DC8, symBinAddr: 0x100023B08, symSize: 0x14 }
  - { offset: 0x54558, size: 0x8, addend: 0x0, symName: __ZNKSt3__18equal_toINS_4pairIddEEEclB8ne180100ERKS2_S5_, symObjAddr: 0x22DDC, symBinAddr: 0x100023B1C, symSize: 0x30 }
  - { offset: 0x5459C, size: 0x8, addend: 0x0, symName: __ZNKSt3__117__hash_value_typeINS_4pairIddEEmE11__get_valueB8ne180100Ev, symObjAddr: 0x22E0C, symBinAddr: 0x100023B4C, symSize: 0x24 }
  - { offset: 0x545C2, size: 0x8, addend: 0x0, symName: __ZNSt3__116allocator_traitsINS_9allocatorINS_11__hash_nodeINS_17__hash_value_typeINS_4pairIddEEmEEPvEEEEE8allocateB8ne180100ERS9_m, symObjAddr: 0x22EC8, symBinAddr: 0x100023C08, symSize: 0x2C }
  - { offset: 0x545F5, size: 0x8, addend: 0x0, symName: __ZNSt3__122__hash_node_destructorINS_9allocatorINS_11__hash_nodeINS_17__hash_value_typeINS_4pairIddEEmEEPvEEEEEC1B8ne180100ERS9_b, symObjAddr: 0x22EF4, symBinAddr: 0x100023C34, symSize: 0x40 }
  - { offset: 0x54643, size: 0x8, addend: 0x0, symName: __ZNSt3__110unique_ptrINS_11__hash_nodeINS_17__hash_value_typeINS_4pairIddEEmEEPvEENS_22__hash_node_destructorINS_9allocatorIS7_EEEEEC1B8ne180100ILb1EvEEPS7_NS_16__dependent_typeINS_27__unique_ptr_deleter_sfinaeISB_EEXT_EE20__good_rval_ref_typeE, symObjAddr: 0x22F34, symBinAddr: 0x100023C74, symSize: 0x3C }
  - { offset: 0x54694, size: 0x8, addend: 0x0, symName: __ZNKSt3__110unique_ptrINS_11__hash_nodeINS_17__hash_value_typeINS_4pairIddEEmEEPvEENS_22__hash_node_destructorINS_9allocatorIS7_EEEEEdeB8ne180100Ev, symObjAddr: 0x22FB8, symBinAddr: 0x100023CF8, symSize: 0x28 }
  - { offset: 0x546BA, size: 0x8, addend: 0x0, symName: __ZNSt3__116allocator_traitsINS_9allocatorINS_11__hash_nodeINS_17__hash_value_typeINS_4pairIddEEmEEPvEEEEE9constructB8ne180100INS4_IKS5_mEEJRKNS_21piecewise_construct_tENS_5tupleIJOS5_EEENSH_IJEEEEvEEvRS9_PT_DpOT0_, symObjAddr: 0x22FE0, symBinAddr: 0x100023D20, symSize: 0x44 }
  - { offset: 0x54739, size: 0x8, addend: 0x0, symName: __ZNSt3__110unique_ptrINS_11__hash_nodeINS_17__hash_value_typeINS_4pairIddEEmEEPvEENS_22__hash_node_destructorINS_9allocatorIS7_EEEEE11get_deleterB8ne180100Ev, symObjAddr: 0x23024, symBinAddr: 0x100023D64, symSize: 0x24 }
  - { offset: 0x5475F, size: 0x8, addend: 0x0, symName: __ZNSt3__19allocatorINS_11__hash_nodeINS_17__hash_value_typeINS_4pairIddEEmEEPvEEE8allocateB8ne180100Em, symObjAddr: 0x23048, symBinAddr: 0x100023D88, symSize: 0x58 }
  - { offset: 0x5479E, size: 0x8, addend: 0x0, symName: __ZNSt3__116allocator_traitsINS_9allocatorINS_11__hash_nodeINS_17__hash_value_typeINS_4pairIddEEmEEPvEEEEE8max_sizeB8ne180100IS9_vEEmRKS9_, symObjAddr: 0x230A0, symBinAddr: 0x100023DE0, symSize: 0x24 }
  - { offset: 0x547CC, size: 0x8, addend: 0x0, symName: __ZNKSt3__19allocatorINS_11__hash_nodeINS_17__hash_value_typeINS_4pairIddEEmEEPvEEE8max_sizeB8ne180100Ev, symObjAddr: 0x230C4, symBinAddr: 0x100023E04, symSize: 0x18 }
  - { offset: 0x547F2, size: 0x8, addend: 0x0, symName: __ZNSt3__122__hash_node_destructorINS_9allocatorINS_11__hash_nodeINS_17__hash_value_typeINS_4pairIddEEmEEPvEEEEEC2B8ne180100ERS9_b, symObjAddr: 0x230DC, symBinAddr: 0x100023E1C, symSize: 0x30 }
  - { offset: 0x5483A, size: 0x8, addend: 0x0, symName: __ZNSt3__110unique_ptrINS_11__hash_nodeINS_17__hash_value_typeINS_4pairIddEEmEEPvEENS_22__hash_node_destructorINS_9allocatorIS7_EEEEEC2B8ne180100ILb1EvEEPS7_NS_16__dependent_typeINS_27__unique_ptr_deleter_sfinaeISB_EEXT_EE20__good_rval_ref_typeE, symObjAddr: 0x2310C, symBinAddr: 0x100023E4C, symSize: 0x48 }
  - { offset: 0x5488B, size: 0x8, addend: 0x0, symName: __ZNSt3__117__compressed_pairIPNS_11__hash_nodeINS_17__hash_value_typeINS_4pairIddEEmEEPvEENS_22__hash_node_destructorINS_9allocatorIS7_EEEEEC1B8ne180100IRS8_SC_EEOT_OT0_, symObjAddr: 0x23154, symBinAddr: 0x100023E94, symSize: 0x3C }
  - { offset: 0x548E3, size: 0x8, addend: 0x0, symName: __ZNSt3__117__compressed_pairIPNS_11__hash_nodeINS_17__hash_value_typeINS_4pairIddEEmEEPvEENS_22__hash_node_destructorINS_9allocatorIS7_EEEEEC2B8ne180100IRS8_SC_EEOT_OT0_, symObjAddr: 0x23190, symBinAddr: 0x100023ED0, symSize: 0x48 }
  - { offset: 0x5493B, size: 0x8, addend: 0x0, symName: __ZNSt3__122__compressed_pair_elemIPNS_11__hash_nodeINS_17__hash_value_typeINS_4pairIddEEmEEPvEELi0ELb0EEC2B8ne180100IRS8_vEEOT_, symObjAddr: 0x231D8, symBinAddr: 0x100023F18, symSize: 0x24 }
  - { offset: 0x5497D, size: 0x8, addend: 0x0, symName: __ZNSt3__122__compressed_pair_elemINS_22__hash_node_destructorINS_9allocatorINS_11__hash_nodeINS_17__hash_value_typeINS_4pairIddEEmEEPvEEEEEELi1ELb0EEC2B8ne180100ISB_vEEOT_, symObjAddr: 0x231FC, symBinAddr: 0x100023F3C, symSize: 0x24 }
  - { offset: 0x549BF, size: 0x8, addend: 0x0, symName: __ZNSt3__111__hash_nodeINS_17__hash_value_typeINS_4pairIddEEmEEPvEC1B8ne180100EPNS_16__hash_node_baseIPS6_EEm, symObjAddr: 0x23220, symBinAddr: 0x100023F60, symSize: 0x3C }
  - { offset: 0x54A05, size: 0x8, addend: 0x0, symName: __ZNSt3__111__hash_nodeINS_17__hash_value_typeINS_4pairIddEEmEEPvEC2B8ne180100EPNS_16__hash_node_baseIPS6_EEm, symObjAddr: 0x2325C, symBinAddr: 0x100023F9C, symSize: 0x40 }
  - { offset: 0x54A4B, size: 0x8, addend: 0x0, symName: __ZNSt3__116__hash_node_baseIPNS_11__hash_nodeINS_17__hash_value_typeINS_4pairIddEEmEEPvEEEC2B8ne180100EPS9_, symObjAddr: 0x2329C, symBinAddr: 0x100023FDC, symSize: 0x20 }
  - { offset: 0x54A83, size: 0x8, addend: 0x0, symName: __ZNKSt3__117__compressed_pairIPNS_11__hash_nodeINS_17__hash_value_typeINS_4pairIddEEmEEPvEENS_22__hash_node_destructorINS_9allocatorIS7_EEEEE5firstB8ne180100Ev, symObjAddr: 0x232BC, symBinAddr: 0x100023FFC, symSize: 0x24 }
  - { offset: 0x54AA9, size: 0x8, addend: 0x0, symName: __ZNKSt3__122__compressed_pair_elemIPNS_11__hash_nodeINS_17__hash_value_typeINS_4pairIddEEmEEPvEELi0ELb0EE5__getB8ne180100Ev, symObjAddr: 0x232E0, symBinAddr: 0x100024020, symSize: 0x14 }
  - { offset: 0x54ACF, size: 0x8, addend: 0x0, symName: __ZNSt3__19allocatorINS_11__hash_nodeINS_17__hash_value_typeINS_4pairIddEEmEEPvEEE9constructB8ne180100INS3_IKS4_mEEJRKNS_21piecewise_construct_tENS_5tupleIJOS4_EEENSF_IJEEEEEEvPT_DpOT0_, symObjAddr: 0x232F4, symBinAddr: 0x100024034, symSize: 0x44 }
  - { offset: 0x54B4B, size: 0x8, addend: 0x0, symName: __ZNSt3__14pairIKNS0_IddEEmEC1B8ne180100IJOS1_EJEEENS_21piecewise_construct_tENS_5tupleIJDpT_EEENS7_IJDpT0_EEE, symObjAddr: 0x23338, symBinAddr: 0x100024078, symSize: 0x44 }
  - { offset: 0x54BB2, size: 0x8, addend: 0x0, symName: __ZNSt3__14pairIKNS0_IddEEmEC1B8ne180100IJOS1_EJEJLm0EETpTnmJEEENS_21piecewise_construct_tERNS_5tupleIJDpT_EEERNS7_IJDpT0_EEENS_15__tuple_indicesIJXspT1_EEEENSG_IJXspT2_EEEE, symObjAddr: 0x2337C, symBinAddr: 0x1000240BC, symSize: 0x3C }
  - { offset: 0x54C3F, size: 0x8, addend: 0x0, symName: __ZNSt3__14pairIKNS0_IddEEmEC2B8ne180100IJOS1_EJEJLm0EETpTnmJEEENS_21piecewise_construct_tERNS_5tupleIJDpT_EEERNS7_IJDpT0_EEENS_15__tuple_indicesIJXspT1_EEEENSG_IJXspT2_EEEE, symObjAddr: 0x233B8, symBinAddr: 0x1000240F8, symSize: 0x48 }
  - { offset: 0x54CCC, size: 0x8, addend: 0x0, symName: __ZNSt3__112__tuple_leafILm0EONS_4pairIddEELb0EE3getB8ne180100Ev, symObjAddr: 0x23424, symBinAddr: 0x100024164, symSize: 0x18 }
  - { offset: 0x54CF2, size: 0x8, addend: 0x0, symName: __ZNSt3__117__compressed_pairIPNS_11__hash_nodeINS_17__hash_value_typeINS_4pairIddEEmEEPvEENS_22__hash_node_destructorINS_9allocatorIS7_EEEEE6secondB8ne180100Ev, symObjAddr: 0x2343C, symBinAddr: 0x10002417C, symSize: 0x28 }
  - { offset: 0x54D18, size: 0x8, addend: 0x0, symName: __ZNSt3__122__compressed_pair_elemINS_22__hash_node_destructorINS_9allocatorINS_11__hash_nodeINS_17__hash_value_typeINS_4pairIddEEmEEPvEEEEEELi1ELb0EE5__getB8ne180100Ev, symObjAddr: 0x23464, symBinAddr: 0x1000241A4, symSize: 0x14 }
  - { offset: 0x54D3E, size: 0x8, addend: 0x0, symName: __ZNSt3__117__compressed_pairImNS_22__unordered_map_hasherINS_4pairIddEENS_17__hash_value_typeIS3_mEE9pair_hashNS_8equal_toIS3_EELb1EEEE5firstB8ne180100Ev, symObjAddr: 0x23478, symBinAddr: 0x1000241B8, symSize: 0x24 }
  - { offset: 0x54D64, size: 0x8, addend: 0x0, symName: __ZNSt3__117__compressed_pairIfNS_21__unordered_map_equalINS_4pairIddEENS_17__hash_value_typeIS3_mEENS_8equal_toIS3_EE9pair_hashLb1EEEE5firstB8ne180100Ev, symObjAddr: 0x2349C, symBinAddr: 0x1000241DC, symSize: 0x24 }
  - { offset: 0x54D8A, size: 0x8, addend: 0x0, symName: __ZNSt3__112__hash_tableINS_17__hash_value_typeINS_4pairIddEEmEENS_22__unordered_map_hasherIS3_S4_9pair_hashNS_8equal_toIS3_EELb1EEENS_21__unordered_map_equalIS3_S4_S8_S6_Lb1EEENS_9allocatorIS4_EEE8__rehashILb1EEEvm, symObjAddr: 0x234C0, symBinAddr: 0x100024200, symSize: 0x194 }
  - { offset: 0x54DD8, size: 0x8, addend: 0x0, symName: __ZNSt3__112__hash_tableINS_17__hash_value_typeINS_4pairIddEEmEENS_22__unordered_map_hasherIS3_S4_9pair_hashNS_8equal_toIS3_EELb1EEENS_21__unordered_map_equalIS3_S4_S8_S6_Lb1EEENS_9allocatorIS4_EEE11__do_rehashILb1EEEvm, symObjAddr: 0x23654, symBinAddr: 0x100024394, symSize: 0x260 }
  - { offset: 0x54EBD, size: 0x8, addend: 0x0, symName: __ZNSt3__110unique_ptrIA_PNS_16__hash_node_baseIPNS_11__hash_nodeINS_17__hash_value_typeINS_4pairIddEEmEEPvEEEENS_25__bucket_list_deallocatorINS_9allocatorISB_EEEEE11get_deleterB8ne180100Ev, symObjAddr: 0x238B4, symBinAddr: 0x1000245F4, symSize: 0x24 }
  - { offset: 0x54EE3, size: 0x8, addend: 0x0, symName: __ZNSt3__110unique_ptrIA_PNS_16__hash_node_baseIPNS_11__hash_nodeINS_17__hash_value_typeINS_4pairIddEEmEEPvEEEENS_25__bucket_list_deallocatorINS_9allocatorISB_EEEEE5resetB8ne180100IPSB_TnNS_9enable_ifIXsr28_CheckArrayPointerConversionIT_EE5valueEiE4typeELi0EEEvSL_, symObjAddr: 0x238D8, symBinAddr: 0x100024618, symSize: 0x70 }
  - { offset: 0x54F36, size: 0x8, addend: 0x0, symName: __ZNSt3__116allocator_traitsINS_9allocatorIPNS_16__hash_node_baseIPNS_11__hash_nodeINS_17__hash_value_typeINS_4pairIddEEmEEPvEEEEEEE8allocateB8ne180100ERSD_m, symObjAddr: 0x23948, symBinAddr: 0x100024688, symSize: 0x2C }
  - { offset: 0x54F69, size: 0x8, addend: 0x0, symName: __ZNSt3__19allocatorIPNS_16__hash_node_baseIPNS_11__hash_nodeINS_17__hash_value_typeINS_4pairIddEEmEEPvEEEEE8allocateB8ne180100Em, symObjAddr: 0x23974, symBinAddr: 0x1000246B4, symSize: 0x54 }
  - { offset: 0x54FA8, size: 0x8, addend: 0x0, symName: __ZNSt3__116allocator_traitsINS_9allocatorIPNS_16__hash_node_baseIPNS_11__hash_nodeINS_17__hash_value_typeINS_4pairIddEEmEEPvEEEEEEE8max_sizeB8ne180100ISD_vEEmRKSD_, symObjAddr: 0x239C8, symBinAddr: 0x100024708, symSize: 0x24 }
  - { offset: 0x54FD6, size: 0x8, addend: 0x0, symName: __ZNKSt3__19allocatorIPNS_16__hash_node_baseIPNS_11__hash_nodeINS_17__hash_value_typeINS_4pairIddEEmEEPvEEEEE8max_sizeB8ne180100Ev, symObjAddr: 0x239EC, symBinAddr: 0x10002472C, symSize: 0x14 }
  - { offset: 0x54FFC, size: 0x8, addend: 0x0, symName: __ZNSt3__117__compressed_pairIPNS_11__hash_nodeINS_17__hash_value_typeINS_4pairIddEEmEEPvEENS_22__hash_node_destructorINS_9allocatorIS7_EEEEE5firstB8ne180100Ev, symObjAddr: 0x23A00, symBinAddr: 0x100024740, symSize: 0x24 }
  - { offset: 0x55022, size: 0x8, addend: 0x0, symName: __ZNSt3__122__compressed_pair_elemIPNS_11__hash_nodeINS_17__hash_value_typeINS_4pairIddEEmEEPvEELi0ELb0EE5__getB8ne180100Ev, symObjAddr: 0x23A24, symBinAddr: 0x100024764, symSize: 0x14 }
  - { offset: 0x55048, size: 0x8, addend: 0x0, symName: __ZNSt3__110unique_ptrINS_11__hash_nodeINS_17__hash_value_typeINS_4pairIddEEmEEPvEENS_22__hash_node_destructorINS_9allocatorIS7_EEEEED2B8ne180100Ev, symObjAddr: 0x23A38, symBinAddr: 0x100024778, symSize: 0x30 }
  - { offset: 0x55072, size: 0x8, addend: 0x0, symName: __ZNSt3__110unique_ptrINS_11__hash_nodeINS_17__hash_value_typeINS_4pairIddEEmEEPvEENS_22__hash_node_destructorINS_9allocatorIS7_EEEEE5resetB8ne180100EPS7_, symObjAddr: 0x23A68, symBinAddr: 0x1000247A8, symSize: 0x70 }
  - { offset: 0x550B6, size: 0x8, addend: 0x0, symName: __ZNSt3__122__hash_node_destructorINS_9allocatorINS_11__hash_nodeINS_17__hash_value_typeINS_4pairIddEEmEEPvEEEEEclB8ne180100EPS8_, symObjAddr: 0x23AD8, symBinAddr: 0x100024818, symSize: 0x98 }
  - { offset: 0x550EB, size: 0x8, addend: 0x0, symName: __ZNSt3__115__hash_iteratorIPNS_11__hash_nodeINS_17__hash_value_typeINS_4pairIddEEmEEPvEEEC2B8ne180100EPNS_16__hash_node_baseIS8_EE, symObjAddr: 0x23B70, symBinAddr: 0x1000248B0, symSize: 0x20 }
  - { offset: 0x55124, size: 0x8, addend: 0x0, symName: __ZNSt3__14pairINS_15__hash_iteratorIPNS_11__hash_nodeINS_17__hash_value_typeINS0_IddEEmEEPvEEEEbEC2B8ne180100IS9_RbTnNS_9enable_ifIXclsr10_CheckArgsE17__enable_implicitIT_T0_EEEiE4typeELi0EEEOSE_OSF_, symObjAddr: 0x23B90, symBinAddr: 0x1000248D0, symSize: 0x38 }
  - { offset: 0x55182, size: 0x8, addend: 0x0, symName: __ZNSt3__15tupleIJONS_4pairIddEEEEC1B8ne180100IJS2_ETnNS_9enable_ifIXsr4_AndINS_17integral_constantIbXeqsZT_sZT_EEENS4_17_EnableUTypesCtorIJDpT_EEEEE5valueEiE4typeELi0EEEDpOSA_, symObjAddr: 0x23BC8, symBinAddr: 0x100024908, symSize: 0x34 }
  - { offset: 0x551CC, size: 0x8, addend: 0x0, symName: __ZNSt3__15tupleIJONS_4pairIddEEEEC2B8ne180100IJS2_ETnNS_9enable_ifIXsr4_AndINS_17integral_constantIbXeqsZT_sZT_EEENS4_17_EnableUTypesCtorIJDpT_EEEEE5valueEiE4typeELi0EEEDpOSA_, symObjAddr: 0x23BFC, symBinAddr: 0x10002493C, symSize: 0x34 }
  - { offset: 0x55216, size: 0x8, addend: 0x0, symName: __ZNSt3__112__tuple_implINS_15__tuple_indicesIJLm0EEEEJONS_4pairIddEEEEC1B8ne180100IJLm0EEJS5_ETpTnmJEJEJS4_EEENS1_IJXspT_EEEENS_13__tuple_typesIJDpT0_EEENS1_IJXspT1_EEEENS9_IJDpT2_EEEDpOT3_, symObjAddr: 0x23C30, symBinAddr: 0x100024970, symSize: 0x34 }
  - { offset: 0x552AB, size: 0x8, addend: 0x0, symName: __ZNSt3__112__tuple_implINS_15__tuple_indicesIJLm0EEEEJONS_4pairIddEEEEC2B8ne180100IJLm0EEJS5_ETpTnmJEJEJS4_EEENS1_IJXspT_EEEENS_13__tuple_typesIJDpT0_EEENS1_IJXspT1_EEEENS9_IJDpT2_EEEDpOT3_, symObjAddr: 0x23C64, symBinAddr: 0x1000249A4, symSize: 0x34 }
  - { offset: 0x55340, size: 0x8, addend: 0x0, symName: __ZNSt3__112__tuple_leafILm0EONS_4pairIddEELb0EEC2B8ne180100IS2_vEEOT_, symObjAddr: 0x23C98, symBinAddr: 0x1000249D8, symSize: 0x20 }
  - { offset: 0x55383, size: 0x8, addend: 0x0, symName: __ZNSt3__114pointer_traitsIPNS_17__hash_value_typeINS_4pairIddEEmEEE10pointer_toB8ne180100ERS4_, symObjAddr: 0x23CB8, symBinAddr: 0x1000249F8, symSize: 0x14 }
  - { offset: 0x553A6, size: 0x8, addend: 0x0, symName: __ZNSt3__123mersenne_twister_engineIjLm32ELm624ELm397ELm31ELj2567483615ELm11ELj4294967295ELm7ELj2636928640ELm15ELj4022730752ELm18ELj1812433253EEC2B8ne180100Ej, symObjAddr: 0x23CCC, symBinAddr: 0x100024A0C, symSize: 0x34 }
  - { offset: 0x553DE, size: 0x8, addend: 0x0, symName: __ZNSt3__123mersenne_twister_engineIjLm32ELm624ELm397ELm31ELj2567483615ELm11ELj4294967295ELm7ELj2636928640ELm15ELj4022730752ELm18ELj1812433253EE4seedEj, symObjAddr: 0x23D00, symBinAddr: 0x100024A40, symSize: 0xC4 }
  - { offset: 0x55432, size: 0x8, addend: 0x0, symName: __ZNSt3__123mersenne_twister_engineIjLm32ELm624ELm397ELm31ELj2567483615ELm11ELj4294967295ELm7ELj2636928640ELm15ELj4022730752ELm18ELj1812433253EE8__rshiftB8ne180100ILm30ETnNS_9enable_ifIXltT_L_ZNS1_3_DtEEEiE4typeELi0EEEjj, symObjAddr: 0x23DC4, symBinAddr: 0x100024B04, symSize: 0x18 }
  - { offset: 0x55466, size: 0x8, addend: 0x0, symName: __ZNSt3__123mersenne_twister_engineIjLm32ELm624ELm397ELm31ELj2567483615ELm11ELj4294967295ELm7ELj2636928640ELm15ELj4022730752ELm18ELj1812433253EE8__rshiftB8ne180100ILm1ETnNS_9enable_ifIXltT_L_ZNS1_3_DtEEEiE4typeELi0EEEjj, symObjAddr: 0x23DDC, symBinAddr: 0x100024B1C, symSize: 0x18 }
  - { offset: 0x5549A, size: 0x8, addend: 0x0, symName: __ZNSt3__123mersenne_twister_engineIjLm32ELm624ELm397ELm31ELj2567483615ELm11ELj4294967295ELm7ELj2636928640ELm15ELj4022730752ELm18ELj1812433253EE8__rshiftB8ne180100ILm11ETnNS_9enable_ifIXltT_L_ZNS1_3_DtEEEiE4typeELi0EEEjj, symObjAddr: 0x23DF4, symBinAddr: 0x100024B34, symSize: 0x18 }
  - { offset: 0x554CE, size: 0x8, addend: 0x0, symName: __ZNSt3__123mersenne_twister_engineIjLm32ELm624ELm397ELm31ELj2567483615ELm11ELj4294967295ELm7ELj2636928640ELm15ELj4022730752ELm18ELj1812433253EE8__lshiftB8ne180100ILm7ETnNS_9enable_ifIXltT_Lm32EEiE4typeELi0EEEjj, symObjAddr: 0x23E0C, symBinAddr: 0x100024B4C, symSize: 0x1C }
  - { offset: 0x55502, size: 0x8, addend: 0x0, symName: __ZNSt3__123mersenne_twister_engineIjLm32ELm624ELm397ELm31ELj2567483615ELm11ELj4294967295ELm7ELj2636928640ELm15ELj4022730752ELm18ELj1812433253EE8__lshiftB8ne180100ILm15ETnNS_9enable_ifIXltT_Lm32EEiE4typeELi0EEEjj, symObjAddr: 0x23E28, symBinAddr: 0x100024B68, symSize: 0x1C }
  - { offset: 0x55536, size: 0x8, addend: 0x0, symName: __ZNSt3__123mersenne_twister_engineIjLm32ELm624ELm397ELm31ELj2567483615ELm11ELj4294967295ELm7ELj2636928640ELm15ELj4022730752ELm18ELj1812433253EE8__rshiftB8ne180100ILm18ETnNS_9enable_ifIXltT_L_ZNS1_3_DtEEEiE4typeELi0EEEjj, symObjAddr: 0x23E44, symBinAddr: 0x100024B84, symSize: 0x18 }
  - { offset: 0x5556A, size: 0x8, addend: 0x0, symName: __ZNSt3__16vectorI4EdgeNS_9allocatorIS1_EEE22__construct_one_at_endB8ne180100IJS1_EEEvDpOT_, symObjAddr: 0x23E5C, symBinAddr: 0x100024B9C, symSize: 0x90 }
  - { offset: 0x555B9, size: 0x8, addend: 0x0, symName: __ZNSt3__16vectorI4EdgeNS_9allocatorIS1_EEE21__push_back_slow_pathIS1_EEPS1_OT_, symObjAddr: 0x23EEC, symBinAddr: 0x100024C2C, symSize: 0xE8 }
  - { offset: 0x55615, size: 0x8, addend: 0x0, symName: __ZNSt3__16vectorINS0_I4EdgeNS_9allocatorIS1_EEEENS2_IS4_EEE11__make_iterB8ne180100EPS4_, symObjAddr: 0x23FD4, symBinAddr: 0x100024D14, symSize: 0x30 }
  - { offset: 0x5564A, size: 0x8, addend: 0x0, symName: __ZNSt3__111__wrap_iterIPNS_6vectorI4EdgeNS_9allocatorIS2_EEEEEC1B8ne180100ES6_, symObjAddr: 0x24004, symBinAddr: 0x100024D44, symSize: 0x34 }
  - { offset: 0x55682, size: 0x8, addend: 0x0, symName: __ZNSt3__111__wrap_iterIPNS_6vectorI4EdgeNS_9allocatorIS2_EEEEEC2B8ne180100ES6_, symObjAddr: 0x24038, symBinAddr: 0x100024D78, symSize: 0x20 }
  - { offset: 0x556BA, size: 0x8, addend: 0x0, symName: __ZNSt3__16vectorIdNS_9allocatorIdEEE22__construct_one_at_endB8ne180100IJRKdEEEvDpOT_, symObjAddr: 0x24058, symBinAddr: 0x100024D98, symSize: 0x90 }
  - { offset: 0x55709, size: 0x8, addend: 0x0, symName: __ZNSt3__16vectorIdNS_9allocatorIdEEE21__push_back_slow_pathIRKdEEPdOT_, symObjAddr: 0x240E8, symBinAddr: 0x100024E28, symSize: 0xE8 }
  - { offset: 0x55765, size: 0x8, addend: 0x0, symName: __ZNKSt3__16vectorI4EdgeNS_9allocatorIS1_EEE17__annotate_shrinkB8ne180100Em, symObjAddr: 0x241D0, symBinAddr: 0x100024F10, symSize: 0x14 }
  - { offset: 0x5579A, size: 0x8, addend: 0x0, symName: __ZNSt3__16vectorI4EdgeNS_9allocatorIS1_EEE18__insert_with_sizeB8ne180100INS_11__wrap_iterIPS1_EES8_EES8_NS6_IPKS1_EET_T0_l, symObjAddr: 0x241E4, symBinAddr: 0x100024F24, symSize: 0x310 }
  - { offset: 0x558C2, size: 0x8, addend: 0x0, symName: __ZNSt3__16vectorI4EdgeNS_9allocatorIS1_EEE18__construct_at_endINS_11__wrap_iterIPS1_EES8_EEvT_T0_m, symObjAddr: 0x245EC, symBinAddr: 0x10002532C, symSize: 0x9C }
  - { offset: 0x55936, size: 0x8, addend: 0x0, symName: __ZNSt3__16vectorI4EdgeNS_9allocatorIS1_EEE12__move_rangeEPS1_S5_S5_, symObjAddr: 0x24688, symBinAddr: 0x1000253C8, symSize: 0x138 }
  - { offset: 0x559F4, size: 0x8, addend: 0x0, symName: __ZNSt3__114__split_bufferI4EdgeRNS_9allocatorIS1_EEE28__construct_at_end_with_sizeINS_11__wrap_iterIPS1_EEEEvT_m, symObjAddr: 0x24810, symBinAddr: 0x100025550, symSize: 0xCC }
  - { offset: 0x55A4E, size: 0x8, addend: 0x0, symName: __ZNSt3__111__wrap_iterIP4EdgeEpLB8ne180100El, symObjAddr: 0x24A68, symBinAddr: 0x1000257A8, symSize: 0x30 }
  - { offset: 0x55A82, size: 0x8, addend: 0x0, symName: __ZNSt3__118__unwrap_iter_implINS_11__wrap_iterIP4EdgeEELb1EE8__unwrapB8ne180100ES4_, symObjAddr: 0x24BC4, symBinAddr: 0x100025904, symSize: 0x28 }
  - { offset: 0x55AAB, size: 0x8, addend: 0x0, symName: __ZNSt3__119__to_address_helperINS_11__wrap_iterIP4EdgeEEvE6__callB8ne180100ERKS4_, symObjAddr: 0x24C10, symBinAddr: 0x100025950, symSize: 0x30 }
  - { offset: 0x55ACE, size: 0x8, addend: 0x0, symName: __ZNSt3__114pointer_traitsINS_11__wrap_iterIP4EdgeEEE10to_addressB8ne180100ES4_, symObjAddr: 0x24C40, symBinAddr: 0x100025980, symSize: 0x2C }
  - { offset: 0x55AFC, size: 0x8, addend: 0x0, symName: __ZNKSt3__120__move_backward_loopINS_17_ClassicAlgPolicyEEclB8ne180100IP4EdgeS5_S5_EENS_4pairIT_T1_EES7_T0_S8_, symObjAddr: 0x24DE8, symBinAddr: 0x100025B28, symSize: 0xA0 }
  - { offset: 0x55B83, size: 0x8, addend: 0x0, symName: __ZNSt3__18_IterOpsINS_17_ClassicAlgPolicyEE4nextB8ne180100IP4EdgeEET_S6_S6_, symObjAddr: 0x24EB4, symBinAddr: 0x100025BF4, symSize: 0x18 }
  - { offset: 0x55BBF, size: 0x8, addend: 0x0, symName: __ZNSt3__18_IterOpsINS_17_ClassicAlgPolicyEE11__iter_moveB8ne180100IRP4EdgeTnNS_9enable_ifIXsr12is_referenceIDTdeclsr3stdE7declvalIRT_EEEEE5valueEiE4typeELi0EEEDTclsr3stdE4movedeclsr3stdE7declvalIS9_EEEEOS8_, symObjAddr: 0x24ECC, symBinAddr: 0x100025C0C, symSize: 0x28 }
  - { offset: 0x55BF1, size: 0x8, addend: 0x0, symName: __ZN4EdgeaSEOS_, symObjAddr: 0x24EF4, symBinAddr: 0x100025C34, symSize: 0x48 }
  - { offset: 0x55C22, size: 0x8, addend: 0x0, symName: __ZNSt3__18_IterOpsINS_17_ClassicAlgPolicyEE25__validate_iter_referenceB8ne180100IRP4EdgeEEvv, symObjAddr: 0x24F3C, symBinAddr: 0x100025C7C, symSize: 0x4 }
  - { offset: 0x55C4B, size: 0x8, addend: 0x0, symName: __ZNKSt3__111__copy_loopINS_17_ClassicAlgPolicyEEclB8ne180100IP4EdgeS5_S5_EENS_4pairIT_T1_EES7_T0_S8_, symObjAddr: 0x250B4, symBinAddr: 0x100025DF4, symSize: 0x84 }
  - { offset: 0x55CB6, size: 0x8, addend: 0x0, symName: __ZN4EdgeaSERKS_, symObjAddr: 0x251AC, symBinAddr: 0x100025EEC, symSize: 0x48 }
  - { offset: 0x55CE7, size: 0x8, addend: 0x0, symName: __ZNSt3__16vectorIdNS_9allocatorIdEEEaSB8ne180100ERKS3_, symObjAddr: 0x251F4, symBinAddr: 0x100025F34, symSize: 0x64 }
  - { offset: 0x55D1E, size: 0x8, addend: 0x0, symName: __ZNSt3__16vectorIdNS_9allocatorIdEEE19__copy_assign_allocB8ne180100ERKS3_, symObjAddr: 0x25258, symBinAddr: 0x100025F98, symSize: 0x2C }
  - { offset: 0x55D53, size: 0x8, addend: 0x0, symName: __ZNSt3__16vectorIdNS_9allocatorIdEEE6assignIPdTnNS_9enable_ifIXaasr31__has_forward_iterator_categoryIT_EE5valuesr16is_constructibleIdNS_15iterator_traitsIS7_E9referenceEEE5valueEiE4typeELi0EEEvS7_S7_, symObjAddr: 0x25284, symBinAddr: 0x100025FC4, symSize: 0x5C }
  - { offset: 0x55DA6, size: 0x8, addend: 0x0, symName: __ZNSt3__16vectorIdNS_9allocatorIdEEE19__copy_assign_allocB8ne180100ERKS3_NS_17integral_constantIbLb0EEE, symObjAddr: 0x252E0, symBinAddr: 0x100026020, symSize: 0x14 }
  - { offset: 0x55DE4, size: 0x8, addend: 0x0, symName: __ZNSt3__16vectorIdNS_9allocatorIdEEE18__assign_with_sizeB8ne180100IPdS5_EEvT_T0_l, symObjAddr: 0x252F4, symBinAddr: 0x100026034, symSize: 0x15C }
  - { offset: 0x55E94, size: 0x8, addend: 0x0, symName: __ZNSt3__16vectorIdNS_9allocatorIdEEE17__destruct_at_endB8ne180100EPd, symObjAddr: 0x254B0, symBinAddr: 0x1000261F0, symSize: 0x4C }
  - { offset: 0x55EFB, size: 0x8, addend: 0x0, symName: __ZNSt3__14pairINS_11__wrap_iterIP4EdgeEES3_EC1B8ne180100IS4_S3_TnNS_9enable_ifIXclsr10_CheckArgsE17__enable_implicitIT_T0_EEEiE4typeELi0EEEOS8_OS9_, symObjAddr: 0x25584, symBinAddr: 0x1000262C4, symSize: 0x3C }
  - { offset: 0x55F59, size: 0x8, addend: 0x0, symName: __ZNSt3__14pairINS_11__wrap_iterIP4EdgeEES3_EC2B8ne180100IS4_S3_TnNS_9enable_ifIXclsr10_CheckArgsE17__enable_implicitIT_T0_EEEiE4typeELi0EEEOS8_OS9_, symObjAddr: 0x255C0, symBinAddr: 0x100026300, symSize: 0x34 }
  - { offset: 0x55FB7, size: 0x8, addend: 0x0, symName: __ZNSt3__118__unwrap_iter_implINS_11__wrap_iterIP4EdgeEELb1EE8__rewrapB8ne180100ES4_S3_, symObjAddr: 0x25640, symBinAddr: 0x100026380, symSize: 0x5C }
  - { offset: 0x55FE8, size: 0x8, addend: 0x0, symName: __ZNKSt3__111__wrap_iterIP4EdgeEplB8ne180100El, symObjAddr: 0x2569C, symBinAddr: 0x1000263DC, symSize: 0x3C }
  - { offset: 0x56036, size: 0x8, addend: 0x0, symName: __ZNSt3__114__split_bufferI4EdgeRNS_9allocatorIS1_EEE21_ConstructTransactionC1B8ne180100EPPS1_m, symObjAddr: 0x256D8, symBinAddr: 0x100026418, symSize: 0x3C }
  - { offset: 0x5607C, size: 0x8, addend: 0x0, symName: __ZNSt3__114__split_bufferI4EdgeRNS_9allocatorIS1_EEE21_ConstructTransactionD1B8ne180100Ev, symObjAddr: 0x25714, symBinAddr: 0x100026454, symSize: 0x2C }
  - { offset: 0x560A6, size: 0x8, addend: 0x0, symName: __ZNSt3__114__split_bufferI4EdgeRNS_9allocatorIS1_EEE21_ConstructTransactionC2B8ne180100EPPS1_m, symObjAddr: 0x25740, symBinAddr: 0x100026480, symSize: 0x4C }
  - { offset: 0x560EC, size: 0x8, addend: 0x0, symName: __ZNSt3__114__split_bufferI4EdgeRNS_9allocatorIS1_EEE21_ConstructTransactionD2B8ne180100Ev, symObjAddr: 0x2578C, symBinAddr: 0x1000264CC, symSize: 0x20 }
  - { offset: 0x56116, size: 0x8, addend: 0x0, symName: __ZNKSt3__16vectorINS0_I4EdgeNS_9allocatorIS1_EEEENS2_IS4_EEE17__annotate_shrinkB8ne180100Em, symObjAddr: 0x25914, symBinAddr: 0x100026654, symSize: 0x14 }
  - { offset: 0x5614B, size: 0x8, addend: 0x0, symName: __ZNSt3__16vectorINS0_I4EdgeNS_9allocatorIS1_EEEENS2_IS4_EEE13__move_assignERS6_NS_17integral_constantIbLb1EEE, symObjAddr: 0x25928, symBinAddr: 0x100026668, symSize: 0x94 }
  - { offset: 0x5618E, size: 0x8, addend: 0x0, symName: __ZNSt3__16vectorINS0_I4EdgeNS_9allocatorIS1_EEEENS2_IS4_EEE13__vdeallocateEv, symObjAddr: 0x259BC, symBinAddr: 0x1000266FC, symSize: 0x8C }
  - { offset: 0x561B6, size: 0x8, addend: 0x0, symName: __ZNSt3__16vectorINS0_I4EdgeNS_9allocatorIS1_EEEENS2_IS4_EEE19__move_assign_allocB8ne180100ERS6_, symObjAddr: 0x25A48, symBinAddr: 0x100026788, symSize: 0x2C }
  - { offset: 0x561EB, size: 0x8, addend: 0x0, symName: __ZNSt3__16vectorINS0_I4EdgeNS_9allocatorIS1_EEEENS2_IS4_EEE19__move_assign_allocB8ne180100ERS6_NS_17integral_constantIbLb1EEE, symObjAddr: 0x25A74, symBinAddr: 0x1000267B4, symSize: 0x38 }
  - { offset: 0x5622C, size: 0x8, addend: 0x0, symName: __ZNSt3__18functionIFdRKNS_10shared_ptrI4NodeEES5_EEC2I9h_functorvEET_, symObjAddr: 0x25AAC, symBinAddr: 0x1000267EC, symSize: 0x38 }
  - { offset: 0x5626F, size: 0x8, addend: 0x0, symName: __ZNSt3__110__function12__value_funcIFdRKNS_10shared_ptrI4NodeEES6_EEC1B8ne180100I9h_functorTnNS_9enable_ifIXntsr7is_sameIu7__decayIT_ES8_EE5valueEiE4typeELi0EEEOSC_, symObjAddr: 0x25AE4, symBinAddr: 0x100026824, symSize: 0x50 }
  - { offset: 0x562B7, size: 0x8, addend: 0x0, symName: __ZNSt3__19allocatorI9h_functorEC1B8ne180100Ev, symObjAddr: 0x25B34, symBinAddr: 0x100026874, symSize: 0x2C }
  - { offset: 0x562E1, size: 0x8, addend: 0x0, symName: __ZNSt3__110__function12__value_funcIFdRKNS_10shared_ptrI4NodeEES6_EEC1B8ne180100I9h_functorNS_9allocatorISA_EEEEOT_RKT0_, symObjAddr: 0x25B60, symBinAddr: 0x1000268A0, symSize: 0x3C }
  - { offset: 0x5633B, size: 0x8, addend: 0x0, symName: __ZNSt3__19allocatorI9h_functorEC2B8ne180100Ev, symObjAddr: 0x25B9C, symBinAddr: 0x1000268DC, symSize: 0x2C }
  - { offset: 0x56365, size: 0x8, addend: 0x0, symName: __ZNSt3__116__non_trivial_ifILb1ENS_9allocatorI9h_functorEEEC2B8ne180100Ev, symObjAddr: 0x25BC8, symBinAddr: 0x100026908, symSize: 0x14 }
  - { offset: 0x5638F, size: 0x8, addend: 0x0, symName: __ZNSt3__110__function12__value_funcIFdRKNS_10shared_ptrI4NodeEES6_EEC2B8ne180100I9h_functorNS_9allocatorISA_EEEEOT_RKT0_, symObjAddr: 0x25BDC, symBinAddr: 0x10002691C, symSize: 0x94 }
  - { offset: 0x5643C, size: 0x8, addend: 0x0, symName: __ZNSt3__19allocatorINS_10__function6__funcI9h_functorNS0_IS3_EEFdRKNS_10shared_ptrI4NodeEES9_EEEEC1B8ne180100IS3_EERKNS0_IT_EE, symObjAddr: 0x25C88, symBinAddr: 0x1000269C8, symSize: 0x34 }
  - { offset: 0x5647F, size: 0x8, addend: 0x0, symName: __ZNSt3__19allocatorI9h_functorEC1B8ne180100INS_10__function6__funcIS1_S2_FdRKNS_10shared_ptrI4NodeEESA_EEEEERKNS0_IT_EE, symObjAddr: 0x25CBC, symBinAddr: 0x1000269FC, symSize: 0x34 }
  - { offset: 0x564BC, size: 0x8, addend: 0x0, symName: __ZNSt3__110__function6__funcI9h_functorNS_9allocatorIS2_EEFdRKNS_10shared_ptrI4NodeEES9_EEC1B8ne180100EOS2_OS4_, symObjAddr: 0x25CF0, symBinAddr: 0x100026A30, symSize: 0x3C }
  - { offset: 0x56504, size: 0x8, addend: 0x0, symName: __ZNSt3__19allocatorINS_10__function6__funcI9h_functorNS0_IS3_EEFdRKNS_10shared_ptrI4NodeEES9_EEEEC2B8ne180100IS3_EERKNS0_IT_EE, symObjAddr: 0x25D2C, symBinAddr: 0x100026A6C, symSize: 0x30 }
  - { offset: 0x56541, size: 0x8, addend: 0x0, symName: __ZNSt3__116__non_trivial_ifILb1ENS_9allocatorINS_10__function6__funcI9h_functorNS1_IS4_EEFdRKNS_10shared_ptrI4NodeEESA_EEEEEEC2B8ne180100Ev, symObjAddr: 0x25D5C, symBinAddr: 0x100026A9C, symSize: 0x14 }
  - { offset: 0x5656B, size: 0x8, addend: 0x0, symName: __ZNSt3__19allocatorI9h_functorEC2B8ne180100INS_10__function6__funcIS1_S2_FdRKNS_10shared_ptrI4NodeEESA_EEEEERKNS0_IT_EE, symObjAddr: 0x25D70, symBinAddr: 0x100026AB0, symSize: 0x30 }
  - { offset: 0x565A8, size: 0x8, addend: 0x0, symName: __ZNSt3__110__function6__funcI9h_functorNS_9allocatorIS2_EEFdRKNS_10shared_ptrI4NodeEES9_EEC2B8ne180100EOS2_OS4_, symObjAddr: 0x25DA0, symBinAddr: 0x100026AE0, symSize: 0x80 }
  - { offset: 0x565F0, size: 0x8, addend: 0x0, symName: __ZNSt3__110__function6__baseIFdRKNS_10shared_ptrI4NodeEES6_EEC2B8ne180100Ev, symObjAddr: 0x25E20, symBinAddr: 0x100026B60, symSize: 0x24 }
  - { offset: 0x5661A, size: 0x8, addend: 0x0, symName: __ZNSt3__110__function12__alloc_funcI9h_functorNS_9allocatorIS2_EEFdRKNS_10shared_ptrI4NodeEES9_EEC1B8ne180100EOS2_OS4_, symObjAddr: 0x25E44, symBinAddr: 0x100026B84, symSize: 0x3C }
  - { offset: 0x56660, size: 0x8, addend: 0x0, symName: __ZNSt3__110__function6__baseIFdRKNS_10shared_ptrI4NodeEES6_EED2Ev, symObjAddr: 0x25E80, symBinAddr: 0x100026BC0, symSize: 0x14 }
  - { offset: 0x5668A, size: 0x8, addend: 0x0, symName: __ZNSt3__110__function6__funcI9h_functorNS_9allocatorIS2_EEFdRKNS_10shared_ptrI4NodeEES9_EED1Ev, symObjAddr: 0x25E94, symBinAddr: 0x100026BD4, symSize: 0x2C }
  - { offset: 0x566B6, size: 0x8, addend: 0x0, symName: __ZNSt3__110__function6__funcI9h_functorNS_9allocatorIS2_EEFdRKNS_10shared_ptrI4NodeEES9_EED0Ev, symObjAddr: 0x25EC0, symBinAddr: 0x100026C00, symSize: 0x30 }
  - { offset: 0x566E2, size: 0x8, addend: 0x0, symName: __ZNKSt3__110__function6__funcI9h_functorNS_9allocatorIS2_EEFdRKNS_10shared_ptrI4NodeEES9_EE7__cloneEv, symObjAddr: 0x25EF0, symBinAddr: 0x100026C30, symSize: 0xFC }
  - { offset: 0x56732, size: 0x8, addend: 0x0, symName: __ZNKSt3__110__function6__funcI9h_functorNS_9allocatorIS2_EEFdRKNS_10shared_ptrI4NodeEES9_EE7__cloneEPNS0_6__baseISA_EE, symObjAddr: 0x25FEC, symBinAddr: 0x100026D2C, symSize: 0x58 }
  - { offset: 0x56767, size: 0x8, addend: 0x0, symName: __ZNSt3__110__function6__funcI9h_functorNS_9allocatorIS2_EEFdRKNS_10shared_ptrI4NodeEES9_EE7destroyEv, symObjAddr: 0x26044, symBinAddr: 0x100026D84, symSize: 0x28 }
  - { offset: 0x5678D, size: 0x8, addend: 0x0, symName: __ZNSt3__110__function6__funcI9h_functorNS_9allocatorIS2_EEFdRKNS_10shared_ptrI4NodeEES9_EE18destroy_deallocateEv, symObjAddr: 0x2606C, symBinAddr: 0x100026DAC, symSize: 0x58 }
  - { offset: 0x567CE, size: 0x8, addend: 0x0, symName: __ZNSt3__110__function6__funcI9h_functorNS_9allocatorIS2_EEFdRKNS_10shared_ptrI4NodeEES9_EEclES9_S9_, symObjAddr: 0x260C4, symBinAddr: 0x100026E04, symSize: 0x38 }
  - { offset: 0x56812, size: 0x8, addend: 0x0, symName: __ZNKSt3__110__function6__funcI9h_functorNS_9allocatorIS2_EEFdRKNS_10shared_ptrI4NodeEES9_EE6targetERKSt9type_info, symObjAddr: 0x260FC, symBinAddr: 0x100026E3C, symSize: 0x60 }
  - { offset: 0x56847, size: 0x8, addend: 0x0, symName: __ZNKSt3__110__function6__funcI9h_functorNS_9allocatorIS2_EEFdRKNS_10shared_ptrI4NodeEES9_EE11target_typeEv, symObjAddr: 0x2615C, symBinAddr: 0x100026E9C, symSize: 0x18 }
  - { offset: 0x5686D, size: 0x8, addend: 0x0, symName: __ZNSt3__110__function6__baseIFdRKNS_10shared_ptrI4NodeEES6_EED1Ev, symObjAddr: 0x26174, symBinAddr: 0x100026EB4, symSize: 0x14 }
  - { offset: 0x56897, size: 0x8, addend: 0x0, symName: __ZNSt3__110__function6__baseIFdRKNS_10shared_ptrI4NodeEES6_EED0Ev, symObjAddr: 0x26188, symBinAddr: 0x100026EC8, symSize: 0xC }
  - { offset: 0x568C1, size: 0x8, addend: 0x0, symName: __ZNSt3__110__function12__alloc_funcI9h_functorNS_9allocatorIS2_EEFdRKNS_10shared_ptrI4NodeEES9_EEC2B8ne180100EOS2_OS4_, symObjAddr: 0x26194, symBinAddr: 0x100026ED4, symSize: 0x5C }
  - { offset: 0x56907, size: 0x8, addend: 0x0, symName: __ZNSt3__117__compressed_pairI9h_functorNS_9allocatorIS1_EEEC1B8ne180100IJOS1_EJOS3_EEENS_21piecewise_construct_tENS_5tupleIJDpT_EEENS9_IJDpT0_EEE, symObjAddr: 0x26248, symBinAddr: 0x100026F88, symSize: 0x3C }
  - { offset: 0x56971, size: 0x8, addend: 0x0, symName: __ZNSt3__15tupleIJO9h_functorEEC1B8ne180100IJS1_ETnNS_9enable_ifIXsr4_AndINS_17integral_constantIbXeqsZT_sZT_EEENS3_17_EnableUTypesCtorIJDpT_EEEEE5valueEiE4typeELi0EEEDpOS9_, symObjAddr: 0x26284, symBinAddr: 0x100026FC4, symSize: 0x34 }
  - { offset: 0x569BB, size: 0x8, addend: 0x0, symName: __ZNSt3__15tupleIJO9h_functorEEC2B8ne180100IJS1_ETnNS_9enable_ifIXsr4_AndINS_17integral_constantIbXeqsZT_sZT_EEENS3_17_EnableUTypesCtorIJDpT_EEEEE5valueEiE4typeELi0EEEDpOS9_, symObjAddr: 0x262B8, symBinAddr: 0x100026FF8, symSize: 0x34 }
  - { offset: 0x56A05, size: 0x8, addend: 0x0, symName: __ZNSt3__112__tuple_implINS_15__tuple_indicesIJLm0EEEEJO9h_functorEEC1B8ne180100IJLm0EEJS4_ETpTnmJEJEJS3_EEENS1_IJXspT_EEEENS_13__tuple_typesIJDpT0_EEENS1_IJXspT1_EEEENS8_IJDpT2_EEEDpOT3_, symObjAddr: 0x262EC, symBinAddr: 0x10002702C, symSize: 0x34 }
  - { offset: 0x56A9A, size: 0x8, addend: 0x0, symName: __ZNSt3__112__tuple_implINS_15__tuple_indicesIJLm0EEEEJO9h_functorEEC2B8ne180100IJLm0EEJS4_ETpTnmJEJEJS3_EEENS1_IJXspT_EEEENS_13__tuple_typesIJDpT0_EEENS1_IJXspT1_EEEENS8_IJDpT2_EEEDpOT3_, symObjAddr: 0x26320, symBinAddr: 0x100027060, symSize: 0x34 }
  - { offset: 0x56B2F, size: 0x8, addend: 0x0, symName: __ZNSt3__112__tuple_leafILm0EO9h_functorLb0EEC2B8ne180100IS1_vEEOT_, symObjAddr: 0x26354, symBinAddr: 0x100027094, symSize: 0x20 }
  - { offset: 0x56B72, size: 0x8, addend: 0x0, symName: __ZNSt3__15tupleIJONS_9allocatorI9h_functorEEEEC1B8ne180100IJS3_ETnNS_9enable_ifIXsr4_AndINS_17integral_constantIbXeqsZT_sZT_EEENS5_17_EnableUTypesCtorIJDpT_EEEEE5valueEiE4typeELi0EEEDpOSB_, symObjAddr: 0x26374, symBinAddr: 0x1000270B4, symSize: 0x34 }
  - { offset: 0x56BBC, size: 0x8, addend: 0x0, symName: __ZNSt3__15tupleIJONS_9allocatorI9h_functorEEEEC2B8ne180100IJS3_ETnNS_9enable_ifIXsr4_AndINS_17integral_constantIbXeqsZT_sZT_EEENS5_17_EnableUTypesCtorIJDpT_EEEEE5valueEiE4typeELi0EEEDpOSB_, symObjAddr: 0x263A8, symBinAddr: 0x1000270E8, symSize: 0x34 }
  - { offset: 0x56C06, size: 0x8, addend: 0x0, symName: __ZNSt3__112__tuple_implINS_15__tuple_indicesIJLm0EEEEJONS_9allocatorI9h_functorEEEEC1B8ne180100IJLm0EEJS6_ETpTnmJEJEJS5_EEENS1_IJXspT_EEEENS_13__tuple_typesIJDpT0_EEENS1_IJXspT1_EEEENSA_IJDpT2_EEEDpOT3_, symObjAddr: 0x263DC, symBinAddr: 0x10002711C, symSize: 0x34 }
  - { offset: 0x56C9B, size: 0x8, addend: 0x0, symName: __ZNSt3__112__tuple_implINS_15__tuple_indicesIJLm0EEEEJONS_9allocatorI9h_functorEEEEC2B8ne180100IJLm0EEJS6_ETpTnmJEJEJS5_EEENS1_IJXspT_EEEENS_13__tuple_typesIJDpT0_EEENS1_IJXspT1_EEEENSA_IJDpT2_EEEDpOT3_, symObjAddr: 0x26410, symBinAddr: 0x100027150, symSize: 0x34 }
  - { offset: 0x56D30, size: 0x8, addend: 0x0, symName: __ZNSt3__112__tuple_leafILm0EONS_9allocatorI9h_functorEELb0EEC2B8ne180100IS3_vEEOT_, symObjAddr: 0x26444, symBinAddr: 0x100027184, symSize: 0x20 }
  - { offset: 0x56D73, size: 0x8, addend: 0x0, symName: __ZNSt3__117__compressed_pairI9h_functorNS_9allocatorIS1_EEEC2B8ne180100IJOS1_EJOS3_EEENS_21piecewise_construct_tENS_5tupleIJDpT_EEENS9_IJDpT0_EEE, symObjAddr: 0x26464, symBinAddr: 0x1000271A4, symSize: 0x54 }
  - { offset: 0x56DDD, size: 0x8, addend: 0x0, symName: __ZNSt3__122__compressed_pair_elemI9h_functorLi0ELb0EEC2B8ne180100IJOS1_EJLm0EEEENS_21piecewise_construct_tENS_5tupleIJDpT_EEENS_15__tuple_indicesIJXspT0_EEEE, symObjAddr: 0x264B8, symBinAddr: 0x1000271F8, symSize: 0x44 }
  - { offset: 0x56E40, size: 0x8, addend: 0x0, symName: __ZNSt3__122__compressed_pair_elemINS_9allocatorI9h_functorEELi1ELb1EEC2B8ne180100IJOS3_EJLm0EEEENS_21piecewise_construct_tENS_5tupleIJDpT_EEENS_15__tuple_indicesIJXspT0_EEEE, symObjAddr: 0x264FC, symBinAddr: 0x10002723C, symSize: 0x38 }
  - { offset: 0x56EA3, size: 0x8, addend: 0x0, symName: __ZNSt3__112__tuple_leafILm0EO9h_functorLb0EE3getB8ne180100Ev, symObjAddr: 0x26558, symBinAddr: 0x100027298, symSize: 0x18 }
  - { offset: 0x56EC9, size: 0x8, addend: 0x0, symName: __ZNSt3__112__tuple_leafILm0EONS_9allocatorI9h_functorEELb0EE3getB8ne180100Ev, symObjAddr: 0x26594, symBinAddr: 0x1000272D4, symSize: 0x18 }
  - { offset: 0x56EEF, size: 0x8, addend: 0x0, symName: __ZNSt3__110__function6__funcI9h_functorNS_9allocatorIS2_EEFdRKNS_10shared_ptrI4NodeEES9_EED2Ev, symObjAddr: 0x265AC, symBinAddr: 0x1000272EC, symSize: 0x2C }
  - { offset: 0x56F1B, size: 0x8, addend: 0x0, symName: __ZNKSt3__110__function12__alloc_funcI9h_functorNS_9allocatorIS2_EEFdRKNS_10shared_ptrI4NodeEES9_EE15__get_allocatorB8ne180100Ev, symObjAddr: 0x265D8, symBinAddr: 0x100027318, symSize: 0x24 }
  - { offset: 0x56F41, size: 0x8, addend: 0x0, symName: __ZNSt3__19allocatorINS_10__function6__funcI9h_functorNS0_IS3_EEFdRKNS_10shared_ptrI4NodeEES9_EEEE8allocateB8ne180100Em, symObjAddr: 0x265FC, symBinAddr: 0x10002733C, symSize: 0x54 }
  - { offset: 0x56F87, size: 0x8, addend: 0x0, symName: __ZNSt3__122__allocator_destructorINS_9allocatorINS_10__function6__funcI9h_functorNS1_IS4_EEFdRKNS_10shared_ptrI4NodeEESA_EEEEEEC1B8ne180100ERSD_m, symObjAddr: 0x26650, symBinAddr: 0x100027390, symSize: 0x3C }
  - { offset: 0x5706E, size: 0x8, addend: 0x0, symName: __ZNSt3__110unique_ptrINS_10__function6__funcI9h_functorNS_9allocatorIS3_EEFdRKNS_10shared_ptrI4NodeEESA_EEENS_22__allocator_destructorINS4_ISC_EEEEEC1B8ne180100ILb1EvEEPSC_NS_16__dependent_typeINS_27__unique_ptr_deleter_sfinaeISF_EEXT_EE20__good_rval_ref_typeE, symObjAddr: 0x2668C, symBinAddr: 0x1000273CC, symSize: 0x3C }
  - { offset: 0x570BF, size: 0x8, addend: 0x0, symName: __ZNKSt3__110unique_ptrINS_10__function6__funcI9h_functorNS_9allocatorIS3_EEFdRKNS_10shared_ptrI4NodeEESA_EEENS_22__allocator_destructorINS4_ISC_EEEEE3getB8ne180100Ev, symObjAddr: 0x266C8, symBinAddr: 0x100027408, symSize: 0x28 }
  - { offset: 0x570E5, size: 0x8, addend: 0x0, symName: __ZNKSt3__110__function12__alloc_funcI9h_functorNS_9allocatorIS2_EEFdRKNS_10shared_ptrI4NodeEES9_EE8__targetB8ne180100Ev, symObjAddr: 0x266F0, symBinAddr: 0x100027430, symSize: 0x24 }
  - { offset: 0x5710B, size: 0x8, addend: 0x0, symName: __ZNSt3__110__function6__funcI9h_functorNS_9allocatorIS2_EEFdRKNS_10shared_ptrI4NodeEES9_EEC1B8ne180100ERKS2_OS4_, symObjAddr: 0x26714, symBinAddr: 0x100027454, symSize: 0x3C }
  - { offset: 0x57153, size: 0x8, addend: 0x0, symName: __ZNSt3__110unique_ptrINS_10__function6__funcI9h_functorNS_9allocatorIS3_EEFdRKNS_10shared_ptrI4NodeEESA_EEENS_22__allocator_destructorINS4_ISC_EEEEE7releaseB8ne180100Ev, symObjAddr: 0x26750, symBinAddr: 0x100027490, symSize: 0x44 }
  - { offset: 0x57188, size: 0x8, addend: 0x0, symName: __ZNSt3__110unique_ptrINS_10__function6__funcI9h_functorNS_9allocatorIS3_EEFdRKNS_10shared_ptrI4NodeEESA_EEENS_22__allocator_destructorINS4_ISC_EEEEED1B8ne180100Ev, symObjAddr: 0x26794, symBinAddr: 0x1000274D4, symSize: 0x2C }
  - { offset: 0x571B2, size: 0x8, addend: 0x0, symName: __ZNKSt3__117__compressed_pairI9h_functorNS_9allocatorIS1_EEE6secondB8ne180100Ev, symObjAddr: 0x267C0, symBinAddr: 0x100027500, symSize: 0x24 }
  - { offset: 0x571D8, size: 0x8, addend: 0x0, symName: __ZNKSt3__122__compressed_pair_elemINS_9allocatorI9h_functorEELi1ELb1EE5__getB8ne180100Ev, symObjAddr: 0x267E4, symBinAddr: 0x100027524, symSize: 0x14 }
  - { offset: 0x57209, size: 0x8, addend: 0x0, symName: __ZNSt3__116allocator_traitsINS_9allocatorINS_10__function6__funcI9h_functorNS1_IS4_EEFdRKNS_10shared_ptrI4NodeEESA_EEEEEE8max_sizeB8ne180100ISD_vEEmRKSD_, symObjAddr: 0x267F8, symBinAddr: 0x100027538, symSize: 0x24 }
  - { offset: 0x57237, size: 0x8, addend: 0x0, symName: __ZNKSt3__19allocatorINS_10__function6__funcI9h_functorNS0_IS3_EEFdRKNS_10shared_ptrI4NodeEES9_EEEE8max_sizeB8ne180100Ev, symObjAddr: 0x2681C, symBinAddr: 0x10002755C, symSize: 0x14 }
  - { offset: 0x5725D, size: 0x8, addend: 0x0, symName: __ZNSt3__122__allocator_destructorINS_9allocatorINS_10__function6__funcI9h_functorNS1_IS4_EEFdRKNS_10shared_ptrI4NodeEESA_EEEEEEC2B8ne180100ERSD_m, symObjAddr: 0x26830, symBinAddr: 0x100027570, symSize: 0x2C }
  - { offset: 0x572A3, size: 0x8, addend: 0x0, symName: __ZNSt3__110unique_ptrINS_10__function6__funcI9h_functorNS_9allocatorIS3_EEFdRKNS_10shared_ptrI4NodeEESA_EEENS_22__allocator_destructorINS4_ISC_EEEEEC2B8ne180100ILb1EvEEPSC_NS_16__dependent_typeINS_27__unique_ptr_deleter_sfinaeISF_EEXT_EE20__good_rval_ref_typeE, symObjAddr: 0x2685C, symBinAddr: 0x10002759C, symSize: 0x48 }
  - { offset: 0x572F4, size: 0x8, addend: 0x0, symName: __ZNSt3__117__compressed_pairIPNS_10__function6__funcI9h_functorNS_9allocatorIS3_EEFdRKNS_10shared_ptrI4NodeEESA_EEENS_22__allocator_destructorINS4_ISC_EEEEEC1B8ne180100IRSD_SG_EEOT_OT0_, symObjAddr: 0x268A4, symBinAddr: 0x1000275E4, symSize: 0x3C }
  - { offset: 0x5734C, size: 0x8, addend: 0x0, symName: __ZNSt3__117__compressed_pairIPNS_10__function6__funcI9h_functorNS_9allocatorIS3_EEFdRKNS_10shared_ptrI4NodeEESA_EEENS_22__allocator_destructorINS4_ISC_EEEEEC2B8ne180100IRSD_SG_EEOT_OT0_, symObjAddr: 0x268E0, symBinAddr: 0x100027620, symSize: 0x48 }
  - { offset: 0x573A4, size: 0x8, addend: 0x0, symName: __ZNSt3__122__compressed_pair_elemIPNS_10__function6__funcI9h_functorNS_9allocatorIS3_EEFdRKNS_10shared_ptrI4NodeEESA_EEELi0ELb0EEC2B8ne180100IRSD_vEEOT_, symObjAddr: 0x26928, symBinAddr: 0x100027668, symSize: 0x24 }
  - { offset: 0x573E6, size: 0x8, addend: 0x0, symName: __ZNSt3__122__compressed_pair_elemINS_22__allocator_destructorINS_9allocatorINS_10__function6__funcI9h_functorNS2_IS5_EEFdRKNS_10shared_ptrI4NodeEESB_EEEEEEELi1ELb0EEC2B8ne180100ISF_vEEOT_, symObjAddr: 0x2694C, symBinAddr: 0x10002768C, symSize: 0x24 }
  - { offset: 0x57428, size: 0x8, addend: 0x0, symName: __ZNKSt3__117__compressed_pairIPNS_10__function6__funcI9h_functorNS_9allocatorIS3_EEFdRKNS_10shared_ptrI4NodeEESA_EEENS_22__allocator_destructorINS4_ISC_EEEEE5firstB8ne180100Ev, symObjAddr: 0x26970, symBinAddr: 0x1000276B0, symSize: 0x24 }
  - { offset: 0x5744E, size: 0x8, addend: 0x0, symName: __ZNKSt3__122__compressed_pair_elemIPNS_10__function6__funcI9h_functorNS_9allocatorIS3_EEFdRKNS_10shared_ptrI4NodeEESA_EEELi0ELb0EE5__getB8ne180100Ev, symObjAddr: 0x26994, symBinAddr: 0x1000276D4, symSize: 0x14 }
  - { offset: 0x57474, size: 0x8, addend: 0x0, symName: __ZNKSt3__117__compressed_pairI9h_functorNS_9allocatorIS1_EEE5firstB8ne180100Ev, symObjAddr: 0x269A8, symBinAddr: 0x1000276E8, symSize: 0x24 }
  - { offset: 0x5749A, size: 0x8, addend: 0x0, symName: __ZNKSt3__122__compressed_pair_elemI9h_functorLi0ELb0EE5__getB8ne180100Ev, symObjAddr: 0x269CC, symBinAddr: 0x10002770C, symSize: 0x14 }
  - { offset: 0x574C0, size: 0x8, addend: 0x0, symName: __ZNSt3__110__function6__funcI9h_functorNS_9allocatorIS2_EEFdRKNS_10shared_ptrI4NodeEES9_EEC2B8ne180100ERKS2_OS4_, symObjAddr: 0x269E0, symBinAddr: 0x100027720, symSize: 0x80 }
  - { offset: 0x57508, size: 0x8, addend: 0x0, symName: __ZNSt3__110__function12__alloc_funcI9h_functorNS_9allocatorIS2_EEFdRKNS_10shared_ptrI4NodeEES9_EEC1B8ne180100ERKS2_OS4_, symObjAddr: 0x26A60, symBinAddr: 0x1000277A0, symSize: 0x3C }
  - { offset: 0x5754E, size: 0x8, addend: 0x0, symName: __ZNSt3__110__function12__alloc_funcI9h_functorNS_9allocatorIS2_EEFdRKNS_10shared_ptrI4NodeEES9_EEC2B8ne180100ERKS2_OS4_, symObjAddr: 0x26A9C, symBinAddr: 0x1000277DC, symSize: 0x5C }
  - { offset: 0x57594, size: 0x8, addend: 0x0, symName: __ZNSt3__117__compressed_pairI9h_functorNS_9allocatorIS1_EEEC1B8ne180100IJRKS1_EJOS3_EEENS_21piecewise_construct_tENS_5tupleIJDpT_EEENSA_IJDpT0_EEE, symObjAddr: 0x26B24, symBinAddr: 0x100027864, symSize: 0x3C }
  - { offset: 0x575FE, size: 0x8, addend: 0x0, symName: __ZNSt3__15tupleIJRK9h_functorEEC1B8ne180100INS_4_AndETnNS_9enable_ifIXsrT_IJNS_17integral_constantIbLb1EEENS_21is_copy_constructibleIS3_EEEE5valueEiE4typeELi0EEES3_, symObjAddr: 0x26B60, symBinAddr: 0x1000278A0, symSize: 0x34 }
  - { offset: 0x57646, size: 0x8, addend: 0x0, symName: __ZNSt3__15tupleIJRK9h_functorEEC2B8ne180100INS_4_AndETnNS_9enable_ifIXsrT_IJNS_17integral_constantIbLb1EEENS_21is_copy_constructibleIS3_EEEE5valueEiE4typeELi0EEES3_, symObjAddr: 0x26B94, symBinAddr: 0x1000278D4, symSize: 0x34 }
  - { offset: 0x5768E, size: 0x8, addend: 0x0, symName: __ZNSt3__112__tuple_implINS_15__tuple_indicesIJLm0EEEEJRK9h_functorEEC1B8ne180100IJLm0EEJS5_ETpTnmJEJEJS5_EEENS1_IJXspT_EEEENS_13__tuple_typesIJDpT0_EEENS1_IJXspT1_EEEENS9_IJDpT2_EEEDpOT3_, symObjAddr: 0x26BC8, symBinAddr: 0x100027908, symSize: 0x34 }
  - { offset: 0x57723, size: 0x8, addend: 0x0, symName: __ZNSt3__112__tuple_implINS_15__tuple_indicesIJLm0EEEEJRK9h_functorEEC2B8ne180100IJLm0EEJS5_ETpTnmJEJEJS5_EEENS1_IJXspT_EEEENS_13__tuple_typesIJDpT0_EEENS1_IJXspT1_EEEENS9_IJDpT2_EEEDpOT3_, symObjAddr: 0x26BFC, symBinAddr: 0x10002793C, symSize: 0x34 }
  - { offset: 0x577B8, size: 0x8, addend: 0x0, symName: __ZNSt3__112__tuple_leafILm0ERK9h_functorLb0EEC2B8ne180100IS3_vEEOT_, symObjAddr: 0x26C30, symBinAddr: 0x100027970, symSize: 0x20 }
  - { offset: 0x577FB, size: 0x8, addend: 0x0, symName: __ZNSt3__117__compressed_pairI9h_functorNS_9allocatorIS1_EEEC2B8ne180100IJRKS1_EJOS3_EEENS_21piecewise_construct_tENS_5tupleIJDpT_EEENSA_IJDpT0_EEE, symObjAddr: 0x26C50, symBinAddr: 0x100027990, symSize: 0x54 }
  - { offset: 0x57865, size: 0x8, addend: 0x0, symName: __ZNSt3__122__compressed_pair_elemI9h_functorLi0ELb0EEC2B8ne180100IJRKS1_EJLm0EEEENS_21piecewise_construct_tENS_5tupleIJDpT_EEENS_15__tuple_indicesIJXspT0_EEEE, symObjAddr: 0x26CA4, symBinAddr: 0x1000279E4, symSize: 0x44 }
  - { offset: 0x578C8, size: 0x8, addend: 0x0, symName: __ZNSt3__112__tuple_leafILm0ERK9h_functorLb0EE3getB8ne180100Ev, symObjAddr: 0x26D0C, symBinAddr: 0x100027A4C, symSize: 0x18 }
  - { offset: 0x578EE, size: 0x8, addend: 0x0, symName: __ZNSt3__117__compressed_pairIPNS_10__function6__funcI9h_functorNS_9allocatorIS3_EEFdRKNS_10shared_ptrI4NodeEESA_EEENS_22__allocator_destructorINS4_ISC_EEEEE5firstB8ne180100Ev, symObjAddr: 0x26D24, symBinAddr: 0x100027A64, symSize: 0x24 }
  - { offset: 0x57914, size: 0x8, addend: 0x0, symName: __ZNSt3__122__compressed_pair_elemIPNS_10__function6__funcI9h_functorNS_9allocatorIS3_EEFdRKNS_10shared_ptrI4NodeEESA_EEELi0ELb0EE5__getB8ne180100Ev, symObjAddr: 0x26D48, symBinAddr: 0x100027A88, symSize: 0x14 }
  - { offset: 0x5793A, size: 0x8, addend: 0x0, symName: __ZNSt3__110unique_ptrINS_10__function6__funcI9h_functorNS_9allocatorIS3_EEFdRKNS_10shared_ptrI4NodeEESA_EEENS_22__allocator_destructorINS4_ISC_EEEEED2B8ne180100Ev, symObjAddr: 0x26D5C, symBinAddr: 0x100027A9C, symSize: 0x30 }
  - { offset: 0x57964, size: 0x8, addend: 0x0, symName: __ZNSt3__110unique_ptrINS_10__function6__funcI9h_functorNS_9allocatorIS3_EEFdRKNS_10shared_ptrI4NodeEESA_EEENS_22__allocator_destructorINS4_ISC_EEEEE5resetB8ne180100EPSC_, symObjAddr: 0x26D8C, symBinAddr: 0x100027ACC, symSize: 0x70 }
  - { offset: 0x579A8, size: 0x8, addend: 0x0, symName: __ZNSt3__117__compressed_pairIPNS_10__function6__funcI9h_functorNS_9allocatorIS3_EEFdRKNS_10shared_ptrI4NodeEESA_EEENS_22__allocator_destructorINS4_ISC_EEEEE6secondB8ne180100Ev, symObjAddr: 0x26DFC, symBinAddr: 0x100027B3C, symSize: 0x28 }
  - { offset: 0x579CE, size: 0x8, addend: 0x0, symName: __ZNSt3__122__allocator_destructorINS_9allocatorINS_10__function6__funcI9h_functorNS1_IS4_EEFdRKNS_10shared_ptrI4NodeEESA_EEEEEEclB8ne180100EPSC_, symObjAddr: 0x26E24, symBinAddr: 0x100027B64, symSize: 0x34 }
  - { offset: 0x57A02, size: 0x8, addend: 0x0, symName: __ZNSt3__122__compressed_pair_elemINS_22__allocator_destructorINS_9allocatorINS_10__function6__funcI9h_functorNS2_IS5_EEFdRKNS_10shared_ptrI4NodeEESB_EEEEEEELi1ELb0EE5__getB8ne180100Ev, symObjAddr: 0x26E58, symBinAddr: 0x100027B98, symSize: 0x14 }
  - { offset: 0x57A28, size: 0x8, addend: 0x0, symName: __ZNSt3__116allocator_traitsINS_9allocatorINS_10__function6__funcI9h_functorNS1_IS4_EEFdRKNS_10shared_ptrI4NodeEESA_EEEEEE10deallocateB8ne180100ERSD_PSC_m, symObjAddr: 0x26E6C, symBinAddr: 0x100027BAC, symSize: 0x34 }
  - { offset: 0x57A6A, size: 0x8, addend: 0x0, symName: __ZNSt3__19allocatorINS_10__function6__funcI9h_functorNS0_IS3_EEFdRKNS_10shared_ptrI4NodeEES9_EEEE10deallocateB8ne180100EPSB_m, symObjAddr: 0x26EA0, symBinAddr: 0x100027BE0, symSize: 0x40 }
  - { offset: 0x57AAC, size: 0x8, addend: 0x0, symName: __ZNSt3__110__function6__funcI9h_functorNS_9allocatorIS2_EEFdRKNS_10shared_ptrI4NodeEES9_EEC1B8ne180100ERKS2_RKS4_, symObjAddr: 0x26EE0, symBinAddr: 0x100027C20, symSize: 0x3C }
  - { offset: 0x57AF4, size: 0x8, addend: 0x0, symName: __ZNSt3__110__function6__funcI9h_functorNS_9allocatorIS2_EEFdRKNS_10shared_ptrI4NodeEES9_EEC2B8ne180100ERKS2_RKS4_, symObjAddr: 0x26F1C, symBinAddr: 0x100027C5C, symSize: 0x80 }
  - { offset: 0x57B3C, size: 0x8, addend: 0x0, symName: __ZNSt3__110__function12__alloc_funcI9h_functorNS_9allocatorIS2_EEFdRKNS_10shared_ptrI4NodeEES9_EEC1B8ne180100ERKS2_RKS4_, symObjAddr: 0x26F9C, symBinAddr: 0x100027CDC, symSize: 0x3C }
  - { offset: 0x57B82, size: 0x8, addend: 0x0, symName: __ZNSt3__110__function12__alloc_funcI9h_functorNS_9allocatorIS2_EEFdRKNS_10shared_ptrI4NodeEES9_EEC2B8ne180100ERKS2_RKS4_, symObjAddr: 0x26FD8, symBinAddr: 0x100027D18, symSize: 0x5C }
  - { offset: 0x57BC8, size: 0x8, addend: 0x0, symName: __ZNSt3__117__compressed_pairI9h_functorNS_9allocatorIS1_EEEC1B8ne180100IJRKS1_EJRKS3_EEENS_21piecewise_construct_tENS_5tupleIJDpT_EEENSB_IJDpT0_EEE, symObjAddr: 0x27060, symBinAddr: 0x100027DA0, symSize: 0x3C }
  - { offset: 0x57C32, size: 0x8, addend: 0x0, symName: __ZNSt3__15tupleIJRKNS_9allocatorI9h_functorEEEEC1B8ne180100INS_4_AndETnNS_9enable_ifIXsrT_IJNS_17integral_constantIbLb1EEENS_21is_copy_constructibleIS5_EEEE5valueEiE4typeELi0EEES5_, symObjAddr: 0x2709C, symBinAddr: 0x100027DDC, symSize: 0x34 }
  - { offset: 0x57C7A, size: 0x8, addend: 0x0, symName: __ZNSt3__15tupleIJRKNS_9allocatorI9h_functorEEEEC2B8ne180100INS_4_AndETnNS_9enable_ifIXsrT_IJNS_17integral_constantIbLb1EEENS_21is_copy_constructibleIS5_EEEE5valueEiE4typeELi0EEES5_, symObjAddr: 0x270D0, symBinAddr: 0x100027E10, symSize: 0x34 }
  - { offset: 0x57CC2, size: 0x8, addend: 0x0, symName: __ZNSt3__112__tuple_implINS_15__tuple_indicesIJLm0EEEEJRKNS_9allocatorI9h_functorEEEEC1B8ne180100IJLm0EEJS7_ETpTnmJEJEJS7_EEENS1_IJXspT_EEEENS_13__tuple_typesIJDpT0_EEENS1_IJXspT1_EEEENSB_IJDpT2_EEEDpOT3_, symObjAddr: 0x27104, symBinAddr: 0x100027E44, symSize: 0x34 }
  - { offset: 0x57D57, size: 0x8, addend: 0x0, symName: __ZNSt3__112__tuple_implINS_15__tuple_indicesIJLm0EEEEJRKNS_9allocatorI9h_functorEEEEC2B8ne180100IJLm0EEJS7_ETpTnmJEJEJS7_EEENS1_IJXspT_EEEENS_13__tuple_typesIJDpT0_EEENS1_IJXspT1_EEEENSB_IJDpT2_EEEDpOT3_, symObjAddr: 0x27138, symBinAddr: 0x100027E78, symSize: 0x34 }
  - { offset: 0x57DEC, size: 0x8, addend: 0x0, symName: __ZNSt3__112__tuple_leafILm0ERKNS_9allocatorI9h_functorEELb0EEC2B8ne180100IS5_vEEOT_, symObjAddr: 0x2716C, symBinAddr: 0x100027EAC, symSize: 0x20 }
  - { offset: 0x57E2F, size: 0x8, addend: 0x0, symName: __ZNSt3__117__compressed_pairI9h_functorNS_9allocatorIS1_EEEC2B8ne180100IJRKS1_EJRKS3_EEENS_21piecewise_construct_tENS_5tupleIJDpT_EEENSB_IJDpT0_EEE, symObjAddr: 0x2718C, symBinAddr: 0x100027ECC, symSize: 0x54 }
  - { offset: 0x57E99, size: 0x8, addend: 0x0, symName: __ZNSt3__122__compressed_pair_elemINS_9allocatorI9h_functorEELi1ELb1EEC2B8ne180100IJRKS3_EJLm0EEEENS_21piecewise_construct_tENS_5tupleIJDpT_EEENS_15__tuple_indicesIJXspT0_EEEE, symObjAddr: 0x271E0, symBinAddr: 0x100027F20, symSize: 0x38 }
  - { offset: 0x57EFC, size: 0x8, addend: 0x0, symName: __ZNSt3__112__tuple_leafILm0ERKNS_9allocatorI9h_functorEELb0EE3getB8ne180100Ev, symObjAddr: 0x2723C, symBinAddr: 0x100027F7C, symSize: 0x18 }
  - { offset: 0x57F22, size: 0x8, addend: 0x0, symName: __ZNSt3__110__function12__alloc_funcI9h_functorNS_9allocatorIS2_EEFdRKNS_10shared_ptrI4NodeEES9_EE7destroyB8ne180100Ev, symObjAddr: 0x27254, symBinAddr: 0x100027F94, symSize: 0x10 }
  - { offset: 0x57F48, size: 0x8, addend: 0x0, symName: __ZNSt3__110__function12__alloc_funcI9h_functorNS_9allocatorIS2_EEFdRKNS_10shared_ptrI4NodeEES9_EEclB8ne180100ES9_S9_, symObjAddr: 0x27264, symBinAddr: 0x100027FA4, symSize: 0x38 }
  - { offset: 0x57F8A, size: 0x8, addend: 0x0, symName: __ZNSt3__128__invoke_void_return_wrapperIdLb0EE6__callB8ne180100IJR9h_functorRKNS_10shared_ptrI4NodeEES9_EEEdDpOT_, symObjAddr: 0x2729C, symBinAddr: 0x100027FDC, symSize: 0x34 }
  - { offset: 0x57FE1, size: 0x8, addend: 0x0, symName: __ZNSt3__117__compressed_pairI9h_functorNS_9allocatorIS1_EEE5firstB8ne180100Ev, symObjAddr: 0x272D0, symBinAddr: 0x100028010, symSize: 0x24 }
  - { offset: 0x58007, size: 0x8, addend: 0x0, symName: __ZN9h_functorclERKNSt3__110shared_ptrI4NodeEES5_, symObjAddr: 0x27328, symBinAddr: 0x100028068, symSize: 0x23C }
  - { offset: 0x58106, size: 0x8, addend: 0x0, symName: __ZNSt3__122__compressed_pair_elemI9h_functorLi0ELb0EE5__getB8ne180100Ev, symObjAddr: 0x275C8, symBinAddr: 0x100028308, symSize: 0x14 }
  - { offset: 0x5812C, size: 0x8, addend: 0x0, symName: __ZNSt3__18functionIFdRKNS_10shared_ptrI4NodeEES5_EED2Ev, symObjAddr: 0x275DC, symBinAddr: 0x10002831C, symSize: 0x2C }
  - { offset: 0x58158, size: 0x8, addend: 0x0, symName: __ZNSt3__110__function12__value_funcIFdRKNS_10shared_ptrI4NodeEES6_EED1B8ne180100Ev, symObjAddr: 0x27608, symBinAddr: 0x100028348, symSize: 0x2C }
  - { offset: 0x58182, size: 0x8, addend: 0x0, symName: __ZNSt3__110__function12__value_funcIFdRKNS_10shared_ptrI4NodeEES6_EED2B8ne180100Ev, symObjAddr: 0x27634, symBinAddr: 0x100028374, symSize: 0x84 }
  - { offset: 0x581AC, size: 0x8, addend: 0x0, symName: __ZNKSt3__110shared_ptrI4NodeEcvbB8ne180100Ev, symObjAddr: 0x276B8, symBinAddr: 0x1000283F8, symSize: 0x2C }
  - { offset: 0x581D2, size: 0x8, addend: 0x0, symName: __ZNSt3__112__hash_tableINS_17__hash_value_typeINS_12basic_stringIcNS_11char_traitsIcEENS_9allocatorIcEEEENS_6vectorINS8_ImNS5_ImEEEENS5_ISA_EEEEEENS_22__unordered_map_hasherIS7_SD_NS_4hashIS7_EENS_8equal_toIS7_EELb1EEENS_21__unordered_map_equalIS7_SD_SI_SG_Lb1EEENS5_ISD_EEE25__emplace_unique_key_argsIS7_JRKNS_21piecewise_construct_tENS_5tupleIJRKS7_EEENSS_IJEEEEEENS_4pairINS_15__hash_iteratorIPNS_11__hash_nodeISD_PvEEEEbEERKT_DpOT0_, symObjAddr: 0x276E4, symBinAddr: 0x100028424, symSize: 0x490 }
  - { offset: 0x582DA, size: 0x8, addend: 0x0, symName: __ZNKSt3__115__hash_iteratorIPNS_11__hash_nodeINS_17__hash_value_typeINS_12basic_stringIcNS_11char_traitsIcEENS_9allocatorIcEEEENS_6vectorINS9_ImNS6_ImEEEENS6_ISB_EEEEEEPvEEEptB8ne180100Ev, symObjAddr: 0x27BA0, symBinAddr: 0x1000288E0, symSize: 0x30 }
  - { offset: 0x58300, size: 0x8, addend: 0x0, symName: __ZNSt3__117__hash_value_typeINS_12basic_stringIcNS_11char_traitsIcEENS_9allocatorIcEEEENS_6vectorINS7_ImNS4_ImEEEENS4_IS9_EEEEE11__get_valueB8ne180100Ev, symObjAddr: 0x27BD0, symBinAddr: 0x100028910, symSize: 0x24 }
  - { offset: 0x58326, size: 0x8, addend: 0x0, symName: __ZNSt3__112__hash_tableINS_17__hash_value_typeINS_12basic_stringIcNS_11char_traitsIcEENS_9allocatorIcEEEENS_6vectorINS8_ImNS5_ImEEEENS5_ISA_EEEEEENS_22__unordered_map_hasherIS7_SD_NS_4hashIS7_EENS_8equal_toIS7_EELb1EEENS_21__unordered_map_equalIS7_SD_SI_SG_Lb1EEENS5_ISD_EEE13hash_functionB8ne180100Ev, symObjAddr: 0x27BF4, symBinAddr: 0x100028934, symSize: 0x28 }
  - { offset: 0x5834C, size: 0x8, addend: 0x0, symName: __ZNKSt3__122__unordered_map_hasherINS_12basic_stringIcNS_11char_traitsIcEENS_9allocatorIcEEEENS_17__hash_value_typeIS6_NS_6vectorINS8_ImNS4_ImEEEENS4_ISA_EEEEEENS_4hashIS6_EENS_8equal_toIS6_EELb1EEclB8ne180100ERKS6_, symObjAddr: 0x27C1C, symBinAddr: 0x10002895C, symSize: 0x2C }
  - { offset: 0x58381, size: 0x8, addend: 0x0, symName: __ZNKSt3__112__hash_tableINS_17__hash_value_typeINS_12basic_stringIcNS_11char_traitsIcEENS_9allocatorIcEEEENS_6vectorINS8_ImNS5_ImEEEENS5_ISA_EEEEEENS_22__unordered_map_hasherIS7_SD_NS_4hashIS7_EENS_8equal_toIS7_EELb1EEENS_21__unordered_map_equalIS7_SD_SI_SG_Lb1EEENS5_ISD_EEE12bucket_countB8ne180100Ev, symObjAddr: 0x27C48, symBinAddr: 0x100028988, symSize: 0x28 }
  - { offset: 0x583A7, size: 0x8, addend: 0x0, symName: __ZNKSt3__110unique_ptrIA_PNS_16__hash_node_baseIPNS_11__hash_nodeINS_17__hash_value_typeINS_12basic_stringIcNS_11char_traitsIcEENS_9allocatorIcEEEENS_6vectorINSA_ImNS7_ImEEEENS7_ISC_EEEEEEPvEEEENS_25__bucket_list_deallocatorINS7_ISK_EEEEEixB8ne180100Em, symObjAddr: 0x27C70, symBinAddr: 0x1000289B0, symSize: 0x34 }
  - { offset: 0x583DC, size: 0x8, addend: 0x0, symName: __ZNKSt3__116__hash_node_baseIPNS_11__hash_nodeINS_17__hash_value_typeINS_12basic_stringIcNS_11char_traitsIcEENS_9allocatorIcEEEENS_6vectorINS9_ImNS6_ImEEEENS6_ISB_EEEEEEPvEEE6__hashB8ne180100Ev, symObjAddr: 0x27CA4, symBinAddr: 0x1000289E4, symSize: 0x18 }
  - { offset: 0x58402, size: 0x8, addend: 0x0, symName: __ZNSt3__112__hash_tableINS_17__hash_value_typeINS_12basic_stringIcNS_11char_traitsIcEENS_9allocatorIcEEEENS_6vectorINS8_ImNS5_ImEEEENS5_ISA_EEEEEENS_22__unordered_map_hasherIS7_SD_NS_4hashIS7_EENS_8equal_toIS7_EELb1EEENS_21__unordered_map_equalIS7_SD_SI_SG_Lb1EEENS5_ISD_EEE6key_eqB8ne180100Ev, symObjAddr: 0x27CBC, symBinAddr: 0x1000289FC, symSize: 0x28 }
  - { offset: 0x58428, size: 0x8, addend: 0x0, symName: __ZNKSt3__121__unordered_map_equalINS_12basic_stringIcNS_11char_traitsIcEENS_9allocatorIcEEEENS_17__hash_value_typeIS6_NS_6vectorINS8_ImNS4_ImEEEENS4_ISA_EEEEEENS_8equal_toIS6_EENS_4hashIS6_EELb1EEclB8ne180100ERKSD_RKS6_, symObjAddr: 0x27CE4, symBinAddr: 0x100028A24, symSize: 0x44 }
  - { offset: 0x5846C, size: 0x8, addend: 0x0, symName: __ZNSt3__116__hash_node_baseIPNS_11__hash_nodeINS_17__hash_value_typeINS_12basic_stringIcNS_11char_traitsIcEENS_9allocatorIcEEEENS_6vectorINS9_ImNS6_ImEEEENS6_ISB_EEEEEEPvEEE8__upcastB8ne180100Ev, symObjAddr: 0x27D28, symBinAddr: 0x100028A68, symSize: 0x24 }
  - { offset: 0x58492, size: 0x8, addend: 0x0, symName: __ZNSt3__111__hash_nodeINS_17__hash_value_typeINS_12basic_stringIcNS_11char_traitsIcEENS_9allocatorIcEEEENS_6vectorINS8_ImNS5_ImEEEENS5_ISA_EEEEEEPvE11__get_valueB8ne180100Ev, symObjAddr: 0x27D4C, symBinAddr: 0x100028A8C, symSize: 0x18 }
  - { offset: 0x584B8, size: 0x8, addend: 0x0, symName: __ZNSt3__112__hash_tableINS_17__hash_value_typeINS_12basic_stringIcNS_11char_traitsIcEENS_9allocatorIcEEEENS_6vectorINS8_ImNS5_ImEEEENS5_ISA_EEEEEENS_22__unordered_map_hasherIS7_SD_NS_4hashIS7_EENS_8equal_toIS7_EELb1EEENS_21__unordered_map_equalIS7_SD_SI_SG_Lb1EEENS5_ISD_EEE21__construct_node_hashIRKNS_21piecewise_construct_tEJNS_5tupleIJRKS7_EEENSS_IJEEEEEENS_10unique_ptrINS_11__hash_nodeISD_PvEENS_22__hash_node_destructorINS5_IS10_EEEEEEmOT_DpOT0_, symObjAddr: 0x27D64, symBinAddr: 0x100028AA4, symSize: 0x14C }
  - { offset: 0x58552, size: 0x8, addend: 0x0, symName: __ZNSt3__112__hash_tableINS_17__hash_value_typeINS_12basic_stringIcNS_11char_traitsIcEENS_9allocatorIcEEEENS_6vectorINS8_ImNS5_ImEEEENS5_ISA_EEEEEENS_22__unordered_map_hasherIS7_SD_NS_4hashIS7_EENS_8equal_toIS7_EELb1EEENS_21__unordered_map_equalIS7_SD_SI_SG_Lb1EEENS5_ISD_EEE4sizeB8ne180100Ev, symObjAddr: 0x27EB0, symBinAddr: 0x100028BF0, symSize: 0x28 }
  - { offset: 0x58578, size: 0x8, addend: 0x0, symName: __ZNSt3__112__hash_tableINS_17__hash_value_typeINS_12basic_stringIcNS_11char_traitsIcEENS_9allocatorIcEEEENS_6vectorINS8_ImNS5_ImEEEENS5_ISA_EEEEEENS_22__unordered_map_hasherIS7_SD_NS_4hashIS7_EENS_8equal_toIS7_EELb1EEENS_21__unordered_map_equalIS7_SD_SI_SG_Lb1EEENS5_ISD_EEE15max_load_factorB8ne180100Ev, symObjAddr: 0x27ED8, symBinAddr: 0x100028C18, symSize: 0x28 }
  - { offset: 0x5859E, size: 0x8, addend: 0x0, symName: __ZNSt3__112__hash_tableINS_17__hash_value_typeINS_12basic_stringIcNS_11char_traitsIcEENS_9allocatorIcEEEENS_6vectorINS8_ImNS5_ImEEEENS5_ISA_EEEEEENS_22__unordered_map_hasherIS7_SD_NS_4hashIS7_EENS_8equal_toIS7_EELb1EEENS_21__unordered_map_equalIS7_SD_SI_SG_Lb1EEENS5_ISD_EEE15__rehash_uniqueB8ne180100Em, symObjAddr: 0x27F00, symBinAddr: 0x100028C40, symSize: 0x2C }
  - { offset: 0x585D3, size: 0x8, addend: 0x0, symName: __ZNSt3__117__compressed_pairINS_16__hash_node_baseIPNS_11__hash_nodeINS_17__hash_value_typeINS_12basic_stringIcNS_11char_traitsIcEENS_9allocatorIcEEEENS_6vectorINSA_ImNS7_ImEEEENS7_ISC_EEEEEEPvEEEENS7_ISH_EEE5firstB8ne180100Ev, symObjAddr: 0x27F2C, symBinAddr: 0x100028C6C, symSize: 0x24 }
  - { offset: 0x585F9, size: 0x8, addend: 0x0, symName: __ZNSt3__116__hash_node_baseIPNS_11__hash_nodeINS_17__hash_value_typeINS_12basic_stringIcNS_11char_traitsIcEENS_9allocatorIcEEEENS_6vectorINS9_ImNS6_ImEEEENS6_ISB_EEEEEEPvEEE5__ptrB8ne180100Ev, symObjAddr: 0x27F50, symBinAddr: 0x100028C90, symSize: 0x24 }
  - { offset: 0x5861F, size: 0x8, addend: 0x0, symName: __ZNKSt3__110unique_ptrINS_11__hash_nodeINS_17__hash_value_typeINS_12basic_stringIcNS_11char_traitsIcEENS_9allocatorIcEEEENS_6vectorINS9_ImNS6_ImEEEENS6_ISB_EEEEEEPvEENS_22__hash_node_destructorINS6_ISG_EEEEEptB8ne180100Ev, symObjAddr: 0x27F74, symBinAddr: 0x100028CB4, symSize: 0x28 }
  - { offset: 0x58645, size: 0x8, addend: 0x0, symName: __ZNKSt3__110unique_ptrINS_11__hash_nodeINS_17__hash_value_typeINS_12basic_stringIcNS_11char_traitsIcEENS_9allocatorIcEEEENS_6vectorINS9_ImNS6_ImEEEENS6_ISB_EEEEEEPvEENS_22__hash_node_destructorINS6_ISG_EEEEE3getB8ne180100Ev, symObjAddr: 0x27F9C, symBinAddr: 0x100028CDC, symSize: 0x28 }
  - { offset: 0x5866B, size: 0x8, addend: 0x0, symName: __ZNSt3__110unique_ptrINS_11__hash_nodeINS_17__hash_value_typeINS_12basic_stringIcNS_11char_traitsIcEENS_9allocatorIcEEEENS_6vectorINS9_ImNS6_ImEEEENS6_ISB_EEEEEEPvEENS_22__hash_node_destructorINS6_ISG_EEEEE7releaseB8ne180100Ev, symObjAddr: 0x27FC4, symBinAddr: 0x100028D04, symSize: 0x44 }
  - { offset: 0x586A0, size: 0x8, addend: 0x0, symName: __ZNSt3__110unique_ptrINS_11__hash_nodeINS_17__hash_value_typeINS_12basic_stringIcNS_11char_traitsIcEENS_9allocatorIcEEEENS_6vectorINS9_ImNS6_ImEEEENS6_ISB_EEEEEEPvEENS_22__hash_node_destructorINS6_ISG_EEEEED1B8ne180100Ev, symObjAddr: 0x28008, symBinAddr: 0x100028D48, symSize: 0x2C }
  - { offset: 0x586CA, size: 0x8, addend: 0x0, symName: __ZNSt3__115__hash_iteratorIPNS_11__hash_nodeINS_17__hash_value_typeINS_12basic_stringIcNS_11char_traitsIcEENS_9allocatorIcEEEENS_6vectorINS9_ImNS6_ImEEEENS6_ISB_EEEEEEPvEEEC1B8ne180100EPNS_16__hash_node_baseISH_EE, symObjAddr: 0x28034, symBinAddr: 0x100028D74, symSize: 0x34 }
  - { offset: 0x58709, size: 0x8, addend: 0x0, symName: __ZNSt3__14pairINS_15__hash_iteratorIPNS_11__hash_nodeINS_17__hash_value_typeINS_12basic_stringIcNS_11char_traitsIcEENS_9allocatorIcEEEENS_6vectorINSA_ImNS7_ImEEEENS7_ISC_EEEEEEPvEEEEbEC1B8ne180100ISJ_RbTnNS_9enable_ifIXclsr10_CheckArgsE17__enable_implicitIT_T0_EEEiE4typeELi0EEEOSO_OSP_, symObjAddr: 0x28068, symBinAddr: 0x100028DA8, symSize: 0x3C }
  - { offset: 0x58767, size: 0x8, addend: 0x0, symName: __ZNSt3__117__compressed_pairImNS_22__unordered_map_hasherINS_12basic_stringIcNS_11char_traitsIcEENS_9allocatorIcEEEENS_17__hash_value_typeIS7_NS_6vectorINS9_ImNS5_ImEEEENS5_ISB_EEEEEENS_4hashIS7_EENS_8equal_toIS7_EELb1EEEE6secondB8ne180100Ev, symObjAddr: 0x280A4, symBinAddr: 0x100028DE4, symSize: 0x24 }
  - { offset: 0x5878D, size: 0x8, addend: 0x0, symName: __ZNSt3__122__compressed_pair_elemINS_22__unordered_map_hasherINS_12basic_stringIcNS_11char_traitsIcEENS_9allocatorIcEEEENS_17__hash_value_typeIS7_NS_6vectorINS9_ImNS5_ImEEEENS5_ISB_EEEEEENS_4hashIS7_EENS_8equal_toIS7_EELb1EEELi1ELb1EE5__getB8ne180100Ev, symObjAddr: 0x280C8, symBinAddr: 0x100028E08, symSize: 0x14 }
  - { offset: 0x587B3, size: 0x8, addend: 0x0, symName: __ZNKSt3__113__string_hashIcNS_9allocatorIcEEEclB8ne180100ERKNS_12basic_stringIcNS_11char_traitsIcEES2_EE, symObjAddr: 0x280DC, symBinAddr: 0x100028E1C, symSize: 0x64 }
  - { offset: 0x587E8, size: 0x8, addend: 0x0, symName: __ZNKSt3__121__murmur2_or_cityhashImLm64EEclB8ne180100EPKvm, symObjAddr: 0x2817C, symBinAddr: 0x100028EBC, symSize: 0x3FC }
  - { offset: 0x58882, size: 0x8, addend: 0x0, symName: __ZNSt3__121__murmur2_or_cityhashImLm64EE18__hash_len_0_to_16B8ne180100EPKcm, symObjAddr: 0x28578, symBinAddr: 0x1000292B8, symSize: 0x1BC }
  - { offset: 0x5895E, size: 0x8, addend: 0x0, symName: __ZNSt3__121__murmur2_or_cityhashImLm64EE19__hash_len_17_to_32B8ne180100EPKcm, symObjAddr: 0x28734, symBinAddr: 0x100029474, symSize: 0x130 }
  - { offset: 0x589C7, size: 0x8, addend: 0x0, symName: __ZNSt3__121__murmur2_or_cityhashImLm64EE19__hash_len_33_to_64B8ne180100EPKcm, symObjAddr: 0x28864, symBinAddr: 0x1000295A4, symSize: 0x2B8 }
  - { offset: 0x58A79, size: 0x8, addend: 0x0, symName: __ZNSt3__121__murmur2_or_cityhashImLm64EE13__hash_len_16B8ne180100Emm, symObjAddr: 0x28B3C, symBinAddr: 0x10002987C, symSize: 0x80 }
  - { offset: 0x58AD4, size: 0x8, addend: 0x0, symName: __ZNSt3__121__murmur2_or_cityhashImLm64EE29__weak_hash_len_32_with_seedsB8ne180100EPKcmm, symObjAddr: 0x28BBC, symBinAddr: 0x1000298FC, symSize: 0x88 }
  - { offset: 0x58B13, size: 0x8, addend: 0x0, symName: __ZNSt3__121__murmur2_or_cityhashImLm64EE8__rotateB8ne180100Emi, symObjAddr: 0x28C44, symBinAddr: 0x100029984, symSize: 0x5C }
  - { offset: 0x58B44, size: 0x8, addend: 0x0, symName: __ZNSt3__14pairImmEaSB8ne180100EOS1_, symObjAddr: 0x28CA0, symBinAddr: 0x1000299E0, symSize: 0x30 }
  - { offset: 0x58B79, size: 0x8, addend: 0x0, symName: __ZNSt3__121__murmur2_or_cityhashImLm64EE11__shift_mixB8ne180100Em, symObjAddr: 0x28D0C, symBinAddr: 0x100029A4C, symSize: 0x1C }
  - { offset: 0x58B9C, size: 0x8, addend: 0x0, symName: __ZNSt3__121__murmur2_or_cityhashImLm64EE22__rotate_by_at_least_1B8ne180100Emi, symObjAddr: 0x28D28, symBinAddr: 0x100029A68, symSize: 0x38 }
  - { offset: 0x58BCD, size: 0x8, addend: 0x0, symName: __ZNSt3__121__murmur2_or_cityhashImLm64EE29__weak_hash_len_32_with_seedsB8ne180100Emmmmmm, symObjAddr: 0x28D80, symBinAddr: 0x100029AC0, symSize: 0xD8 }
  - { offset: 0x58C4A, size: 0x8, addend: 0x0, symName: __ZNSt3__14pairImmEC1B8ne180100ImmTnNS_9enable_ifIXclsr10_CheckArgsE17__enable_implicitIT_T0_EEEiE4typeELi0EEEOS4_OS5_, symObjAddr: 0x28E58, symBinAddr: 0x100029B98, symSize: 0x3C }
  - { offset: 0x58CA8, size: 0x8, addend: 0x0, symName: __ZNSt3__14pairImmEC2B8ne180100ImmTnNS_9enable_ifIXclsr10_CheckArgsE17__enable_implicitIT_T0_EEEiE4typeELi0EEEOS4_OS5_, symObjAddr: 0x28E94, symBinAddr: 0x100029BD4, symSize: 0x34 }
  - { offset: 0x58D06, size: 0x8, addend: 0x0, symName: __ZNKSt3__110unique_ptrIA_PNS_16__hash_node_baseIPNS_11__hash_nodeINS_17__hash_value_typeINS_12basic_stringIcNS_11char_traitsIcEENS_9allocatorIcEEEENS_6vectorINSA_ImNS7_ImEEEENS7_ISC_EEEEEEPvEEEENS_25__bucket_list_deallocatorINS7_ISK_EEEEE11get_deleterB8ne180100Ev, symObjAddr: 0x28EC8, symBinAddr: 0x100029C08, symSize: 0x24 }
  - { offset: 0x58D2C, size: 0x8, addend: 0x0, symName: __ZNKSt3__125__bucket_list_deallocatorINS_9allocatorIPNS_16__hash_node_baseIPNS_11__hash_nodeINS_17__hash_value_typeINS_12basic_stringIcNS_11char_traitsIcEENS1_IcEEEENS_6vectorINSA_ImNS1_ImEEEENS1_ISC_EEEEEEPvEEEEEEE4sizeB8ne180100Ev, symObjAddr: 0x28EEC, symBinAddr: 0x100029C2C, symSize: 0x28 }
  - { offset: 0x58D52, size: 0x8, addend: 0x0, symName: __ZNKSt3__117__compressed_pairIPPNS_16__hash_node_baseIPNS_11__hash_nodeINS_17__hash_value_typeINS_12basic_stringIcNS_11char_traitsIcEENS_9allocatorIcEEEENS_6vectorINSA_ImNS7_ImEEEENS7_ISC_EEEEEEPvEEEENS_25__bucket_list_deallocatorINS7_ISK_EEEEE6secondB8ne180100Ev, symObjAddr: 0x28F14, symBinAddr: 0x100029C54, symSize: 0x28 }
  - { offset: 0x58D78, size: 0x8, addend: 0x0, symName: __ZNKSt3__122__compressed_pair_elemINS_25__bucket_list_deallocatorINS_9allocatorIPNS_16__hash_node_baseIPNS_11__hash_nodeINS_17__hash_value_typeINS_12basic_stringIcNS_11char_traitsIcEENS2_IcEEEENS_6vectorINSB_ImNS2_ImEEEENS2_ISD_EEEEEEPvEEEEEEEELi1ELb0EE5__getB8ne180100Ev, symObjAddr: 0x28F3C, symBinAddr: 0x100029C7C, symSize: 0x14 }
  - { offset: 0x58D9E, size: 0x8, addend: 0x0, symName: __ZNKSt3__117__compressed_pairImNS_9allocatorIPNS_16__hash_node_baseIPNS_11__hash_nodeINS_17__hash_value_typeINS_12basic_stringIcNS_11char_traitsIcEENS1_IcEEEENS_6vectorINSA_ImNS1_ImEEEENS1_ISC_EEEEEEPvEEEEEEE5firstB8ne180100Ev, symObjAddr: 0x28F50, symBinAddr: 0x100029C90, symSize: 0x24 }
  - { offset: 0x58DC4, size: 0x8, addend: 0x0, symName: __ZNKSt3__117__compressed_pairIPPNS_16__hash_node_baseIPNS_11__hash_nodeINS_17__hash_value_typeINS_12basic_stringIcNS_11char_traitsIcEENS_9allocatorIcEEEENS_6vectorINSA_ImNS7_ImEEEENS7_ISC_EEEEEEPvEEEENS_25__bucket_list_deallocatorINS7_ISK_EEEEE5firstB8ne180100Ev, symObjAddr: 0x28F74, symBinAddr: 0x100029CB4, symSize: 0x24 }
  - { offset: 0x58DEA, size: 0x8, addend: 0x0, symName: __ZNKSt3__122__compressed_pair_elemIPPNS_16__hash_node_baseIPNS_11__hash_nodeINS_17__hash_value_typeINS_12basic_stringIcNS_11char_traitsIcEENS_9allocatorIcEEEENS_6vectorINSA_ImNS7_ImEEEENS7_ISC_EEEEEEPvEEEELi0ELb0EE5__getB8ne180100Ev, symObjAddr: 0x28F98, symBinAddr: 0x100029CD8, symSize: 0x14 }
  - { offset: 0x58E10, size: 0x8, addend: 0x0, symName: __ZNSt3__117__compressed_pairIfNS_21__unordered_map_equalINS_12basic_stringIcNS_11char_traitsIcEENS_9allocatorIcEEEENS_17__hash_value_typeIS7_NS_6vectorINS9_ImNS5_ImEEEENS5_ISB_EEEEEENS_8equal_toIS7_EENS_4hashIS7_EELb1EEEE6secondB8ne180100Ev, symObjAddr: 0x28FAC, symBinAddr: 0x100029CEC, symSize: 0x24 }
  - { offset: 0x58E36, size: 0x8, addend: 0x0, symName: __ZNSt3__122__compressed_pair_elemINS_21__unordered_map_equalINS_12basic_stringIcNS_11char_traitsIcEENS_9allocatorIcEEEENS_17__hash_value_typeIS7_NS_6vectorINS9_ImNS5_ImEEEENS5_ISB_EEEEEENS_8equal_toIS7_EENS_4hashIS7_EELb1EEELi1ELb1EE5__getB8ne180100Ev, symObjAddr: 0x28FD0, symBinAddr: 0x100029D10, symSize: 0x14 }
  - { offset: 0x58E5C, size: 0x8, addend: 0x0, symName: __ZNKSt3__18equal_toINS_12basic_stringIcNS_11char_traitsIcEENS_9allocatorIcEEEEEclB8ne180100ERKS6_S9_, symObjAddr: 0x28FE4, symBinAddr: 0x100029D24, symSize: 0x30 }
  - { offset: 0x58EA0, size: 0x8, addend: 0x0, symName: __ZNKSt3__117__hash_value_typeINS_12basic_stringIcNS_11char_traitsIcEENS_9allocatorIcEEEENS_6vectorINS7_ImNS4_ImEEEENS4_IS9_EEEEE11__get_valueB8ne180100Ev, symObjAddr: 0x29014, symBinAddr: 0x100029D54, symSize: 0x24 }
  - { offset: 0x58EC6, size: 0x8, addend: 0x0, symName: __ZNSt3__111char_traitsIcE7compareB8ne180100EPKcS3_m, symObjAddr: 0x2916C, symBinAddr: 0x100029EAC, symSize: 0x34 }
  - { offset: 0x58F05, size: 0x8, addend: 0x0, symName: __ZNSt3__114pointer_traitsIPNS_16__hash_node_baseIPNS_11__hash_nodeINS_17__hash_value_typeINS_12basic_stringIcNS_11char_traitsIcEENS_9allocatorIcEEEENS_6vectorINSA_ImNS7_ImEEEENS7_ISC_EEEEEEPvEEEEE10pointer_toB8ne180100ERSJ_, symObjAddr: 0x291D8, symBinAddr: 0x100029F18, symSize: 0x14 }
  - { offset: 0x58F28, size: 0x8, addend: 0x0, symName: __ZNSt3__112__hash_tableINS_17__hash_value_typeINS_12basic_stringIcNS_11char_traitsIcEENS_9allocatorIcEEEENS_6vectorINS8_ImNS5_ImEEEENS5_ISA_EEEEEENS_22__unordered_map_hasherIS7_SD_NS_4hashIS7_EENS_8equal_toIS7_EELb1EEENS_21__unordered_map_equalIS7_SD_SI_SG_Lb1EEENS5_ISD_EEE12__node_allocB8ne180100Ev, symObjAddr: 0x291EC, symBinAddr: 0x100029F2C, symSize: 0x28 }
  - { offset: 0x58F4E, size: 0x8, addend: 0x0, symName: __ZNSt3__116allocator_traitsINS_9allocatorINS_11__hash_nodeINS_17__hash_value_typeINS_12basic_stringIcNS_11char_traitsIcEENS1_IcEEEENS_6vectorINS9_ImNS1_ImEEEENS1_ISB_EEEEEEPvEEEEE8allocateB8ne180100ERSH_m, symObjAddr: 0x29214, symBinAddr: 0x100029F54, symSize: 0x2C }
  - { offset: 0x58F81, size: 0x8, addend: 0x0, symName: __ZNSt3__122__hash_node_destructorINS_9allocatorINS_11__hash_nodeINS_17__hash_value_typeINS_12basic_stringIcNS_11char_traitsIcEENS1_IcEEEENS_6vectorINS9_ImNS1_ImEEEENS1_ISB_EEEEEEPvEEEEEC1B8ne180100ERSH_b, symObjAddr: 0x29240, symBinAddr: 0x100029F80, symSize: 0x40 }
  - { offset: 0x58FCF, size: 0x8, addend: 0x0, symName: __ZNSt3__110unique_ptrINS_11__hash_nodeINS_17__hash_value_typeINS_12basic_stringIcNS_11char_traitsIcEENS_9allocatorIcEEEENS_6vectorINS9_ImNS6_ImEEEENS6_ISB_EEEEEEPvEENS_22__hash_node_destructorINS6_ISG_EEEEEC1B8ne180100ILb1EvEEPSG_NS_16__dependent_typeINS_27__unique_ptr_deleter_sfinaeISJ_EEXT_EE20__good_rval_ref_typeE, symObjAddr: 0x29280, symBinAddr: 0x100029FC0, symSize: 0x3C }
  - { offset: 0x59020, size: 0x8, addend: 0x0, symName: __ZNKSt3__110unique_ptrINS_11__hash_nodeINS_17__hash_value_typeINS_12basic_stringIcNS_11char_traitsIcEENS_9allocatorIcEEEENS_6vectorINS9_ImNS6_ImEEEENS6_ISB_EEEEEEPvEENS_22__hash_node_destructorINS6_ISG_EEEEEdeB8ne180100Ev, symObjAddr: 0x29304, symBinAddr: 0x10002A044, symSize: 0x28 }
  - { offset: 0x59046, size: 0x8, addend: 0x0, symName: __ZNSt3__116allocator_traitsINS_9allocatorINS_11__hash_nodeINS_17__hash_value_typeINS_12basic_stringIcNS_11char_traitsIcEENS1_IcEEEENS_6vectorINS9_ImNS1_ImEEEENS1_ISB_EEEEEEPvEEEEE9constructB8ne180100INS_4pairIKS8_SD_EEJRKNS_21piecewise_construct_tENS_5tupleIJRSL_EEENSQ_IJEEEEvEEvRSH_PT_DpOT0_, symObjAddr: 0x2932C, symBinAddr: 0x10002A06C, symSize: 0x44 }
  - { offset: 0x590C5, size: 0x8, addend: 0x0, symName: __ZNSt3__122__hash_key_value_typesINS_17__hash_value_typeINS_12basic_stringIcNS_11char_traitsIcEENS_9allocatorIcEEEENS_6vectorINS8_ImNS5_ImEEEENS5_ISA_EEEEEEE9__get_ptrB8ne180100ERSD_, symObjAddr: 0x29370, symBinAddr: 0x10002A0B0, symSize: 0x24 }
