---
triple:          'arm64-apple-darwin'
binary-path:     test
relocations:
  - { offset: 0x5C, size: 0x8, addend: 0x0, symName: __ZNSt3__119piecewise_constructE, symObjAddr: 0x3B8AC, symBinAddr: 0x10004D38E, symSize: 0x0 }
  - { offset: 0x48E6, size: 0x8, addend: 0x0, symName: __ZNSt3__14__fs10filesystem5beginB8ne180100ENS1_18directory_iteratorE, symObjAddr: 0x517C, symBinAddr: 0x100007A14, symSize: 0x38 }
  - { offset: 0x4913, size: 0x8, addend: 0x0, symName: __ZNSt3__14__fs10filesystem3endB8ne180100ENS1_18directory_iteratorE, symObjAddr: 0x5214, symBinAddr: 0x100007AAC, symSize: 0x34 }
  - { offset: 0x493C, size: 0x8, addend: 0x0, symName: __ZNSt3__14__fs10filesystemneB8ne180100ERKNS1_18directory_iteratorES4_, symObjAddr: 0x5248, symBinAddr: 0x100007AE0, symSize: 0x30 }
  - { offset: 0x4976, size: 0x8, addend: 0x0, symName: __ZNSt3__14__fs10filesystemeqB8ne180100ERKNS1_18directory_iteratorES4_, symObjAddr: 0xB86C, symBinAddr: 0x10000E104, symSize: 0x2C }
  - { offset: 0xBAAC, size: 0x8, addend: 0x0, symName: __ZNSt3__16chronomiB8ne180100IxNS_5ratioILl1ELl1000000000EEExS3_EENS_11common_typeIJNS0_8durationIT_T0_EENS5_IT1_T2_EEEE4typeERKS8_RKSB_, symObjAddr: 0x136B4, symBinAddr: 0x100015F4C, symSize: 0x6C }
  - { offset: 0xBB19, size: 0x8, addend: 0x0, symName: __ZNSt3__16chrono13duration_castB8ne180100INS0_8durationIxNS_5ratioILl1ELl1000EEEEExNS3_ILl1ELl1000000000EEETnNS_9enable_ifIXsr13__is_durationIT_EE5valueEiE4typeELi0EEES8_RKNS2_IT0_T1_EE, symObjAddr: 0x86B8, symBinAddr: 0x10000AF50, symSize: 0x30 }
  - { offset: 0xBB66, size: 0x8, addend: 0x0, symName: __ZNSt3__16chronomiB8ne180100INS0_12steady_clockENS0_8durationIxNS_5ratioILl1ELl1000000000EEEEES6_EENS_11common_typeIJT0_T1_EE4typeERKNS0_10time_pointIT_S8_EERKNSC_ISD_S9_EE, symObjAddr: 0x86E8, symBinAddr: 0x10000AF80, symSize: 0x58 }
  - { offset: 0xEE77, size: 0x8, addend: 0x0, symName: __ZNSt3__111__sift_downB8ne180100INS_17_ClassicAlgPolicyERNS_8functionIFbRKNS_10shared_ptrI4NodeEES7_EEENS_11__wrap_iterIPS5_EEEEvT1_OT0_NS_15iterator_traitsISE_E15difference_typeESE_, symObjAddr: 0xC82C, symBinAddr: 0x10000F0C4, symSize: 0x308 }
  - { offset: 0x1132F, size: 0x8, addend: 0x0, symName: __ZNSt3__110__function10__not_nullB8ne180100I9h_functorEEbRKT_, symObjAddr: 0x24C38, symBinAddr: 0x1000274D0, symSize: 0x18 }
  - { offset: 0x11360, size: 0x8, addend: 0x0, symName: __ZNSt3__110__function10__not_nullB8ne180100I18more_than_specificEEbRKT_, symObjAddr: 0x2E418, symBinAddr: 0x100030CB0, symSize: 0x18 }
  - { offset: 0x12291, size: 0x8, addend: 0x0, symName: __ZNSt3__117__floyd_sift_downB8ne180100INS_17_ClassicAlgPolicyERNS_8functionIFbRKNS_10shared_ptrI4NodeEES7_EEENS_11__wrap_iterIPS5_EEEET1_SE_OT0_NS_15iterator_traitsISE_E15difference_typeE, symObjAddr: 0x108F4, symBinAddr: 0x10001318C, symSize: 0x140 }
  - { offset: 0x19B95, size: 0x8, addend: 0x0, symName: __ZNSt3__124__put_character_sequenceB8ne180100IcNS_11char_traitsIcEEEERNS_13basic_ostreamIT_T0_EES7_PKS4_m, symObjAddr: 0x16700, symBinAddr: 0x100018F98, symSize: 0x1E8 }
  - { offset: 0x223E2, size: 0x8, addend: 0x0, symName: __ZNSt3__17advanceB8ne180100INS_11__wrap_iterIP4EdgeEEllvEEvRT_T0_, symObjAddr: 0x23498, symBinAddr: 0x100025D30, symSize: 0x38 }
  - { offset: 0x22473, size: 0x8, addend: 0x0, symName: __ZNSt3__17advanceB8ne180100IPdllvEEvRT_T0_, symObjAddr: 0x2446C, symBinAddr: 0x100026D04, symSize: 0x38 }
  - { offset: 0x23473, size: 0x8, addend: 0x0, symName: __ZNSt3__16__math3powB8ne180100IdiTnNS_9enable_ifIXaasr13is_arithmeticIT_EE5valuesr13is_arithmeticIT0_EE5valueEiE4typeELi0EEENS_9__promoteIS3_S4_vE4typeES3_S4_, symObjAddr: 0x2652C, symBinAddr: 0x100028DC4, symSize: 0x38 }
  - { offset: 0x234D0, size: 0x8, addend: 0x0, symName: __ZNSt3__16__math4ceilB8ne180100Ef, symObjAddr: 0x11858, symBinAddr: 0x1000140F0, symSize: 0x18 }
  - { offset: 0x234FC, size: 0x8, addend: 0x0, symName: __ZNSt3__16__math3powB8ne180100IiEEddd, symObjAddr: 0x2657C, symBinAddr: 0x100028E14, symSize: 0x2C }
  - { offset: 0x2C61A, size: 0x8, addend: 0x0, symName: __ZNSt3__16copy_nB8ne180100IPKcmPcTnNS_9enable_ifIXsr37__has_random_access_iterator_categoryIT_EE5valueEiE4typeELi0EEET1_S5_T0_S8_, symObjAddr: 0x354C8, symBinAddr: 0x100037D60, symSize: 0x44 }
  - { offset: 0x2EF4B, size: 0x8, addend: 0x0, symName: __ZNSt3__1lsB8ne180100INS_11char_traitsIcEEEERNS_13basic_ostreamIcT_EES6_PKc, symObjAddr: 0x144, symBinAddr: 0x1000029DC, symSize: 0x48 }
  - { offset: 0x2EF91, size: 0x8, addend: 0x0, symName: __ZNSt3__1neB8ne180100IPNS_12basic_stringIcNS_11char_traitsIcEENS_9allocatorIcEEEEEEbRKNS_11__wrap_iterIT_EESC_, symObjAddr: 0xC5C, symBinAddr: 0x1000034F4, symSize: 0x30 }
  - { offset: 0x2FDE3, size: 0x8, addend: 0x0, symName: __ZNSt3__1lsB8ne180100IcNS_11char_traitsIcEENS_9allocatorIcEEEERNS_13basic_ostreamIT_T0_EES9_RKNS_12basic_stringIS6_S7_T1_EE, symObjAddr: 0xE4C, symBinAddr: 0x1000036E4, symSize: 0x4C }
  - { offset: 0x2FE3B, size: 0x8, addend: 0x0, symName: __ZNSt3__14endlB8ne180100IcNS_11char_traitsIcEEEERNS_13basic_ostreamIT_T0_EES7_, symObjAddr: 0xEC4, symBinAddr: 0x10000375C, symSize: 0x58 }
  - { offset: 0x2FE7B, size: 0x8, addend: 0x0, symName: __ZNSt3__17getlineB8ne180100IcNS_11char_traitsIcEENS_9allocatorIcEEEERNS_13basic_istreamIT_T0_EES9_RNS_12basic_stringIS6_S7_T1_EE, symObjAddr: 0xF6C, symBinAddr: 0x100003804, symSize: 0x5C }
  - { offset: 0x2FED3, size: 0x8, addend: 0x0, symName: __ZNSt3__1eqB8ne180100IcNS_11char_traitsIcEENS_9allocatorIcEEEEbRKNS_12basic_stringIT_T0_T1_EEPKS6_, symObjAddr: 0xFC8, symBinAddr: 0x100003860, symSize: 0xA4 }
  - { offset: 0x2FF3A, size: 0x8, addend: 0x0, symName: __ZNSt3__13maxB8ne180100ImEET_St16initializer_listIS1_E, symObjAddr: 0x1310, symBinAddr: 0x100003BA8, symSize: 0x50 }
  - { offset: 0x30395, size: 0x8, addend: 0x0, symName: __ZNSt3__1rsB8ne180100IcNS_11char_traitsIcEENS_9allocatorIcEEEERNS_13basic_istreamIT_T0_EES9_RNS_12basic_stringIS6_S7_T1_EE, symObjAddr: 0x1A84, symBinAddr: 0x10000431C, symSize: 0x2EC }
  - { offset: 0x30462, size: 0x8, addend: 0x0, symName: __ZNSt3__111make_sharedB8ne180100I4NodeJddRmEvEENS_10shared_ptrIT_EEDpOT0_, symObjAddr: 0x1D98, symBinAddr: 0x100004630, symSize: 0x50 }
  - { offset: 0x30ED2, size: 0x8, addend: 0x0, symName: __ZNSt3__111make_sharedB8ne180100I4NodeJRiS2_RmEvEENS_10shared_ptrIT_EEDpOT0_, symObjAddr: 0x39DC, symBinAddr: 0x100006274, symSize: 0x50 }
  - { offset: 0x30F3D, size: 0x8, addend: 0x0, symName: __ZNSt3__19make_pairB8ne180100IRiS1_EENS_4pairINS_18__unwrap_ref_decayIT_E4typeENS3_IT0_E4typeEEEOS4_OS7_, symObjAddr: 0x3AAC, symBinAddr: 0x100006344, symSize: 0x34 }
  - { offset: 0x31060, size: 0x8, addend: 0x0, symName: __ZNSt3__1neB8ne180100IP4EdgeEEbRKNS_11__wrap_iterIT_EES7_, symObjAddr: 0x3ED4, symBinAddr: 0x10000676C, symSize: 0x30 }
  - { offset: 0x310A3, size: 0x8, addend: 0x0, symName: __ZNSt3__1neB8ne180100IPNS_6vectorI4EdgeNS_9allocatorIS2_EEEEEEbRKNS_11__wrap_iterIT_EESB_, symObjAddr: 0x4004, symBinAddr: 0x10000689C, symSize: 0x30 }
  - { offset: 0x31F02, size: 0x8, addend: 0x0, symName: __ZNSt3__1eqB8ne180100I4NodeEEbRKNS_10shared_ptrIT_EEDn, symObjAddr: 0x5E64, symBinAddr: 0x1000086FC, symSize: 0x2C }
  - { offset: 0x31F46, size: 0x8, addend: 0x0, symName: __ZNSt3__14swapB8ne180100INS_6vectorIdNS_9allocatorIdEEEENS2_IS4_EEEEvRNS1_IT_T0_EES9_, symObjAddr: 0x88E4, symBinAddr: 0x10000B17C, symSize: 0x2C }
  - { offset: 0x31F91, size: 0x8, addend: 0x0, symName: __ZNSt3__1plB8ne180100IcNS_11char_traitsIcEENS_9allocatorIcEEEENS_12basic_stringIT_T0_T1_EERKS9_PKS6_, symObjAddr: 0x969C, symBinAddr: 0x10000BF34, symSize: 0x11C }
  - { offset: 0x321DE, size: 0x8, addend: 0x0, symName: __ZNSt3__1neB8ne180100ERKNS_25__hash_map_const_iteratorINS_21__hash_const_iteratorIPNS_11__hash_nodeINS_17__hash_value_typeINS_12basic_stringIcNS_11char_traitsIcEENS_9allocatorIcEEEENS_6vectorINSA_ImNS7_ImEEEENS7_ISC_EEEEEEPvEEEEEESM_, symObjAddr: 0xA274, symBinAddr: 0x10000CB0C, symSize: 0x2C }
  - { offset: 0x3221B, size: 0x8, addend: 0x0, symName: __ZNSt3__1neB8ne180100IPKNS_6vectorImNS_9allocatorImEEEEEEbRKNS_11__wrap_iterIT_EESB_, symObjAddr: 0xA328, symBinAddr: 0x10000CBC0, symSize: 0x30 }
  - { offset: 0x3240D, size: 0x8, addend: 0x0, symName: __ZNSt3__1eqB8ne180100IPNS_12basic_stringIcNS_11char_traitsIcEENS_9allocatorIcEEEEEEbRKNS_11__wrap_iterIT_EESC_, symObjAddr: 0xA854, symBinAddr: 0x10000D0EC, symSize: 0x44 }
  - { offset: 0x32450, size: 0x8, addend: 0x0, symName: __ZNSt3__111max_elementB8ne180100IPKmNS_6__lessIvvEEEET_S5_S5_T0_, symObjAddr: 0xA908, symBinAddr: 0x10000D1A0, symSize: 0x30 }
  - { offset: 0x324AA, size: 0x8, addend: 0x0, symName: __ZNSt3__113__max_elementB8ne180100IRNS_6__lessIvvEEPKmEET0_S6_S6_T_, symObjAddr: 0xA970, symBinAddr: 0x10000D208, symSize: 0x94 }
  - { offset: 0x32597, size: 0x8, addend: 0x0, symName: __ZNSt3__1eqB8ne180100IP4EdgeEEbRKNS_11__wrap_iterIT_EES7_, symObjAddr: 0xADB8, symBinAddr: 0x10000D650, symSize: 0x44 }
  - { offset: 0x325DA, size: 0x8, addend: 0x0, symName: __ZNSt3__112__to_addressB8ne180100I4EdgeEEPT_S3_, symObjAddr: 0xAE14, symBinAddr: 0x10000D6AC, symSize: 0x14 }
  - { offset: 0x3260F, size: 0x8, addend: 0x0, symName: __ZNSt3__1eqB8ne180100IPNS_6vectorI4EdgeNS_9allocatorIS2_EEEEEEbRKNS_11__wrap_iterIT_EESB_, symObjAddr: 0xAE28, symBinAddr: 0x10000D6C0, symSize: 0x44 }
  - { offset: 0x32652, size: 0x8, addend: 0x0, symName: __ZNSt3__112__to_addressB8ne180100INS_6vectorI4EdgeNS_9allocatorIS2_EEEEEEPT_S7_, symObjAddr: 0xAE84, symBinAddr: 0x10000D71C, symSize: 0x14 }
  - { offset: 0x32687, size: 0x8, addend: 0x0, symName: __ZNSt3__134__libcpp_atomic_refcount_incrementB8ne180100IlEET_RS1_, symObjAddr: 0xB614, symBinAddr: 0x10000DEAC, symSize: 0x30 }
  - { offset: 0x326BC, size: 0x8, addend: 0x0, symName: __ZNSt3__134__libcpp_atomic_refcount_decrementB8ne180100IlEET_RS1_, symObjAddr: 0xB79C, symBinAddr: 0x10000E034, symSize: 0x30 }
  - { offset: 0x326F1, size: 0x8, addend: 0x0, symName: __ZNSt3__1eqB8ne180100INS_4__fs10filesystem12__dir_streamES3_EEbRKNS_10shared_ptrIT_EERKNS4_IT0_EE, symObjAddr: 0xB898, symBinAddr: 0x10000E130, symSize: 0x44 }
  - { offset: 0x32740, size: 0x8, addend: 0x0, symName: __ZNSt3__112__to_addressB8ne180100INS_12basic_stringIcNS_11char_traitsIcEENS_9allocatorIcEEEEEEPT_S8_, symObjAddr: 0xB9D4, symBinAddr: 0x10000E26C, symSize: 0x14 }
  - { offset: 0x335E4, size: 0x8, addend: 0x0, symName: __ZNSt3__19make_heapB8ne180100INS_11__wrap_iterIPNS_10shared_ptrI4NodeEEEENS_8functionIFbRKS4_S9_EEEEEvT_SC_T0_, symObjAddr: 0xBA9C, symBinAddr: 0x10000E334, symSize: 0x44 }
  - { offset: 0x3363B, size: 0x8, addend: 0x0, symName: __ZNSt3__111make_sharedB8ne180100I4NodeJRdS2_RmNS_6vectorIdNS_9allocatorIdEEEEdEvEENS_10shared_ptrIT_EEDpOT0_, symObjAddr: 0xBB74, symBinAddr: 0x10000E40C, symSize: 0x60 }
  - { offset: 0x336CE, size: 0x8, addend: 0x0, symName: __ZNSt3__19push_heapB8ne180100INS_11__wrap_iterIPNS_10shared_ptrI4NodeEEEENS_8functionIFbRKS4_S9_EEEEEvT_SC_T0_, symObjAddr: 0xBCF4, symBinAddr: 0x10000E58C, symSize: 0x44 }
  - { offset: 0x33725, size: 0x8, addend: 0x0, symName: __ZNSt3__18pop_heapB8ne180100INS_11__wrap_iterIPNS_10shared_ptrI4NodeEEEENS_8functionIFbRKS4_S9_EEEEEvT_SC_T0_, symObjAddr: 0xBD5C, symBinAddr: 0x10000E5F4, symSize: 0x60 }
  - { offset: 0x3378A, size: 0x8, addend: 0x0, symName: __ZNSt3__1neB8ne180100ERKNS_21__hash_const_iteratorIPNS_11__hash_nodeImPvEEEES7_, symObjAddr: 0xBE54, symBinAddr: 0x10000E6EC, symSize: 0x30 }
  - { offset: 0x337C7, size: 0x8, addend: 0x0, symName: __ZNSt3__1neB8ne180100IPK4EdgeEEbRKNS_11__wrap_iterIT_EES8_, symObjAddr: 0xBFD8, symBinAddr: 0x10000E870, symSize: 0x30 }
  - { offset: 0x3380A, size: 0x8, addend: 0x0, symName: __ZNSt3__111make_sharedB8ne180100I4NodeJRdS2_RmRNS_6vectorIdNS_9allocatorIdEEEES2_RNS_10shared_ptrIS1_EEEvEENS9_IT_EEDpOT0_, symObjAddr: 0xC060, symBinAddr: 0x10000E8F8, symSize: 0x68 }
  - { offset: 0x338B1, size: 0x8, addend: 0x0, symName: __ZNSt3__111__make_heapB8ne180100INS_17_ClassicAlgPolicyERNS_8functionIFbRKNS_10shared_ptrI4NodeEES7_EEENS_11__wrap_iterIPS5_EEEEvT1_SE_OT0_, symObjAddr: 0xC71C, symBinAddr: 0x10000EFB4, symSize: 0xC8 }
  - { offset: 0x33954, size: 0x8, addend: 0x0, symName: __ZNSt3__1miB8ne180100IPNS_10shared_ptrI4NodeEES4_EEDTmicldtfp_4baseEcldtfp0_4baseEERKNS_11__wrap_iterIT_EERKNS6_IT0_EE, symObjAddr: 0xC7E4, symBinAddr: 0x10000F07C, symSize: 0x48 }
  - { offset: 0x33B3F, size: 0x8, addend: 0x0, symName: __ZNSt3__125__throw_bad_function_callB8ne180100Ev, symObjAddr: 0xCCC4, symBinAddr: 0x10000F55C, symSize: 0x38 }
  - { offset: 0x33BBF, size: 0x8, addend: 0x0, symName: __ZNSt3__14swapB8ne180100IP4NodeEENS_9enable_ifIXaasr21is_move_constructibleIT_EE5valuesr18is_move_assignableIS4_EE5valueEvE4typeERS4_S7_, symObjAddr: 0xCE58, symBinAddr: 0x10000F6F0, symSize: 0x3C }
  - { offset: 0x33C10, size: 0x8, addend: 0x0, symName: __ZNSt3__14swapB8ne180100IPNS_19__shared_weak_countEEENS_9enable_ifIXaasr21is_move_constructibleIT_EE5valuesr18is_move_assignableIS4_EE5valueEvE4typeERS4_S7_, symObjAddr: 0xCE94, symBinAddr: 0x10000F72C, symSize: 0x3C }
  - { offset: 0x33C61, size: 0x8, addend: 0x0, symName: __ZNSt3__115allocate_sharedB8ne180100I4NodeNS_9allocatorIS1_EEJRdS4_RmNS_6vectorIdNS2_IdEEEEdEvEENS_10shared_ptrIT_EERKT0_DpOT1_, symObjAddr: 0xD0AC, symBinAddr: 0x10000F944, symSize: 0xB8 }
  - { offset: 0x3402A, size: 0x8, addend: 0x0, symName: __ZNSt3__117__libcpp_allocateB8ne180100Emm, symObjAddr: 0xD4F0, symBinAddr: 0x10000FD88, symSize: 0x60 }
  - { offset: 0x34086, size: 0x8, addend: 0x0, symName: __ZNSt3__124__is_overaligned_for_newB8ne180100Em, symObjAddr: 0xD568, symBinAddr: 0x10000FE00, symSize: 0x1C }
  - { offset: 0x340B4, size: 0x8, addend: 0x0, symName: __ZNSt3__121__libcpp_operator_newB8ne180100IJmSt11align_val_tEEEPvDpT_, symObjAddr: 0xD584, symBinAddr: 0x10000FE1C, symSize: 0x2C }
  - { offset: 0x34101, size: 0x8, addend: 0x0, symName: __ZNSt3__121__libcpp_operator_newB8ne180100IJmEEEPvDpT_, symObjAddr: 0xD5B0, symBinAddr: 0x10000FE48, symSize: 0x24 }
  - { offset: 0x343B7, size: 0x8, addend: 0x0, symName: __ZNSt3__119__libcpp_deallocateB8ne180100EPvmm, symObjAddr: 0xE190, symBinAddr: 0x100010A28, symSize: 0x60 }
  - { offset: 0x3441E, size: 0x8, addend: 0x0, symName: __ZNSt3__127__do_deallocate_handle_sizeB8ne180100IJSt11align_val_tEEEvPvmDpT_, symObjAddr: 0xE1F0, symBinAddr: 0x100010A88, symSize: 0x30 }
  - { offset: 0x34472, size: 0x8, addend: 0x0, symName: __ZNSt3__127__do_deallocate_handle_sizeB8ne180100IJEEEvPvmDpT_, symObjAddr: 0xE220, symBinAddr: 0x100010AB8, symSize: 0x28 }
  - { offset: 0x344B1, size: 0x8, addend: 0x0, symName: __ZNSt3__124__libcpp_operator_deleteB8ne180100IJPvSt11align_val_tEEEvDpT_, symObjAddr: 0xE248, symBinAddr: 0x100010AE0, symSize: 0x2C }
  - { offset: 0x344FB, size: 0x8, addend: 0x0, symName: __ZNSt3__124__libcpp_operator_deleteB8ne180100IJPvEEEvDpT_, symObjAddr: 0xE274, symBinAddr: 0x100010B0C, symSize: 0x24 }
  - { offset: 0x34530, size: 0x8, addend: 0x0, symName: __ZNSt3__122__make_exception_guardB8ne180100INS_6vectorIdNS_9allocatorIdEEE16__destroy_vectorEEENS_28__exception_guard_exceptionsIT_EES7_, symObjAddr: 0xE504, symBinAddr: 0x100010D9C, symSize: 0x40 }
  - { offset: 0x34565, size: 0x8, addend: 0x0, symName: __ZNSt3__119__allocate_at_leastB8ne180100INS_9allocatorIdEEEENS_19__allocation_resultINS_16allocator_traitsIT_E7pointerEEERS5_m, symObjAddr: 0xE8D4, symBinAddr: 0x10001116C, symSize: 0x40 }
  - { offset: 0x345A8, size: 0x8, addend: 0x0, symName: __ZNSt3__13minB8ne180100ImEERKT_S3_S3_, symObjAddr: 0xE928, symBinAddr: 0x1000111C0, symSize: 0x2C }
  - { offset: 0x345EB, size: 0x8, addend: 0x0, symName: __ZNSt3__13minB8ne180100ImNS_6__lessIvvEEEERKT_S5_S5_T0_, symObjAddr: 0xE9A0, symBinAddr: 0x100011238, symSize: 0x54 }
  - { offset: 0x34646, size: 0x8, addend: 0x0, symName: __ZNSt3__120__throw_length_errorB8ne180100EPKc, symObjAddr: 0xEA40, symBinAddr: 0x1000112D8, symSize: 0x64 }
  - { offset: 0x3466E, size: 0x8, addend: 0x0, symName: __ZNSt3__112__to_addressB8ne180100IdEEPT_S2_, symObjAddr: 0xEBE0, symBinAddr: 0x100011478, symSize: 0x14 }
  - { offset: 0x346A3, size: 0x8, addend: 0x0, symName: __ZNSt3__112__to_addressB8ne180100INS_10shared_ptrI4NodeEEEEPT_S5_, symObjAddr: 0xF260, symBinAddr: 0x100011AF8, symSize: 0x14 }
  - { offset: 0x346D8, size: 0x8, addend: 0x0, symName: __ZNSt3__13maxB8ne180100ImEERKT_S3_S3_, symObjAddr: 0xF654, symBinAddr: 0x100011EEC, symSize: 0x2C }
  - { offset: 0x3471B, size: 0x8, addend: 0x0, symName: __ZNSt3__13maxB8ne180100ImNS_6__lessIvvEEEERKT_S5_S5_T0_, symObjAddr: 0xF778, symBinAddr: 0x100012010, symSize: 0x54 }
  - { offset: 0x34775, size: 0x8, addend: 0x0, symName: __ZNSt3__119__allocate_at_leastB8ne180100INS_9allocatorINS_10shared_ptrI4NodeEEEEEENS_19__allocation_resultINS_16allocator_traitsIT_E7pointerEEERS8_m, symObjAddr: 0xF8D4, symBinAddr: 0x10001216C, symSize: 0x40 }
  - { offset: 0x347B8, size: 0x8, addend: 0x0, symName: __ZNSt3__142__uninitialized_allocator_move_if_noexceptB8ne180100INS_9allocatorINS_10shared_ptrI4NodeEEEENS_16reverse_iteratorIPS4_EES8_S8_EET2_RT_T0_T1_S9_, symObjAddr: 0xFAB0, symBinAddr: 0x100012348, symSize: 0x12C }
  - { offset: 0x34858, size: 0x8, addend: 0x0, symName: __ZNSt3__14swapB8ne180100IPNS_10shared_ptrI4NodeEEEENS_9enable_ifIXaasr21is_move_constructibleIT_EE5valuesr18is_move_assignableIS6_EE5valueEvE4typeERS6_S9_, symObjAddr: 0xFC28, symBinAddr: 0x1000124C0, symSize: 0x3C }
  - { offset: 0x348A9, size: 0x8, addend: 0x0, symName: __ZNSt3__122__make_exception_guardB8ne180100INS_29_AllocatorDestroyRangeReverseINS_9allocatorINS_10shared_ptrI4NodeEEEENS_16reverse_iteratorIPS5_EEEEEENS_28__exception_guard_exceptionsIT_EESC_, symObjAddr: 0xFC78, symBinAddr: 0x100012510, symSize: 0x4C }
  - { offset: 0x348DF, size: 0x8, addend: 0x0, symName: __ZNSt3__1neB8ne180100IPNS_10shared_ptrI4NodeEES4_EEbRKNS_16reverse_iteratorIT_EERKNS5_IT0_EE, symObjAddr: 0xFD08, symBinAddr: 0x1000125A0, symSize: 0x44 }
  - { offset: 0x3492B, size: 0x8, addend: 0x0, symName: __ZNSt3__112__to_addressB8ne180100INS_16reverse_iteratorIPNS_10shared_ptrI4NodeEEEEvEEu7__decayIDTclsr19__to_address_helperIT_EE6__callclsr3stdE7declvalIRKS7_EEEEES9_, symObjAddr: 0xFD80, symBinAddr: 0x100012618, symSize: 0x24 }
  - { offset: 0x3498B, size: 0x8, addend: 0x0, symName: __ZNSt3__119__allocator_destroyB8ne180100INS_9allocatorINS_10shared_ptrI4NodeEEEENS_16reverse_iteratorINS6_IPS4_EEEES9_EEvRT_T0_T1_, symObjAddr: 0x1005C, symBinAddr: 0x1000128F4, symSize: 0x70 }
  - { offset: 0x349F0, size: 0x8, addend: 0x0, symName: __ZNSt3__1neB8ne180100INS_16reverse_iteratorIPNS_10shared_ptrI4NodeEEEES6_EEbRKNS1_IT_EERKNS1_IT0_EE, symObjAddr: 0x10108, symBinAddr: 0x1000129A0, symSize: 0x5C }
  - { offset: 0x34A3C, size: 0x8, addend: 0x0, symName: __ZNSt3__112__to_addressB8ne180100INS_16reverse_iteratorINS1_IPNS_10shared_ptrI4NodeEEEEEEvEEu7__decayIDTclsr19__to_address_helperIT_EE6__callclsr3stdE7declvalIRKS8_EEEEESA_, symObjAddr: 0x10190, symBinAddr: 0x100012A28, symSize: 0x24 }
  - { offset: 0x34A9B, size: 0x8, addend: 0x0, symName: __ZNSt3__111__push_heapB8ne180100INS_17_ClassicAlgPolicyENS_11__wrap_iterIPNS_10shared_ptrI4NodeEEEENS_8functionIFbRKS5_SA_EEEEEvT0_SD_RT1_, symObjAddr: 0x10588, symBinAddr: 0x100012E20, symSize: 0x5C }
  - { offset: 0x34B08, size: 0x8, addend: 0x0, symName: __ZNSt3__19__sift_upB8ne180100INS_17_ClassicAlgPolicyERNS_8functionIFbRKNS_10shared_ptrI4NodeEES7_EEENS_11__wrap_iterIPS5_EEEEvT1_SE_OT0_NS_15iterator_traitsISE_E15difference_typeE, symObjAddr: 0x105E4, symBinAddr: 0x100012E7C, symSize: 0x190 }
  - { offset: 0x34BA8, size: 0x8, addend: 0x0, symName: __ZNSt3__110__pop_heapB8ne180100INS_17_ClassicAlgPolicyENS_8functionIFbRKNS_10shared_ptrI4NodeEES7_EEENS_11__wrap_iterIPS5_EEEEvT1_SD_RT0_NS_15iterator_traitsISD_E15difference_typeE, symObjAddr: 0x10794, symBinAddr: 0x10001302C, symSize: 0x160 }
  - { offset: 0x34C50, size: 0x8, addend: 0x0, symName: __ZNSt3__1eqB8ne180100IPNS_10shared_ptrI4NodeEEEEbRKNS_11__wrap_iterIT_EES9_, symObjAddr: 0x10A34, symBinAddr: 0x1000132CC, symSize: 0x44 }
  - { offset: 0x34C94, size: 0x8, addend: 0x0, symName: __ZNSt3__1eqB8ne180100ERKNS_21__hash_const_iteratorIPNS_11__hash_nodeImPvEEEES7_, symObjAddr: 0x10B60, symBinAddr: 0x1000133F8, symSize: 0x2C }
  - { offset: 0x34CD1, size: 0x8, addend: 0x0, symName: __ZNSt3__116__constrain_hashB8ne180100Emm, symObjAddr: 0x10DBC, symBinAddr: 0x100013654, symSize: 0x90 }
  - { offset: 0x34D3E, size: 0x8, addend: 0x0, symName: __ZNSt3__116__is_hash_power2B8ne180100Em, symObjAddr: 0x1180C, symBinAddr: 0x1000140A4, symSize: 0x4C }
  - { offset: 0x34DAF, size: 0x8, addend: 0x0, symName: __ZNSt3__114__construct_atB8ne180100INS_11__hash_nodeImPvEEJDnRmEPS3_EEPT_S7_DpOT0_, symObjAddr: 0x11A84, symBinAddr: 0x10001431C, symSize: 0x48 }
  - { offset: 0x34E34, size: 0x8, addend: 0x0, symName: __ZNSt3__116__next_hash_pow2B8ne180100Em, symObjAddr: 0x1230C, symBinAddr: 0x100014BA4, symSize: 0x68 }
  - { offset: 0x34E60, size: 0x8, addend: 0x0, symName: __ZNSt3__112__libcpp_clzB8ne180100Em, symObjAddr: 0x126A4, symBinAddr: 0x100014F3C, symSize: 0x1C }
  - { offset: 0x34E8C, size: 0x8, addend: 0x0, symName: __ZNSt3__112__destroy_atB8ne180100INS_11__hash_nodeImPvEETnNS_9enable_ifIXntsr8is_arrayIT_EE5valueEiE4typeELi0EEEvPS5_, symObjAddr: 0x12868, symBinAddr: 0x100015100, symSize: 0x24 }
  - { offset: 0x34EC4, size: 0x8, addend: 0x0, symName: __ZNSt3__112__destroy_atB8ne180100ImTnNS_9enable_ifIXntsr8is_arrayIT_EE5valueEiE4typeELi0EEEvPS2_, symObjAddr: 0x128C0, symBinAddr: 0x100015158, symSize: 0x10 }
  - { offset: 0x34EFC, size: 0x8, addend: 0x0, symName: __ZNSt3__120__throw_out_of_rangeB8ne180100EPKc, symObjAddr: 0x12A90, symBinAddr: 0x100015328, symSize: 0x64 }
  - { offset: 0x34F24, size: 0x8, addend: 0x0, symName: __ZNSt3__1eqB8ne180100IPK4EdgeEEbRKNS_11__wrap_iterIT_EES8_, symObjAddr: 0x12BF0, symBinAddr: 0x100015488, symSize: 0x44 }
  - { offset: 0x34F67, size: 0x8, addend: 0x0, symName: __ZNSt3__112__to_addressB8ne180100IK4EdgeEEPT_S4_, symObjAddr: 0x12C4C, symBinAddr: 0x1000154E4, symSize: 0x14 }
  - { offset: 0x34F9C, size: 0x8, addend: 0x0, symName: __ZNSt3__115allocate_sharedB8ne180100I4NodeNS_9allocatorIS1_EEJRdS4_RmRNS_6vectorIdNS2_IdEEEES4_RNS_10shared_ptrIS1_EEEvEENSA_IT_EERKT0_DpOT1_, symObjAddr: 0x12C60, symBinAddr: 0x1000154F8, symSize: 0xC0 }
  - { offset: 0x35079, size: 0x8, addend: 0x0, symName: __ZNSt3__111make_sharedB8ne180100I4NodeJRdS2_RmRNS_6vectorIdNS_9allocatorIdEEEES2_S8_RKiRNS_10shared_ptrIS1_EEEvEENSB_IT_EEDpOT0_, symObjAddr: 0x137D0, symBinAddr: 0x100016068, symSize: 0x80 }
  - { offset: 0x35148, size: 0x8, addend: 0x0, symName: __ZNSt3__115allocate_sharedB8ne180100I4NodeNS_9allocatorIS1_EEJRdS4_RmRNS_6vectorIdNS2_IdEEEES4_S9_RKiRNS_10shared_ptrIS1_EEEvEENSC_IT_EERKT0_DpOT1_, symObjAddr: 0x13850, symBinAddr: 0x1000160E8, symSize: 0xE0 }
  - { offset: 0x35250, size: 0x8, addend: 0x0, symName: __ZNSt3__1eqB8ne180100IPKNS_6vectorImNS_9allocatorImEEEEEEbRKNS_11__wrap_iterIT_EESB_, symObjAddr: 0x13F30, symBinAddr: 0x1000167C8, symSize: 0x44 }
  - { offset: 0x35293, size: 0x8, addend: 0x0, symName: __ZNSt3__122__make_exception_guardB8ne180100INS_6vectorINS1_INS1_IdNS_9allocatorIdEEEENS2_IS4_EEEENS2_IS6_EEE16__destroy_vectorEEENS_28__exception_guard_exceptionsIT_EESB_, symObjAddr: 0x1435C, symBinAddr: 0x100016BF4, symSize: 0x40 }
  - { offset: 0x352C8, size: 0x8, addend: 0x0, symName: __ZNSt3__119__allocate_at_leastB8ne180100INS_9allocatorINS_6vectorINS2_IdNS1_IdEEEENS1_IS4_EEEEEEEENS_19__allocation_resultINS_16allocator_traitsIT_E7pointerEEERSA_m, symObjAddr: 0x14768, symBinAddr: 0x100017000, symSize: 0x40 }
  - { offset: 0x3530B, size: 0x8, addend: 0x0, symName: __ZNSt3__130__uninitialized_allocator_copyB8ne180100INS_9allocatorINS_6vectorINS2_IdNS1_IdEEEENS1_IS4_EEEEEEPKS6_S9_PS6_EET2_RT_T0_T1_SB_, symObjAddr: 0x149AC, symBinAddr: 0x100017244, symSize: 0x80 }
  - { offset: 0x353A8, size: 0x8, addend: 0x0, symName: __ZNSt3__114__unwrap_rangeB8ne180100IPKNS_6vectorINS1_IdNS_9allocatorIdEEEENS2_IS4_EEEES8_EENS_4pairIT0_SA_EET_SC_, symObjAddr: 0x14AA4, symBinAddr: 0x10001733C, symSize: 0x60 }
  - { offset: 0x353F4, size: 0x8, addend: 0x0, symName: __ZNSt3__135__uninitialized_allocator_copy_implB8ne180100INS_9allocatorINS_6vectorINS2_IdNS1_IdEEEENS1_IS4_EEEEEEPKS6_S9_PS6_EET2_RT_T0_T1_SB_, symObjAddr: 0x14B04, symBinAddr: 0x10001739C, symSize: 0xF0 }
  - { offset: 0x35492, size: 0x8, addend: 0x0, symName: __ZNSt3__113__unwrap_iterB8ne180100IPNS_6vectorINS1_IdNS_9allocatorIdEEEENS2_IS4_EEEENS_18__unwrap_iter_implIS7_Lb1EEETnNS_9enable_ifIXsr21is_copy_constructibleIT_EE5valueEiE4typeELi0EEEDTclsrT0_8__unwrapclsr3stdE7declvalISB_EEEESB_, symObjAddr: 0x14BF4, symBinAddr: 0x10001748C, symSize: 0x24 }
  - { offset: 0x354D6, size: 0x8, addend: 0x0, symName: __ZNSt3__113__rewrap_iterB8ne180100IPNS_6vectorINS1_IdNS_9allocatorIdEEEENS2_IS4_EEEES7_NS_18__unwrap_iter_implIS7_Lb1EEEEET_SA_T0_, symObjAddr: 0x14C18, symBinAddr: 0x1000174B0, symSize: 0x3C }
  - { offset: 0x3552B, size: 0x8, addend: 0x0, symName: __ZNSt3__19make_pairB8ne180100IPKNS_6vectorINS1_IdNS_9allocatorIdEEEENS2_IS4_EEEES8_EENS_4pairINS_18__unwrap_ref_decayIT_E4typeENSA_IT0_E4typeEEEOSB_OSE_, symObjAddr: 0x14C54, symBinAddr: 0x1000174EC, symSize: 0x38 }
  - { offset: 0x3557A, size: 0x8, addend: 0x0, symName: __ZNSt3__113__unwrap_iterB8ne180100IPKNS_6vectorINS1_IdNS_9allocatorIdEEEENS2_IS4_EEEENS_18__unwrap_iter_implIS8_Lb1EEETnNS_9enable_ifIXsr21is_copy_constructibleIT_EE5valueEiE4typeELi0EEEDTclsrT0_8__unwrapclsr3stdE7declvalISC_EEEESC_, symObjAddr: 0x14C8C, symBinAddr: 0x100017524, symSize: 0x24 }
  - { offset: 0x356E5, size: 0x8, addend: 0x0, symName: __ZNSt3__112__to_addressB8ne180100IKNS_6vectorINS1_IdNS_9allocatorIdEEEENS2_IS4_EEEEEEPT_S9_, symObjAddr: 0x14D44, symBinAddr: 0x1000175DC, symSize: 0x14 }
  - { offset: 0x3571A, size: 0x8, addend: 0x0, symName: __ZNSt3__122__make_exception_guardB8ne180100INS_29_AllocatorDestroyRangeReverseINS_9allocatorINS_6vectorINS3_IdNS2_IdEEEENS2_IS5_EEEEEEPS7_EEEENS_28__exception_guard_exceptionsIT_EESC_, symObjAddr: 0x14D58, symBinAddr: 0x1000175F0, symSize: 0x4C }
  - { offset: 0x35750, size: 0x8, addend: 0x0, symName: __ZNSt3__112__to_addressB8ne180100INS_6vectorINS1_IdNS_9allocatorIdEEEENS2_IS4_EEEEEEPT_S8_, symObjAddr: 0x14E1C, symBinAddr: 0x1000176B4, symSize: 0x14 }
  - { offset: 0x35786, size: 0x8, addend: 0x0, symName: __ZNSt3__119__allocator_destroyB8ne180100INS_9allocatorINS_6vectorINS2_IdNS1_IdEEEENS1_IS4_EEEEEENS_16reverse_iteratorIPS6_EESA_EEvRT_T0_T1_, symObjAddr: 0x14FFC, symBinAddr: 0x100017894, symSize: 0x70 }
  - { offset: 0x357E9, size: 0x8, addend: 0x0, symName: __ZNSt3__1neB8ne180100IPNS_6vectorINS1_IdNS_9allocatorIdEEEENS2_IS4_EEEES7_EEbRKNS_16reverse_iteratorIT_EERKNS8_IT0_EE, symObjAddr: 0x150A0, symBinAddr: 0x100017938, symSize: 0x44 }
  - { offset: 0x35835, size: 0x8, addend: 0x0, symName: __ZNSt3__112__to_addressB8ne180100INS_16reverse_iteratorIPNS_6vectorINS2_IdNS_9allocatorIdEEEENS3_IS5_EEEEEEvEEu7__decayIDTclsr19__to_address_helperIT_EE6__callclsr3stdE7declvalIRKSA_EEEEESC_, symObjAddr: 0x15110, symBinAddr: 0x1000179A8, symSize: 0x24 }
  - { offset: 0x3591A, size: 0x8, addend: 0x0, symName: __ZNSt3__112__to_addressB8ne180100IKcEEPT_S3_, symObjAddr: 0x15D54, symBinAddr: 0x1000185EC, symSize: 0x14 }
  - { offset: 0x35982, size: 0x8, addend: 0x0, symName: __ZNSt3__118__constexpr_strlenB8ne180100EPKc, symObjAddr: 0x15EAC, symBinAddr: 0x100018744, symSize: 0x24 }
  - { offset: 0x359AE, size: 0x8, addend: 0x0, symName: __ZNSt3__130__uninitialized_allocator_copyB8ne180100INS_9allocatorIdEEPdS3_S3_EET2_RT_T0_T1_S4_, symObjAddr: 0x160B4, symBinAddr: 0x10001894C, symSize: 0x80 }
  - { offset: 0x35A4B, size: 0x8, addend: 0x0, symName: __ZNSt3__114__unwrap_rangeB8ne180100IPdS1_EENS_4pairIT0_S3_EET_S5_, symObjAddr: 0x16134, symBinAddr: 0x1000189CC, symSize: 0x60 }
  - { offset: 0x35A97, size: 0x8, addend: 0x0, symName: __ZNSt3__135__uninitialized_allocator_copy_implB8ne180100INS_9allocatorIdEEdddTnPNS_9enable_ifIXaaaaaasr31is_trivially_copy_constructibleIT1_EE5valuesr28is_trivially_copy_assignableIS4_EE5valuesr7is_sameIu14__remove_constIT0_Eu14__remove_constIT2_EEE5valuesr38__allocator_has_trivial_copy_constructIT_S4_EE5valueEvE4typeELPv0EEEPS7_RS9_PS5_SG_SE_, symObjAddr: 0x16194, symBinAddr: 0x100018A2C, symSize: 0x38 }
  - { offset: 0x35B19, size: 0x8, addend: 0x0, symName: __ZNSt3__113__unwrap_iterB8ne180100IPdNS_18__unwrap_iter_implIS1_Lb1EEETnNS_9enable_ifIXsr21is_copy_constructibleIT_EE5valueEiE4typeELi0EEEDTclsrT0_8__unwrapclsr3stdE7declvalIS5_EEEES5_, symObjAddr: 0x161CC, symBinAddr: 0x100018A64, symSize: 0x24 }
  - { offset: 0x35B5D, size: 0x8, addend: 0x0, symName: __ZNSt3__113__rewrap_iterB8ne180100IPdS1_NS_18__unwrap_iter_implIS1_Lb1EEEEET_S4_T0_, symObjAddr: 0x161F0, symBinAddr: 0x100018A88, symSize: 0x3C }
  - { offset: 0x35BB2, size: 0x8, addend: 0x0, symName: __ZNSt3__19make_pairB8ne180100IPdS1_EENS_4pairINS_18__unwrap_ref_decayIT_E4typeENS3_IT0_E4typeEEEOS4_OS7_, symObjAddr: 0x1622C, symBinAddr: 0x100018AC4, symSize: 0x38 }
  - { offset: 0x35D04, size: 0x8, addend: 0x0, symName: __ZNSt3__14copyB8ne180100IPdS1_EET0_T_S3_S2_, symObjAddr: 0x162D4, symBinAddr: 0x100018B6C, symSize: 0x40 }
  - { offset: 0x35D5E, size: 0x8, addend: 0x0, symName: __ZNSt3__16__copyB8ne180100INS_17_ClassicAlgPolicyEPdS2_S2_EENS_4pairIT0_T2_EES4_T1_S5_, symObjAddr: 0x16314, symBinAddr: 0x100018BAC, symSize: 0x44 }
  - { offset: 0x35DCA, size: 0x8, addend: 0x0, symName: __ZNSt3__123__dispatch_copy_or_moveB8ne180100INS_17_ClassicAlgPolicyENS_11__copy_loopIS1_EENS_14__copy_trivialEPdS5_S5_EENS_4pairIT2_T4_EES7_T3_S8_, symObjAddr: 0x16358, symBinAddr: 0x100018BF0, symSize: 0x44 }
  - { offset: 0x35E48, size: 0x8, addend: 0x0, symName: __ZNSt3__121__unwrap_and_dispatchB8ne180100INS_10__overloadINS_11__copy_loopINS_17_ClassicAlgPolicyEEENS_14__copy_trivialEEEPdS7_S7_TnNS_9enable_ifIXsr12__can_rewrapIT0_T1_T2_EE5valueEiE4typeELi0EEENS_4pairIS9_SB_EES9_SA_SB_, symObjAddr: 0x1639C, symBinAddr: 0x100018C34, symSize: 0xB4 }
  - { offset: 0x36084, size: 0x8, addend: 0x0, symName: __ZNSt3__114__rewrap_rangeB8ne180100IPdS1_EET_S2_T0_, symObjAddr: 0x16498, symBinAddr: 0x100018D30, symSize: 0x2C }
  - { offset: 0x360D0, size: 0x8, addend: 0x0, symName: __ZNSt3__119__copy_trivial_implB8ne180100IddEENS_4pairIPT_PT0_EES3_S3_S5_, symObjAddr: 0x164C4, symBinAddr: 0x100018D5C, symSize: 0x80 }
  - { offset: 0x36138, size: 0x8, addend: 0x0, symName: __ZNSt3__119__constexpr_memmoveB8ne180100IddTnNS_9enable_ifIXsr23__is_always_bitcastableIT0_T_EE5valueEiE4typeELi0EEEPS3_S6_PS2_NS_15__element_countE, symObjAddr: 0x16544, symBinAddr: 0x100018DDC, symSize: 0x60 }
  - { offset: 0x361A6, size: 0x8, addend: 0x0, symName: __ZNSt3__19make_pairB8ne180100IRPdS1_EENS_4pairINS_18__unwrap_ref_decayIT_E4typeENS4_IT0_E4typeEEEOS5_OS8_, symObjAddr: 0x165A4, symBinAddr: 0x100018E3C, symSize: 0x38 }
  - { offset: 0x36248, size: 0x8, addend: 0x0, symName: __ZNSt3__116__pad_and_outputB8ne180100IcNS_11char_traitsIcEEEENS_19ostreambuf_iteratorIT_T0_EES6_PKS4_S8_S8_RNS_8ios_baseES4_, symObjAddr: 0x16904, symBinAddr: 0x10001919C, symSize: 0x214 }
  - { offset: 0x36317, size: 0x8, addend: 0x0, symName: __ZNSt3__112__to_addressB8ne180100IcEEPT_S2_, symObjAddr: 0x16D44, symBinAddr: 0x1000195DC, symSize: 0x14 }
  - { offset: 0x3634C, size: 0x8, addend: 0x0, symName: __ZNSt3__19use_facetB8ne180100INS_5ctypeIcEEEERKT_RKNS_6localeE, symObjAddr: 0x16EEC, symBinAddr: 0x100019784, symSize: 0x2C }
  - { offset: 0x3672A, size: 0x8, addend: 0x0, symName: __ZNSt3__122__make_exception_guardB8ne180100INS_6vectorINS1_I4EdgeNS_9allocatorIS2_EEEENS3_IS5_EEE16__destroy_vectorEEENS_28__exception_guard_exceptionsIT_EESA_, symObjAddr: 0x17558, symBinAddr: 0x100019DF0, symSize: 0x40 }
  - { offset: 0x3675F, size: 0x8, addend: 0x0, symName: __ZNSt3__119__allocate_at_leastB8ne180100INS_9allocatorINS_6vectorI4EdgeNS1_IS3_EEEEEEEENS_19__allocation_resultINS_16allocator_traitsIT_E7pointerEEERS9_m, symObjAddr: 0x17884, symBinAddr: 0x10001A11C, symSize: 0x40 }
  - { offset: 0x367A2, size: 0x8, addend: 0x0, symName: __ZNSt3__122__make_exception_guardB8ne180100INS_6vectorI4EdgeNS_9allocatorIS2_EEE16__destroy_vectorEEENS_28__exception_guard_exceptionsIT_EES8_, symObjAddr: 0x17E28, symBinAddr: 0x10001A6C0, symSize: 0x40 }
  - { offset: 0x367D7, size: 0x8, addend: 0x0, symName: __ZNSt3__119__allocate_at_leastB8ne180100INS_9allocatorI4EdgeEEEENS_19__allocation_resultINS_16allocator_traitsIT_E7pointerEEERS6_m, symObjAddr: 0x180C0, symBinAddr: 0x10001A958, symSize: 0x40 }
  - { offset: 0x3681A, size: 0x8, addend: 0x0, symName: __ZNSt3__130__uninitialized_allocator_copyB8ne180100INS_9allocatorI4EdgeEEPS2_S4_S4_EET2_RT_T0_T1_S5_, symObjAddr: 0x18244, symBinAddr: 0x10001AADC, symSize: 0x80 }
  - { offset: 0x368B7, size: 0x8, addend: 0x0, symName: __ZNSt3__114__unwrap_rangeB8ne180100IP4EdgeS2_EENS_4pairIT0_S4_EET_S6_, symObjAddr: 0x1833C, symBinAddr: 0x10001ABD4, symSize: 0x60 }
  - { offset: 0x36903, size: 0x8, addend: 0x0, symName: __ZNSt3__135__uninitialized_allocator_copy_implB8ne180100INS_9allocatorI4EdgeEEPS2_S4_S4_EET2_RT_T0_T1_S5_, symObjAddr: 0x1839C, symBinAddr: 0x10001AC34, symSize: 0xF0 }
  - { offset: 0x369A1, size: 0x8, addend: 0x0, symName: __ZNSt3__113__unwrap_iterB8ne180100IP4EdgeNS_18__unwrap_iter_implIS2_Lb1EEETnNS_9enable_ifIXsr21is_copy_constructibleIT_EE5valueEiE4typeELi0EEEDTclsrT0_8__unwrapclsr3stdE7declvalIS6_EEEES6_, symObjAddr: 0x1848C, symBinAddr: 0x10001AD24, symSize: 0x24 }
  - { offset: 0x369E5, size: 0x8, addend: 0x0, symName: __ZNSt3__113__rewrap_iterB8ne180100IP4EdgeS2_NS_18__unwrap_iter_implIS2_Lb1EEEEET_S5_T0_, symObjAddr: 0x184B0, symBinAddr: 0x10001AD48, symSize: 0x3C }
  - { offset: 0x36A3A, size: 0x8, addend: 0x0, symName: __ZNSt3__19make_pairB8ne180100IP4EdgeS2_EENS_4pairINS_18__unwrap_ref_decayIT_E4typeENS4_IT0_E4typeEEEOS5_OS8_, symObjAddr: 0x184EC, symBinAddr: 0x10001AD84, symSize: 0x38 }
  - { offset: 0x36B5D, size: 0x8, addend: 0x0, symName: __ZNSt3__122__make_exception_guardB8ne180100INS_29_AllocatorDestroyRangeReverseINS_9allocatorI4EdgeEEPS3_EEEENS_28__exception_guard_exceptionsIT_EES8_, symObjAddr: 0x18594, symBinAddr: 0x10001AE2C, symSize: 0x4C }
  - { offset: 0x36B94, size: 0x8, addend: 0x0, symName: __ZNSt3__119__allocator_destroyB8ne180100INS_9allocatorI4EdgeEENS_16reverse_iteratorIPS2_EES6_EEvRT_T0_T1_, symObjAddr: 0x18824, symBinAddr: 0x10001B0BC, symSize: 0x70 }
  - { offset: 0x36BF7, size: 0x8, addend: 0x0, symName: __ZNSt3__1neB8ne180100IP4EdgeS2_EEbRKNS_16reverse_iteratorIT_EERKNS3_IT0_EE, symObjAddr: 0x188C8, symBinAddr: 0x10001B160, symSize: 0x44 }
  - { offset: 0x36C43, size: 0x8, addend: 0x0, symName: __ZNSt3__112__to_addressB8ne180100INS_16reverse_iteratorIP4EdgeEEvEEu7__decayIDTclsr19__to_address_helperIT_EE6__callclsr3stdE7declvalIRKS5_EEEEES7_, symObjAddr: 0x1890C, symBinAddr: 0x10001B1A4, symSize: 0x24 }
  - { offset: 0x36CF5, size: 0x8, addend: 0x0, symName: __ZNSt3__142__uninitialized_allocator_move_if_noexceptB8ne180100INS_9allocatorI4EdgeEENS_16reverse_iteratorIPS2_EES6_S6_EET2_RT_T0_T1_S7_, symObjAddr: 0x19518, symBinAddr: 0x10001BDB0, symSize: 0x11C }
  - { offset: 0x36D95, size: 0x8, addend: 0x0, symName: __ZNSt3__14swapB8ne180100IP4EdgeEENS_9enable_ifIXaasr21is_move_constructibleIT_EE5valuesr18is_move_assignableIS4_EE5valueEvE4typeERS4_S7_, symObjAddr: 0x19634, symBinAddr: 0x10001BECC, symSize: 0x3C }
  - { offset: 0x36DE6, size: 0x8, addend: 0x0, symName: __ZNSt3__122__make_exception_guardB8ne180100INS_29_AllocatorDestroyRangeReverseINS_9allocatorI4EdgeEENS_16reverse_iteratorIPS3_EEEEEENS_28__exception_guard_exceptionsIT_EESA_, symObjAddr: 0x19670, symBinAddr: 0x10001BF08, symSize: 0x4C }
  - { offset: 0x36E1D, size: 0x8, addend: 0x0, symName: __ZNSt3__119__allocator_destroyB8ne180100INS_9allocatorI4EdgeEENS_16reverse_iteratorINS4_IPS2_EEEES7_EEvRT_T0_T1_, symObjAddr: 0x199C4, symBinAddr: 0x10001C25C, symSize: 0x70 }
  - { offset: 0x36E82, size: 0x8, addend: 0x0, symName: __ZNSt3__1neB8ne180100INS_16reverse_iteratorIP4EdgeEES4_EEbRKNS1_IT_EERKNS1_IT0_EE, symObjAddr: 0x19A70, symBinAddr: 0x10001C308, symSize: 0x5C }
  - { offset: 0x36ECE, size: 0x8, addend: 0x0, symName: __ZNSt3__112__to_addressB8ne180100INS_16reverse_iteratorINS1_IP4EdgeEEEEvEEu7__decayIDTclsr19__to_address_helperIT_EE6__callclsr3stdE7declvalIRKS6_EEEEES8_, symObjAddr: 0x19ACC, symBinAddr: 0x10001C364, symSize: 0x24 }
  - { offset: 0x36F2D, size: 0x8, addend: 0x0, symName: __ZNSt3__130__uninitialized_allocator_copyB8ne180100INS_9allocatorIdEEPKdS4_PdEET2_RT_T0_T1_S6_, symObjAddr: 0x19FF8, symBinAddr: 0x10001C890, symSize: 0x80 }
  - { offset: 0x36FCA, size: 0x8, addend: 0x0, symName: __ZNSt3__114__unwrap_rangeB8ne180100IPKdS2_EENS_4pairIT0_S4_EET_S6_, symObjAddr: 0x1A078, symBinAddr: 0x10001C910, symSize: 0x60 }
  - { offset: 0x37016, size: 0x8, addend: 0x0, symName: __ZNSt3__135__uninitialized_allocator_copy_implB8ne180100INS_9allocatorIdEEKdddTnPNS_9enable_ifIXaaaaaasr31is_trivially_copy_constructibleIT1_EE5valuesr28is_trivially_copy_assignableIS5_EE5valuesr7is_sameIu14__remove_constIT0_Eu14__remove_constIT2_EEE5valuesr38__allocator_has_trivial_copy_constructIT_S5_EE5valueEvE4typeELPv0EEEPS8_RSA_PS6_SH_SF_, symObjAddr: 0x1A0D8, symBinAddr: 0x10001C970, symSize: 0x38 }
  - { offset: 0x37098, size: 0x8, addend: 0x0, symName: __ZNSt3__19make_pairB8ne180100IPKdS2_EENS_4pairINS_18__unwrap_ref_decayIT_E4typeENS4_IT0_E4typeEEEOS5_OS8_, symObjAddr: 0x1A110, symBinAddr: 0x10001C9A8, symSize: 0x38 }
  - { offset: 0x370E7, size: 0x8, addend: 0x0, symName: __ZNSt3__113__unwrap_iterB8ne180100IPKdNS_18__unwrap_iter_implIS2_Lb1EEETnNS_9enable_ifIXsr21is_copy_constructibleIT_EE5valueEiE4typeELi0EEEDTclsrT0_8__unwrapclsr3stdE7declvalIS6_EEEES6_, symObjAddr: 0x1A148, symBinAddr: 0x10001C9E0, symSize: 0x24 }
  - { offset: 0x37252, size: 0x8, addend: 0x0, symName: __ZNSt3__112__to_addressB8ne180100IKdEEPT_S3_, symObjAddr: 0x1A200, symBinAddr: 0x10001CA98, symSize: 0x14 }
  - { offset: 0x37287, size: 0x8, addend: 0x0, symName: __ZNSt3__14copyB8ne180100IPKdPdEET0_T_S5_S4_, symObjAddr: 0x1A214, symBinAddr: 0x10001CAAC, symSize: 0x40 }
  - { offset: 0x372E1, size: 0x8, addend: 0x0, symName: __ZNSt3__16__copyB8ne180100INS_17_ClassicAlgPolicyEPKdS3_PdEENS_4pairIT0_T2_EES6_T1_S7_, symObjAddr: 0x1A254, symBinAddr: 0x10001CAEC, symSize: 0x44 }
  - { offset: 0x3734D, size: 0x8, addend: 0x0, symName: __ZNSt3__123__dispatch_copy_or_moveB8ne180100INS_17_ClassicAlgPolicyENS_11__copy_loopIS1_EENS_14__copy_trivialEPKdS6_PdEENS_4pairIT2_T4_EES9_T3_SA_, symObjAddr: 0x1A298, symBinAddr: 0x10001CB30, symSize: 0x44 }
  - { offset: 0x373CB, size: 0x8, addend: 0x0, symName: __ZNSt3__121__unwrap_and_dispatchB8ne180100INS_10__overloadINS_11__copy_loopINS_17_ClassicAlgPolicyEEENS_14__copy_trivialEEEPKdS8_PdTnNS_9enable_ifIXsr12__can_rewrapIT0_T1_T2_EE5valueEiE4typeELi0EEENS_4pairISB_SD_EESB_SC_SD_, symObjAddr: 0x1A2DC, symBinAddr: 0x10001CB74, symSize: 0xB4 }
  - { offset: 0x3755C, size: 0x8, addend: 0x0, symName: __ZNSt3__19make_pairB8ne180100IPKdPdEENS_4pairINS_18__unwrap_ref_decayIT_E4typeENS5_IT0_E4typeEEEOS6_OS9_, symObjAddr: 0x1A3D8, symBinAddr: 0x10001CC70, symSize: 0x38 }
  - { offset: 0x375AB, size: 0x8, addend: 0x0, symName: __ZNSt3__114__rewrap_rangeB8ne180100IPKdS2_EET_S3_T0_, symObjAddr: 0x1A410, symBinAddr: 0x10001CCA8, symSize: 0x2C }
  - { offset: 0x375F7, size: 0x8, addend: 0x0, symName: __ZNSt3__119__copy_trivial_implB8ne180100IKddEENS_4pairIPT_PT0_EES4_S4_S6_, symObjAddr: 0x1A43C, symBinAddr: 0x10001CCD4, symSize: 0x80 }
  - { offset: 0x3765F, size: 0x8, addend: 0x0, symName: __ZNSt3__119__constexpr_memmoveB8ne180100IdKdTnNS_9enable_ifIXsr23__is_always_bitcastableIT0_T_EE5valueEiE4typeELi0EEEPS4_S7_PS3_NS_15__element_countE, symObjAddr: 0x1A4BC, symBinAddr: 0x10001CD54, symSize: 0x60 }
  - { offset: 0x376CD, size: 0x8, addend: 0x0, symName: __ZNSt3__19make_pairB8ne180100IRPKdPdEENS_4pairINS_18__unwrap_ref_decayIT_E4typeENS6_IT0_E4typeEEEOS7_OSA_, symObjAddr: 0x1A51C, symBinAddr: 0x10001CDB4, symSize: 0x38 }
  - { offset: 0x3771C, size: 0x8, addend: 0x0, symName: __ZNSt3__113__rewrap_iterB8ne180100IPKdS2_NS_18__unwrap_iter_implIS2_Lb1EEEEET_S5_T0_, symObjAddr: 0x1A634, symBinAddr: 0x10001CECC, symSize: 0x3C }
  - { offset: 0x37771, size: 0x8, addend: 0x0, symName: __ZNSt3__142__uninitialized_allocator_move_if_noexceptB8ne180100INS_9allocatorIdEENS_16reverse_iteratorIPdEES5_dvEET1_RT_T0_S9_S6_, symObjAddr: 0x1AD30, symBinAddr: 0x10001D5C8, symSize: 0x78 }
  - { offset: 0x377EF, size: 0x8, addend: 0x0, symName: __ZNSt3__14swapB8ne180100IPdEENS_9enable_ifIXaasr21is_move_constructibleIT_EE5valuesr18is_move_assignableIS3_EE5valueEvE4typeERS3_S6_, symObjAddr: 0x1ADF4, symBinAddr: 0x10001D68C, symSize: 0x3C }
  - { offset: 0x37840, size: 0x8, addend: 0x0, symName: __ZNSt3__14moveB8ne180100INS_16reverse_iteratorIPdEES3_EET0_T_S5_S4_, symObjAddr: 0x1AE30, symBinAddr: 0x10001D6C8, symSize: 0x78 }
  - { offset: 0x3789A, size: 0x8, addend: 0x0, symName: __ZNSt3__16__moveB8ne180100INS_17_ClassicAlgPolicyENS_16reverse_iteratorIPdEES4_S4_EENS_4pairIT0_T2_EES6_T1_S7_, symObjAddr: 0x1AEA8, symBinAddr: 0x10001D740, symSize: 0x64 }
  - { offset: 0x37906, size: 0x8, addend: 0x0, symName: __ZNSt3__123__dispatch_copy_or_moveB8ne180100INS_17_ClassicAlgPolicyENS_11__move_loopIS1_EENS_14__move_trivialENS_16reverse_iteratorIPdEES7_S7_EENS_4pairIT2_T4_EES9_T3_SA_, symObjAddr: 0x1AF0C, symBinAddr: 0x10001D7A4, symSize: 0x64 }
  - { offset: 0x37984, size: 0x8, addend: 0x0, symName: __ZNSt3__121__unwrap_and_dispatchB8ne180100INS_10__overloadINS_11__move_loopINS_17_ClassicAlgPolicyEEENS_14__move_trivialEEENS_16reverse_iteratorIPdEES9_S9_TnNS_9enable_ifIXsr12__can_rewrapIT0_T1_T2_EE5valueEiE4typeELi0EEENS_4pairISB_SD_EESB_SC_SD_, symObjAddr: 0x1AF70, symBinAddr: 0x10001D808, symSize: 0x12C }
  - { offset: 0x37A14, size: 0x8, addend: 0x0, symName: __ZNSt3__114__unwrap_rangeB8ne180100INS_16reverse_iteratorIPdEES3_EENS_4pairIT0_S5_EET_S7_, symObjAddr: 0x1B09C, symBinAddr: 0x10001D934, symSize: 0x84 }
  - { offset: 0x37C04, size: 0x8, addend: 0x0, symName: __ZNSt3__113__unwrap_iterB8ne180100INS_16reverse_iteratorIPdEENS_18__unwrap_iter_implIS3_Lb0EEETnNS_9enable_ifIXsr21is_copy_constructibleIT_EE5valueEiE4typeELi0EEEDTclsrT0_8__unwrapclsr3stdE7declvalIS7_EEEES7_, symObjAddr: 0x1B1C0, symBinAddr: 0x10001DA58, symSize: 0x44 }
  - { offset: 0x37C48, size: 0x8, addend: 0x0, symName: __ZNSt3__19make_pairB8ne180100INS_16reverse_iteratorIPdEES3_EENS_4pairINS_18__unwrap_ref_decayIT_E4typeENS5_IT0_E4typeEEEOS6_OS9_, symObjAddr: 0x1B204, symBinAddr: 0x10001DA9C, symSize: 0x38 }
  - { offset: 0x37C97, size: 0x8, addend: 0x0, symName: __ZNSt3__114__rewrap_rangeB8ne180100INS_16reverse_iteratorIPdEES3_EET_S4_T0_, symObjAddr: 0x1B23C, symBinAddr: 0x10001DAD4, symSize: 0x5C }
  - { offset: 0x37CE3, size: 0x8, addend: 0x0, symName: __ZNSt3__113__rewrap_iterB8ne180100INS_16reverse_iteratorIPdEES3_NS_18__unwrap_iter_implIS3_Lb0EEEEET_S6_T0_, symObjAddr: 0x1B298, symBinAddr: 0x10001DB30, symSize: 0x74 }
  - { offset: 0x37D38, size: 0x8, addend: 0x0, symName: __ZNSt3__1neB8ne180100IPdS1_EEbRKNS_16reverse_iteratorIT_EERKNS2_IT0_EE, symObjAddr: 0x1B30C, symBinAddr: 0x10001DBA4, symSize: 0x44 }
  - { offset: 0x37DD7, size: 0x8, addend: 0x0, symName: __ZNSt3__119__str_find_first_ofB8ne180100IcmNS_11char_traitsIcEETnT0_Lm18446744073709551615EEES3_PKT_S3_S6_S3_S3_, symObjAddr: 0x1B9E4, symBinAddr: 0x10001E27C, symSize: 0xE0 }
  - { offset: 0x37E7E, size: 0x8, addend: 0x0, symName: __ZNSt3__118__find_first_of_ceB8ne180100IPKcS2_RDoFbccEEET_S5_S5_T0_S6_OT1_, symObjAddr: 0x1BAC4, symBinAddr: 0x10001E35C, symSize: 0xC8 }
  - { offset: 0x37F1A, size: 0x8, addend: 0x0, symName: __ZNSt3__119__allocate_at_leastB8ne180100INS_9allocatorINS_12basic_stringIcNS_11char_traitsIcEENS1_IcEEEEEEEENS_19__allocation_resultINS_16allocator_traitsIT_E7pointerEEERSA_m, symObjAddr: 0x1C46C, symBinAddr: 0x10001ED04, symSize: 0x40 }
  - { offset: 0x37F5D, size: 0x8, addend: 0x0, symName: __ZNSt3__142__uninitialized_allocator_move_if_noexceptB8ne180100INS_9allocatorINS_12basic_stringIcNS_11char_traitsIcEENS1_IcEEEEEENS_16reverse_iteratorIPS6_EESA_SA_EET2_RT_T0_T1_SB_, symObjAddr: 0x1C64C, symBinAddr: 0x10001EEE4, symSize: 0x12C }
  - { offset: 0x37FFD, size: 0x8, addend: 0x0, symName: __ZNSt3__14swapB8ne180100IPNS_12basic_stringIcNS_11char_traitsIcEENS_9allocatorIcEEEEEENS_9enable_ifIXaasr21is_move_constructibleIT_EE5valuesr18is_move_assignableIS9_EE5valueEvE4typeERS9_SC_, symObjAddr: 0x1C7C4, symBinAddr: 0x10001F05C, symSize: 0x3C }
  - { offset: 0x3804E, size: 0x8, addend: 0x0, symName: __ZNSt3__122__make_exception_guardB8ne180100INS_29_AllocatorDestroyRangeReverseINS_9allocatorINS_12basic_stringIcNS_11char_traitsIcEENS2_IcEEEEEENS_16reverse_iteratorIPS7_EEEEEENS_28__exception_guard_exceptionsIT_EESE_, symObjAddr: 0x1C814, symBinAddr: 0x10001F0AC, symSize: 0x4C }
  - { offset: 0x38084, size: 0x8, addend: 0x0, symName: __ZNSt3__1neB8ne180100IPNS_12basic_stringIcNS_11char_traitsIcEENS_9allocatorIcEEEES7_EEbRKNS_16reverse_iteratorIT_EERKNS8_IT0_EE, symObjAddr: 0x1C8A4, symBinAddr: 0x10001F13C, symSize: 0x44 }
  - { offset: 0x380D0, size: 0x8, addend: 0x0, symName: __ZNSt3__112__to_addressB8ne180100INS_16reverse_iteratorIPNS_12basic_stringIcNS_11char_traitsIcEENS_9allocatorIcEEEEEEvEEu7__decayIDTclsr19__to_address_helperIT_EE6__callclsr3stdE7declvalIRKSA_EEEEESC_, symObjAddr: 0x1C8E8, symBinAddr: 0x10001F180, symSize: 0x24 }
  - { offset: 0x38130, size: 0x8, addend: 0x0, symName: __ZNSt3__119__allocator_destroyB8ne180100INS_9allocatorINS_12basic_stringIcNS_11char_traitsIcEENS1_IcEEEEEENS_16reverse_iteratorINS8_IPS6_EEEESB_EEvRT_T0_T1_, symObjAddr: 0x1CB94, symBinAddr: 0x10001F42C, symSize: 0x70 }
  - { offset: 0x38195, size: 0x8, addend: 0x0, symName: __ZNSt3__1neB8ne180100INS_16reverse_iteratorIPNS_12basic_stringIcNS_11char_traitsIcEENS_9allocatorIcEEEEEES9_EEbRKNS1_IT_EERKNS1_IT0_EE, symObjAddr: 0x1CC40, symBinAddr: 0x10001F4D8, symSize: 0x5C }
  - { offset: 0x381E1, size: 0x8, addend: 0x0, symName: __ZNSt3__112__to_addressB8ne180100INS_16reverse_iteratorINS1_IPNS_12basic_stringIcNS_11char_traitsIcEENS_9allocatorIcEEEEEEEEvEEu7__decayIDTclsr19__to_address_helperIT_EE6__callclsr3stdE7declvalIRKSB_EEEEESD_, symObjAddr: 0x1CCC8, symBinAddr: 0x10001F560, symSize: 0x24 }
  - { offset: 0x38240, size: 0x8, addend: 0x0, symName: __ZNSt3__17getlineB8ne180100IcNS_11char_traitsIcEENS_9allocatorIcEEEERNS_13basic_istreamIT_T0_EES9_RNS_12basic_stringIS6_S7_T1_EES6_, symObjAddr: 0x1D46C, symBinAddr: 0x10001FD04, symSize: 0x224 }
  - { offset: 0x382FE, size: 0x8, addend: 0x0, symName: __ZNSt3__115allocate_sharedB8ne180100I4NodeNS_9allocatorIS1_EEJddRmEvEENS_10shared_ptrIT_EERKT0_DpOT1_, symObjAddr: 0x1E0F0, symBinAddr: 0x100020988, symSize: 0xA8 }
  - { offset: 0x383A0, size: 0x8, addend: 0x0, symName: __ZNSt3__122__make_exception_guardB8ne180100INS_6vectorIcNS_9allocatorIcEEE16__destroy_vectorEEENS_28__exception_guard_exceptionsIT_EES7_, symObjAddr: 0x1E4F4, symBinAddr: 0x100020D8C, symSize: 0x40 }
  - { offset: 0x383D5, size: 0x8, addend: 0x0, symName: __ZNSt3__119__allocate_at_leastB8ne180100INS_9allocatorIcEEEENS_19__allocation_resultINS_16allocator_traitsIT_E7pointerEEERS5_m, symObjAddr: 0x1E86C, symBinAddr: 0x100021104, symSize: 0x40 }
  - { offset: 0x38418, size: 0x8, addend: 0x0, symName: __ZNSt3__122__make_exception_guardB8ne180100INS_6vectorINS1_IcNS_9allocatorIcEEEENS2_IS4_EEE16__destroy_vectorEEENS_28__exception_guard_exceptionsIT_EES9_, symObjAddr: 0x1EEE4, symBinAddr: 0x10002177C, symSize: 0x40 }
  - { offset: 0x3844D, size: 0x8, addend: 0x0, symName: __ZNSt3__119__allocate_at_leastB8ne180100INS_9allocatorINS_6vectorIcNS1_IcEEEEEEEENS_19__allocation_resultINS_16allocator_traitsIT_E7pointerEEERS8_m, symObjAddr: 0x1F2D8, symBinAddr: 0x100021B70, symSize: 0x40 }
  - { offset: 0x38490, size: 0x8, addend: 0x0, symName: __ZNSt3__112__to_addressB8ne180100INS_6vectorIcNS_9allocatorIcEEEEEEPT_S6_, symObjAddr: 0x1F550, symBinAddr: 0x100021DE8, symSize: 0x14 }
  - { offset: 0x384C5, size: 0x8, addend: 0x0, symName: __ZNSt3__130__uninitialized_allocator_copyB8ne180100INS_9allocatorIcEEPcS3_S3_EET2_RT_T0_T1_S4_, symObjAddr: 0x1F8DC, symBinAddr: 0x100022174, symSize: 0x80 }
  - { offset: 0x38562, size: 0x8, addend: 0x0, symName: __ZNSt3__114__unwrap_rangeB8ne180100IPcS1_EENS_4pairIT0_S3_EET_S5_, symObjAddr: 0x1F95C, symBinAddr: 0x1000221F4, symSize: 0x60 }
  - { offset: 0x385AE, size: 0x8, addend: 0x0, symName: __ZNSt3__135__uninitialized_allocator_copy_implB8ne180100INS_9allocatorIcEEcccTnPNS_9enable_ifIXaaaaaasr31is_trivially_copy_constructibleIT1_EE5valuesr28is_trivially_copy_assignableIS4_EE5valuesr7is_sameIu14__remove_constIT0_Eu14__remove_constIT2_EEE5valuesr38__allocator_has_trivial_copy_constructIT_S4_EE5valueEvE4typeELPv0EEEPS7_RS9_PS5_SG_SE_, symObjAddr: 0x1F9BC, symBinAddr: 0x100022254, symSize: 0x38 }
  - { offset: 0x38630, size: 0x8, addend: 0x0, symName: __ZNSt3__113__unwrap_iterB8ne180100IPcNS_18__unwrap_iter_implIS1_Lb1EEETnNS_9enable_ifIXsr21is_copy_constructibleIT_EE5valueEiE4typeELi0EEEDTclsrT0_8__unwrapclsr3stdE7declvalIS5_EEEES5_, symObjAddr: 0x1F9F4, symBinAddr: 0x10002228C, symSize: 0x24 }
  - { offset: 0x38674, size: 0x8, addend: 0x0, symName: __ZNSt3__113__rewrap_iterB8ne180100IPcS1_NS_18__unwrap_iter_implIS1_Lb1EEEEET_S4_T0_, symObjAddr: 0x1FA18, symBinAddr: 0x1000222B0, symSize: 0x3C }
  - { offset: 0x386C9, size: 0x8, addend: 0x0, symName: __ZNSt3__19make_pairB8ne180100IPcS1_EENS_4pairINS_18__unwrap_ref_decayIT_E4typeENS3_IT0_E4typeEEEOS4_OS7_, symObjAddr: 0x1FA54, symBinAddr: 0x1000222EC, symSize: 0x38 }
  - { offset: 0x3881B, size: 0x8, addend: 0x0, symName: __ZNSt3__14copyB8ne180100IPcS1_EET0_T_S3_S2_, symObjAddr: 0x1FAFC, symBinAddr: 0x100022394, symSize: 0x40 }
  - { offset: 0x38875, size: 0x8, addend: 0x0, symName: __ZNSt3__16__copyB8ne180100INS_17_ClassicAlgPolicyEPcS2_S2_EENS_4pairIT0_T2_EES4_T1_S5_, symObjAddr: 0x1FB3C, symBinAddr: 0x1000223D4, symSize: 0x44 }
  - { offset: 0x388E1, size: 0x8, addend: 0x0, symName: __ZNSt3__123__dispatch_copy_or_moveB8ne180100INS_17_ClassicAlgPolicyENS_11__copy_loopIS1_EENS_14__copy_trivialEPcS5_S5_EENS_4pairIT2_T4_EES7_T3_S8_, symObjAddr: 0x1FB80, symBinAddr: 0x100022418, symSize: 0x44 }
  - { offset: 0x3895F, size: 0x8, addend: 0x0, symName: __ZNSt3__121__unwrap_and_dispatchB8ne180100INS_10__overloadINS_11__copy_loopINS_17_ClassicAlgPolicyEEENS_14__copy_trivialEEEPcS7_S7_TnNS_9enable_ifIXsr12__can_rewrapIT0_T1_T2_EE5valueEiE4typeELi0EEENS_4pairIS9_SB_EES9_SA_SB_, symObjAddr: 0x1FBC4, symBinAddr: 0x10002245C, symSize: 0xB4 }
  - { offset: 0x389ED, size: 0x8, addend: 0x0, symName: __ZNSt3__114__rewrap_rangeB8ne180100IPcS1_EET_S2_T0_, symObjAddr: 0x1FCC0, symBinAddr: 0x100022558, symSize: 0x2C }
  - { offset: 0x38A39, size: 0x8, addend: 0x0, symName: __ZNSt3__119__copy_trivial_implB8ne180100IccEENS_4pairIPT_PT0_EES3_S3_S5_, symObjAddr: 0x1FCEC, symBinAddr: 0x100022584, symSize: 0x78 }
  - { offset: 0x38AA1, size: 0x8, addend: 0x0, symName: __ZNSt3__119__constexpr_memmoveB8ne180100IccTnNS_9enable_ifIXsr23__is_always_bitcastableIT0_T_EE5valueEiE4typeELi0EEEPS3_S6_PS2_NS_15__element_countE, symObjAddr: 0x1FD64, symBinAddr: 0x1000225FC, symSize: 0x60 }
  - { offset: 0x38B0F, size: 0x8, addend: 0x0, symName: __ZNSt3__19make_pairB8ne180100IRPcS1_EENS_4pairINS_18__unwrap_ref_decayIT_E4typeENS4_IT0_E4typeEEEOS5_OS8_, symObjAddr: 0x1FDC4, symBinAddr: 0x10002265C, symSize: 0x38 }
  - { offset: 0x38BB1, size: 0x8, addend: 0x0, symName: __ZNSt3__112__destroy_atB8ne180100INS_11__hash_nodeINS_17__hash_value_typeINS_4pairIddEEmEEPvEETnNS_9enable_ifIXntsr8is_arrayIT_EE5valueEiE4typeELi0EEEvPS9_, symObjAddr: 0x20A98, symBinAddr: 0x100023330, symSize: 0x24 }
  - { offset: 0x38C1C, size: 0x8, addend: 0x0, symName: __ZNSt3__112__destroy_atB8ne180100INS_4pairIKNS1_IddEEmEETnNS_9enable_ifIXntsr8is_arrayIT_EE5valueEiE4typeELi0EEEvPS6_, symObjAddr: 0x20B3C, symBinAddr: 0x1000233D4, symSize: 0x10 }
  - { offset: 0x38C53, size: 0x8, addend: 0x0, symName: __ZNSt3__17launderB8ne180100INS_4pairIKNS1_IddEEmEEEEPT_S6_, symObjAddr: 0x20B70, symBinAddr: 0x100023408, symSize: 0x24 }
  - { offset: 0x38C8B, size: 0x8, addend: 0x0, symName: __ZNSt3__19__launderB8ne180100INS_4pairIKNS1_IddEEmEEEEPT_S6_, symObjAddr: 0x20B94, symBinAddr: 0x10002342C, symSize: 0x14 }
  - { offset: 0x38CC2, size: 0x8, addend: 0x0, symName: __ZNSt3__115allocate_sharedB8ne180100I4NodeNS_9allocatorIS1_EEJRiS4_RmEvEENS_10shared_ptrIT_EERKT0_DpOT1_, symObjAddr: 0x20ED4, symBinAddr: 0x10002376C, symSize: 0xA8 }
  - { offset: 0x38D9B, size: 0x8, addend: 0x0, symName: __ZNSt3__116forward_as_tupleB8ne180100IJNS_4pairIddEEEEENS_5tupleIJDpOT_EEES6_, symObjAddr: 0x215C4, symBinAddr: 0x100023E5C, symSize: 0x2C }
  - { offset: 0x38DD5, size: 0x8, addend: 0x0, symName: __ZNSt3__116forward_as_tupleB8ne180100IJEEENS_5tupleIJDpOT_EEES4_, symObjAddr: 0x215F0, symBinAddr: 0x100023E88, symSize: 0x4 }
  - { offset: 0x38E8D, size: 0x8, addend: 0x0, symName: __ZNSt3__1eqB8ne180100IddddEEbRKNS_4pairIT_T0_EERKNS1_IT1_T2_EE, symObjAddr: 0x21D14, symBinAddr: 0x1000245AC, symSize: 0x60 }
  - { offset: 0x38EEE, size: 0x8, addend: 0x0, symName: __ZNSt3__17launderB8ne180100IKNS_4pairIKNS1_IddEEmEEEEPT_S7_, symObjAddr: 0x21D74, symBinAddr: 0x10002460C, symSize: 0x24 }
  - { offset: 0x38F26, size: 0x8, addend: 0x0, symName: __ZNSt3__19__launderB8ne180100IKNS_4pairIKNS1_IddEEmEEEEPT_S7_, symObjAddr: 0x21D98, symBinAddr: 0x100024630, symSize: 0x14 }
  - { offset: 0x38FA2, size: 0x8, addend: 0x0, symName: __ZNSt3__114__construct_atB8ne180100INS_11__hash_nodeINS_17__hash_value_typeINS_4pairIddEEmEEPvEEJDnRmEPS7_EEPT_SB_DpOT0_, symObjAddr: 0x21E54, symBinAddr: 0x1000246EC, symSize: 0x48 }
  - { offset: 0x39033, size: 0x8, addend: 0x0, symName: __ZNSt3__13getB8ne180100ILm0EJONS_4pairIddEEEEERNS_13tuple_elementIXT_ENS_5tupleIJDpT0_EEEE4typeERS8_, symObjAddr: 0x222E4, symBinAddr: 0x100024B7C, symSize: 0x24 }
  - { offset: 0x390CD, size: 0x8, addend: 0x0, symName: __ZNSt3__18distanceB8ne180100INS_11__wrap_iterIP4EdgeEEEENS_15iterator_traitsIT_E15difference_typeES6_S6_, symObjAddr: 0x233D8, symBinAddr: 0x100025C70, symSize: 0x3C }
  - { offset: 0x39110, size: 0x8, addend: 0x0, symName: __ZNSt3__1miB8ne180100IPK4EdgePS1_EEDTmicldtfp_4baseEcldtfp0_4baseEERKNS_11__wrap_iterIT_EERKNS6_IT0_EE, symObjAddr: 0x23414, symBinAddr: 0x100025CAC, symSize: 0x48 }
  - { offset: 0x3915C, size: 0x8, addend: 0x0, symName: __ZNSt3__14nextB8ne180100INS_11__wrap_iterIP4EdgeEETnNS_9enable_ifIXsr29__has_input_iterator_categoryIT_EE5valueEiE4typeELi0EEES6_S6_NS_15iterator_traitsIS6_E15difference_typeE, symObjAddr: 0x2345C, symBinAddr: 0x100025CF4, symSize: 0x3C }
  - { offset: 0x391A5, size: 0x8, addend: 0x0, symName: __ZNSt3__14copyB8ne180100INS_11__wrap_iterIP4EdgeEES3_EET0_T_S6_S5_, symObjAddr: 0x236A4, symBinAddr: 0x100025F3C, symSize: 0x50 }
  - { offset: 0x391FF, size: 0x8, addend: 0x0, symName: __ZNSt3__121__convert_to_integralB8ne180100El, symObjAddr: 0x2390C, symBinAddr: 0x1000261A4, symSize: 0x14 }
  - { offset: 0x3922B, size: 0x8, addend: 0x0, symName: __ZNSt3__19__advanceB8ne180100INS_11__wrap_iterIP4EdgeEEEEvRT_NS_15iterator_traitsIS5_E15difference_typeENS_26random_access_iterator_tagE, symObjAddr: 0x23920, symBinAddr: 0x1000261B8, symSize: 0x2C }
  - { offset: 0x39274, size: 0x8, addend: 0x0, symName: __ZNSt3__130__uninitialized_allocator_copyB8ne180100INS_9allocatorI4EdgeEENS_11__wrap_iterIPS2_EES6_S5_EET2_RT_T0_T1_S7_, symObjAddr: 0x2397C, symBinAddr: 0x100026214, symSize: 0x90 }
  - { offset: 0x39311, size: 0x8, addend: 0x0, symName: __ZNSt3__114__unwrap_rangeB8ne180100INS_11__wrap_iterIP4EdgeEES3_EENS_4pairIT0_S6_EET_S8_, symObjAddr: 0x23A0C, symBinAddr: 0x1000262A4, symSize: 0x70 }
  - { offset: 0x3935D, size: 0x8, addend: 0x0, symName: __ZNSt3__113__unwrap_iterB8ne180100INS_11__wrap_iterIP4EdgeEENS_18__unwrap_iter_implIS4_Lb1EEETnNS_9enable_ifIXsr21is_copy_constructibleIT_EE5valueEiE4typeELi0EEEDTclsrT0_8__unwrapclsr3stdE7declvalIS8_EEEES8_, symObjAddr: 0x23A7C, symBinAddr: 0x100026314, symSize: 0x2C }
  - { offset: 0x393F4, size: 0x8, addend: 0x0, symName: __ZNSt3__112__to_addressB8ne180100INS_11__wrap_iterIP4EdgeEEvEEu7__decayIDTclsr19__to_address_helperIT_EE6__callclsr3stdE7declvalIRKS5_EEEEES7_, symObjAddr: 0x23AD0, symBinAddr: 0x100026368, symSize: 0x24 }
  - { offset: 0x394CF, size: 0x8, addend: 0x0, symName: __ZNSt3__113move_backwardB8ne180100IP4EdgeS2_EET0_T_S4_S3_, symObjAddr: 0x23B50, symBinAddr: 0x1000263E8, symSize: 0x40 }
  - { offset: 0x39529, size: 0x8, addend: 0x0, symName: __ZNSt3__115__move_backwardB8ne180100INS_17_ClassicAlgPolicyEP4EdgeS3_S3_EENS_4pairIT0_T2_EES5_T1_S6_, symObjAddr: 0x23B90, symBinAddr: 0x100026428, symSize: 0x44 }
  - { offset: 0x39595, size: 0x8, addend: 0x0, symName: __ZNSt3__123__dispatch_copy_or_moveB8ne180100INS_17_ClassicAlgPolicyENS_20__move_backward_loopIS1_EENS_23__move_backward_trivialEP4EdgeS6_S6_EENS_4pairIT2_T4_EES8_T3_S9_, symObjAddr: 0x23BD4, symBinAddr: 0x10002646C, symSize: 0x44 }
  - { offset: 0x39613, size: 0x8, addend: 0x0, symName: __ZNSt3__121__unwrap_and_dispatchB8ne180100INS_10__overloadINS_20__move_backward_loopINS_17_ClassicAlgPolicyEEENS_23__move_backward_trivialEEEP4EdgeS8_S8_TnNS_9enable_ifIXsr12__can_rewrapIT0_T1_T2_EE5valueEiE4typeELi0EEENS_4pairISA_SC_EESA_SB_SC_, symObjAddr: 0x23C18, symBinAddr: 0x1000264B0, symSize: 0xB4 }
  - { offset: 0x396F3, size: 0x8, addend: 0x0, symName: __ZNSt3__114__rewrap_rangeB8ne180100IP4EdgeS2_EET_S3_T0_, symObjAddr: 0x23D6C, symBinAddr: 0x100026604, symSize: 0x2C }
  - { offset: 0x3974A, size: 0x8, addend: 0x0, symName: __ZNSt3__16__copyB8ne180100INS_17_ClassicAlgPolicyENS_11__wrap_iterIP4EdgeEES5_S4_EENS_4pairIT0_T2_EES7_T1_S8_, symObjAddr: 0x23E24, symBinAddr: 0x1000266BC, symSize: 0x54 }
  - { offset: 0x397B6, size: 0x8, addend: 0x0, symName: __ZNSt3__123__dispatch_copy_or_moveB8ne180100INS_17_ClassicAlgPolicyENS_11__copy_loopIS1_EENS_14__copy_trivialENS_11__wrap_iterIP4EdgeEES8_S7_EENS_4pairIT2_T4_EESA_T3_SB_, symObjAddr: 0x23E78, symBinAddr: 0x100026710, symSize: 0x54 }
  - { offset: 0x39834, size: 0x8, addend: 0x0, symName: __ZNSt3__121__unwrap_and_dispatchB8ne180100INS_10__overloadINS_11__copy_loopINS_17_ClassicAlgPolicyEEENS_14__copy_trivialEEENS_11__wrap_iterIP4EdgeEESA_S9_TnNS_9enable_ifIXsr12__can_rewrapIT0_T1_T2_EE5valueEiE4typeELi0EEENS_4pairISC_SE_EESC_SD_SE_, symObjAddr: 0x23ECC, symBinAddr: 0x100026764, symSize: 0xCC }
  - { offset: 0x39914, size: 0x8, addend: 0x0, symName: __ZNSt3__19make_pairB8ne180100INS_11__wrap_iterIP4EdgeEES3_EENS_4pairINS_18__unwrap_ref_decayIT_E4typeENS6_IT0_E4typeEEEOS7_OSA_, symObjAddr: 0x2401C, symBinAddr: 0x1000268B4, symSize: 0x38 }
  - { offset: 0x39963, size: 0x8, addend: 0x0, symName: __ZNSt3__114__rewrap_rangeB8ne180100INS_11__wrap_iterIP4EdgeEES3_EET_S5_T0_, symObjAddr: 0x24054, symBinAddr: 0x1000268EC, symSize: 0x3C }
  - { offset: 0x399AF, size: 0x8, addend: 0x0, symName: __ZNSt3__18distanceB8ne180100IPdEENS_15iterator_traitsIT_E15difference_typeES3_S3_, symObjAddr: 0x24334, symBinAddr: 0x100026BCC, symSize: 0x2C }
  - { offset: 0x399F2, size: 0x8, addend: 0x0, symName: __ZNSt3__14nextB8ne180100IPdTnNS_9enable_ifIXsr29__has_input_iterator_categoryIT_EE5valueEiE4typeELi0EEES3_S3_NS_15iterator_traitsIS3_E15difference_typeE, symObjAddr: 0x24360, symBinAddr: 0x100026BF8, symSize: 0x34 }
  - { offset: 0x39A3C, size: 0x8, addend: 0x0, symName: __ZNSt3__19__advanceB8ne180100IPdEEvRT_NS_15iterator_traitsIS2_E15difference_typeENS_26random_access_iterator_tagE, symObjAddr: 0x244A4, symBinAddr: 0x100026D3C, symSize: 0x28 }
  - { offset: 0x39A85, size: 0x8, addend: 0x0, symName: __ZNSt3__110__distanceB8ne180100IPdEENS_15iterator_traitsIT_E15difference_typeES3_S3_NS_26random_access_iterator_tagE, symObjAddr: 0x24524, symBinAddr: 0x100026DBC, symSize: 0x28 }
  - { offset: 0x39BA6, size: 0x8, addend: 0x0, symName: __ZNSt3__113__rewrap_iterB8ne180100INS_11__wrap_iterIP4EdgeEES3_NS_18__unwrap_iter_implIS4_Lb1EEEEET_S7_T0_, symObjAddr: 0x245BC, symBinAddr: 0x100026E54, symSize: 0x4C }
  - { offset: 0x39BFB, size: 0x8, addend: 0x0, symName: __ZNSt3__142__uninitialized_allocator_move_if_noexceptB8ne180100INS_9allocatorI4EdgeEEPS2_S4_S4_EET2_RT_T0_T1_S5_, symObjAddr: 0x24774, symBinAddr: 0x10002700C, symSize: 0xF0 }
  - { offset: 0x39C99, size: 0x8, addend: 0x0, symName: __ZNSt3__110__distanceB8ne180100INS_11__wrap_iterIP4EdgeEEEENS_15iterator_traitsIT_E15difference_typeES6_S6_NS_26random_access_iterator_tagE, symObjAddr: 0x24864, symBinAddr: 0x1000270FC, symSize: 0x30 }
  - { offset: 0x39CE6, size: 0x8, addend: 0x0, symName: __ZNSt3__1miB8ne180100IP4EdgeS2_EEDTmicldtfp_4baseEcldtfp0_4baseEERKNS_11__wrap_iterIT_EERKNS4_IT0_EE, symObjAddr: 0x24894, symBinAddr: 0x10002712C, symSize: 0x48 }
  - { offset: 0x39E95, size: 0x8, addend: 0x0, symName: __ZNSt3__116forward_as_tupleB8ne180100IJ9h_functorEEENS_5tupleIJDpOT_EEES5_, symObjAddr: 0x251B8, symBinAddr: 0x100027A50, symSize: 0x2C }
  - { offset: 0x39ECE, size: 0x8, addend: 0x0, symName: __ZNSt3__116forward_as_tupleB8ne180100IJNS_9allocatorI9h_functorEEEEENS_5tupleIJDpOT_EEES7_, symObjAddr: 0x251E4, symBinAddr: 0x100027A7C, symSize: 0x2C }
  - { offset: 0x39F31, size: 0x8, addend: 0x0, symName: __ZNSt3__13getB8ne180100ILm0EJO9h_functorEEERNS_13tuple_elementIXT_ENS_5tupleIJDpT0_EEEE4typeERS7_, symObjAddr: 0x254FC, symBinAddr: 0x100027D94, symSize: 0x24 }
  - { offset: 0x39F74, size: 0x8, addend: 0x0, symName: __ZNSt3__13getB8ne180100ILm0EJONS_9allocatorI9h_functorEEEEERNS_13tuple_elementIXT_ENS_5tupleIJDpT0_EEEE4typeERS9_, symObjAddr: 0x25538, symBinAddr: 0x100027DD0, symSize: 0x24 }
  - { offset: 0x3A493, size: 0x8, addend: 0x0, symName: __ZNSt3__116forward_as_tupleB8ne180100IJRK9h_functorEEENS_5tupleIJDpOT_EEES7_, symObjAddr: 0x25AC0, symBinAddr: 0x100028358, symSize: 0x2C }
  - { offset: 0x3A4E1, size: 0x8, addend: 0x0, symName: __ZNSt3__13getB8ne180100ILm0EJRK9h_functorEEERNS_13tuple_elementIXT_ENS_5tupleIJDpT0_EEEE4typeERS8_, symObjAddr: 0x25CB0, symBinAddr: 0x100028548, symSize: 0x24 }
  - { offset: 0x3A524, size: 0x8, addend: 0x0, symName: __ZNSt3__116forward_as_tupleB8ne180100IJRKNS_9allocatorI9h_functorEEEEENS_5tupleIJDpOT_EEES9_, symObjAddr: 0x25FFC, symBinAddr: 0x100028894, symSize: 0x2C }
  - { offset: 0x3A572, size: 0x8, addend: 0x0, symName: __ZNSt3__13getB8ne180100ILm0EJRKNS_9allocatorI9h_functorEEEEERNS_13tuple_elementIXT_ENS_5tupleIJDpT0_EEEE4typeERSA_, symObjAddr: 0x261E0, symBinAddr: 0x100028A78, symSize: 0x24 }
  - { offset: 0x3A604, size: 0x8, addend: 0x0, symName: __ZNSt3__18__invokeB8ne180100IR9h_functorJRKNS_10shared_ptrI4NodeEES7_EEEDTclclsr3stdE7declvalIT_EEspclsr3stdE7declvalIT0_EEEEOS8_DpOS9_, symObjAddr: 0x262BC, symBinAddr: 0x100028B54, symSize: 0x34 }
  - { offset: 0x3A669, size: 0x8, addend: 0x0, symName: __ZNSt3__18distanceB8ne180100IPKcEENS_15iterator_traitsIT_E15difference_typeES4_S4_, symObjAddr: 0x26B04, symBinAddr: 0x10002939C, symSize: 0x2C }
  - { offset: 0x3A6AC, size: 0x8, addend: 0x0, symName: __ZNSt3__110__distanceB8ne180100IPKcEENS_15iterator_traitsIT_E15difference_typeES4_S4_NS_26random_access_iterator_tagE, symObjAddr: 0x26CD4, symBinAddr: 0x10002956C, symSize: 0x20 }
  - { offset: 0x3A6F9, size: 0x8, addend: 0x0, symName: __ZNSt3__121__is_pointer_in_rangeB8ne180100IccTnNS_9enable_ifIXsr25__is_less_than_comparableIPKT_PKT0_EE5valueEiE4typeELi0EEEbS4_S4_S7_, symObjAddr: 0x26CF4, symBinAddr: 0x10002958C, symSize: 0x68 }
  - { offset: 0x3A759, size: 0x8, addend: 0x0, symName: __ZNSt3__1miB8ne180100IPKNS_12basic_stringIcNS_11char_traitsIcEENS_9allocatorIcEEEES8_EEDTmicldtfp_4baseEcldtfp0_4baseEERKNS_11__wrap_iterIT_EERKNSA_IT0_EE, symObjAddr: 0x271A4, symBinAddr: 0x100029A3C, symSize: 0x48 }
  - { offset: 0x3A7A5, size: 0x8, addend: 0x0, symName: __ZNSt3__14moveB8ne180100IPNS_12basic_stringIcNS_11char_traitsIcEENS_9allocatorIcEEEES7_EET0_T_S9_S8_, symObjAddr: 0x27264, symBinAddr: 0x100029AFC, symSize: 0x40 }
  - { offset: 0x3A7FF, size: 0x8, addend: 0x0, symName: __ZNSt3__16__moveB8ne180100INS_17_ClassicAlgPolicyEPNS_12basic_stringIcNS_11char_traitsIcEENS_9allocatorIcEEEES8_S8_EENS_4pairIT0_T2_EESA_T1_SB_, symObjAddr: 0x27384, symBinAddr: 0x100029C1C, symSize: 0x44 }
  - { offset: 0x3A86B, size: 0x8, addend: 0x0, symName: __ZNSt3__123__dispatch_copy_or_moveB8ne180100INS_17_ClassicAlgPolicyENS_11__move_loopIS1_EENS_14__move_trivialEPNS_12basic_stringIcNS_11char_traitsIcEENS_9allocatorIcEEEESB_SB_EENS_4pairIT2_T4_EESD_T3_SE_, symObjAddr: 0x273C8, symBinAddr: 0x100029C60, symSize: 0x44 }
  - { offset: 0x3A8E9, size: 0x8, addend: 0x0, symName: __ZNSt3__121__unwrap_and_dispatchB8ne180100INS_10__overloadINS_11__move_loopINS_17_ClassicAlgPolicyEEENS_14__move_trivialEEEPNS_12basic_stringIcNS_11char_traitsIcEENS_9allocatorIcEEEESD_SD_TnNS_9enable_ifIXsr12__can_rewrapIT0_T1_T2_EE5valueEiE4typeELi0EEENS_4pairISF_SH_EESF_SG_SH_, symObjAddr: 0x2740C, symBinAddr: 0x100029CA4, symSize: 0xB4 }
  - { offset: 0x3A977, size: 0x8, addend: 0x0, symName: __ZNSt3__114__unwrap_rangeB8ne180100IPNS_12basic_stringIcNS_11char_traitsIcEENS_9allocatorIcEEEES7_EENS_4pairIT0_S9_EET_SB_, symObjAddr: 0x274C0, symBinAddr: 0x100029D58, symSize: 0x60 }
  - { offset: 0x3AA97, size: 0x8, addend: 0x0, symName: __ZNSt3__113__unwrap_iterB8ne180100IPNS_12basic_stringIcNS_11char_traitsIcEENS_9allocatorIcEEEENS_18__unwrap_iter_implIS7_Lb1EEETnNS_9enable_ifIXsr21is_copy_constructibleIT_EE5valueEiE4typeELi0EEEDTclsrT0_8__unwrapclsr3stdE7declvalISB_EEEESB_, symObjAddr: 0x275AC, symBinAddr: 0x100029E44, symSize: 0x24 }
  - { offset: 0x3AADB, size: 0x8, addend: 0x0, symName: __ZNSt3__19make_pairB8ne180100IPNS_12basic_stringIcNS_11char_traitsIcEENS_9allocatorIcEEEES7_EENS_4pairINS_18__unwrap_ref_decayIT_E4typeENS9_IT0_E4typeEEEOSA_OSD_, symObjAddr: 0x275D0, symBinAddr: 0x100029E68, symSize: 0x38 }
  - { offset: 0x3AB2A, size: 0x8, addend: 0x0, symName: __ZNSt3__114__rewrap_rangeB8ne180100IPNS_12basic_stringIcNS_11char_traitsIcEENS_9allocatorIcEEEES7_EET_S8_T0_, symObjAddr: 0x27608, symBinAddr: 0x100029EA0, symSize: 0x2C }
  - { offset: 0x3AB76, size: 0x8, addend: 0x0, symName: __ZNSt3__113__rewrap_iterB8ne180100IPNS_12basic_stringIcNS_11char_traitsIcEENS_9allocatorIcEEEES7_NS_18__unwrap_iter_implIS7_Lb1EEEEET_SA_T0_, symObjAddr: 0x27634, symBinAddr: 0x100029ECC, symSize: 0x3C }
  - { offset: 0x3AC29, size: 0x8, addend: 0x0, symName: __ZNSt3__122__make_exception_guardB8ne180100INS_6vectorINS_12basic_stringIcNS_11char_traitsIcEENS_9allocatorIcEEEENS5_IS7_EEE16__destroy_vectorEEENS_28__exception_guard_exceptionsIT_EESC_, symObjAddr: 0x27978, symBinAddr: 0x10002A210, symSize: 0x40 }
  - { offset: 0x3AC5E, size: 0x8, addend: 0x0, symName: __ZNSt3__130__uninitialized_allocator_copyB8ne180100INS_9allocatorINS_12basic_stringIcNS_11char_traitsIcEENS1_IcEEEEEEPS6_S8_S8_EET2_RT_T0_T1_S9_, symObjAddr: 0x27B94, symBinAddr: 0x10002A42C, symSize: 0x80 }
  - { offset: 0x3ACFB, size: 0x8, addend: 0x0, symName: __ZNSt3__135__uninitialized_allocator_copy_implB8ne180100INS_9allocatorINS_12basic_stringIcNS_11char_traitsIcEENS1_IcEEEEEEPS6_S8_S8_EET2_RT_T0_T1_S9_, symObjAddr: 0x27C14, symBinAddr: 0x10002A4AC, symSize: 0xF0 }
  - { offset: 0x3AD99, size: 0x8, addend: 0x0, symName: __ZNSt3__122__make_exception_guardB8ne180100INS_29_AllocatorDestroyRangeReverseINS_9allocatorINS_12basic_stringIcNS_11char_traitsIcEENS2_IcEEEEEEPS7_EEEENS_28__exception_guard_exceptionsIT_EESC_, symObjAddr: 0x27D04, symBinAddr: 0x10002A59C, symSize: 0x4C }
  - { offset: 0x3ADD0, size: 0x8, addend: 0x0, symName: __ZNSt3__119__allocator_destroyB8ne180100INS_9allocatorINS_12basic_stringIcNS_11char_traitsIcEENS1_IcEEEEEENS_16reverse_iteratorIPS6_EESA_EEvRT_T0_T1_, symObjAddr: 0x27F94, symBinAddr: 0x10002A82C, symSize: 0x70 }
  - { offset: 0x3AE33, size: 0x8, addend: 0x0, symName: __ZNSt3__112__destroy_atB8ne180100INS_11__hash_nodeINS_17__hash_value_typeINS_12basic_stringIcNS_11char_traitsIcEENS_9allocatorIcEEEENS_6vectorINS9_ImNS6_ImEEEENS6_ISB_EEEEEEPvEETnNS_9enable_ifIXntsr8is_arrayIT_EE5valueEiE4typeELi0EEEvPSI_, symObjAddr: 0x288A8, symBinAddr: 0x10002B140, symSize: 0x24 }
  - { offset: 0x3AE9D, size: 0x8, addend: 0x0, symName: __ZNSt3__112__destroy_atB8ne180100INS_4pairIKNS_12basic_stringIcNS_11char_traitsIcEENS_9allocatorIcEEEENS_6vectorINS9_ImNS5_ImEEEENS5_ISB_EEEEEETnNS_9enable_ifIXntsr8is_arrayIT_EE5valueEiE4typeELi0EEEvPSG_, symObjAddr: 0x2894C, symBinAddr: 0x10002B1E4, symSize: 0x24 }
  - { offset: 0x3AED4, size: 0x8, addend: 0x0, symName: __ZNSt3__112__to_addressB8ne180100INS_6vectorImNS_9allocatorImEEEEEEPT_S6_, symObjAddr: 0x28CA8, symBinAddr: 0x10002B540, symSize: 0x14 }
  - { offset: 0x3AF09, size: 0x8, addend: 0x0, symName: __ZNSt3__17launderB8ne180100INS_4pairIKNS_12basic_stringIcNS_11char_traitsIcEENS_9allocatorIcEEEENS_6vectorINS9_ImNS5_ImEEEENS5_ISB_EEEEEEEEPT_SG_, symObjAddr: 0x28DE4, symBinAddr: 0x10002B67C, symSize: 0x24 }
  - { offset: 0x3AF41, size: 0x8, addend: 0x0, symName: __ZNSt3__19__launderB8ne180100INS_4pairIKNS_12basic_stringIcNS_11char_traitsIcEENS_9allocatorIcEEEENS_6vectorINS9_ImNS5_ImEEEENS5_ISB_EEEEEEEEPT_SG_, symObjAddr: 0x28E08, symBinAddr: 0x10002B6A0, symSize: 0x14 }
  - { offset: 0x3AF78, size: 0x8, addend: 0x0, symName: __ZNSt3__116forward_as_tupleB8ne180100IJRKNS_12basic_stringIcNS_11char_traitsIcEENS_9allocatorIcEEEEEEENS_5tupleIJDpOT_EEESC_, symObjAddr: 0x295B8, symBinAddr: 0x10002BE50, symSize: 0x2C }
  - { offset: 0x3AFB1, size: 0x8, addend: 0x0, symName: __ZNSt3__116__do_string_hashB8ne180100IPKcEEmT_S3_, symObjAddr: 0x29B00, symBinAddr: 0x10002C398, symSize: 0x3C }
  - { offset: 0x3AFF7, size: 0x8, addend: 0x0, symName: __ZNSt3__110__loadwordB8ne180100ImEET_PKv, symObjAddr: 0x2A4DC, symBinAddr: 0x10002CD74, symSize: 0x20 }
  - { offset: 0x3B03A, size: 0x8, addend: 0x0, symName: __ZNSt3__14swapB8ne180100ImEENS_9enable_ifIXaasr21is_move_constructibleIT_EE5valuesr18is_move_assignableIS2_EE5valueEvE4typeERS2_S5_, symObjAddr: 0x2A690, symBinAddr: 0x10002CF28, symSize: 0x3C }
  - { offset: 0x3B08B, size: 0x8, addend: 0x0, symName: __ZNSt3__110__loadwordB8ne180100IjEET_PKv, symObjAddr: 0x2A720, symBinAddr: 0x10002CFB8, symSize: 0x20 }
  - { offset: 0x3B0CE, size: 0x8, addend: 0x0, symName: __ZNSt3__1eqB8ne180100INS_9allocatorIcEEEEbRKNS_12basic_stringIcNS_11char_traitsIcEET_EES9_, symObjAddr: 0x2A9F8, symBinAddr: 0x10002D290, symSize: 0x134 }
  - { offset: 0x3B141, size: 0x8, addend: 0x0, symName: __ZNSt3__17launderB8ne180100IKNS_4pairIKNS_12basic_stringIcNS_11char_traitsIcEENS_9allocatorIcEEEENS_6vectorINS9_ImNS5_ImEEEENS5_ISB_EEEEEEEEPT_SH_, symObjAddr: 0x2AB60, symBinAddr: 0x10002D3F8, symSize: 0x24 }
  - { offset: 0x3B179, size: 0x8, addend: 0x0, symName: __ZNSt3__19__launderB8ne180100IKNS_4pairIKNS_12basic_stringIcNS_11char_traitsIcEENS_9allocatorIcEEEENS_6vectorINS9_ImNS5_ImEEEENS5_ISB_EEEEEEEEPT_SH_, symObjAddr: 0x2AB84, symBinAddr: 0x10002D41C, symSize: 0x14 }
  - { offset: 0x3B1F5, size: 0x8, addend: 0x0, symName: __ZNSt3__114__construct_atB8ne180100INS_11__hash_nodeINS_17__hash_value_typeINS_12basic_stringIcNS_11char_traitsIcEENS_9allocatorIcEEEENS_6vectorINS9_ImNS6_ImEEEENS6_ISB_EEEEEEPvEEJDnRmEPSG_EEPT_SK_DpOT0_, symObjAddr: 0x2AC40, symBinAddr: 0x10002D4D8, symSize: 0x48 }
  - { offset: 0x3B27A, size: 0x8, addend: 0x0, symName: __ZNSt3__13getB8ne180100ILm0EJRKNS_12basic_stringIcNS_11char_traitsIcEENS_9allocatorIcEEEEEEERNS_13tuple_elementIXT_ENS_5tupleIJDpT0_EEEE4typeERSD_, symObjAddr: 0x2B0C8, symBinAddr: 0x10002D960, symSize: 0x24 }
  - { offset: 0x3B305, size: 0x8, addend: 0x0, symName: __ZNSt3__119__allocate_at_leastB8ne180100INS_9allocatorINS_6vectorImNS1_ImEEEEEEEENS_19__allocation_resultINS_16allocator_traitsIT_E7pointerEEERS8_m, symObjAddr: 0x2C50C, symBinAddr: 0x10002EDA4, symSize: 0x40 }
  - { offset: 0x3B348, size: 0x8, addend: 0x0, symName: __ZNSt3__142__uninitialized_allocator_move_if_noexceptB8ne180100INS_9allocatorINS_6vectorImNS1_ImEEEEEENS_16reverse_iteratorIPS4_EES8_S8_EET2_RT_T0_T1_S9_, symObjAddr: 0x2C6C0, symBinAddr: 0x10002EF58, symSize: 0x12C }
  - { offset: 0x3B3E8, size: 0x8, addend: 0x0, symName: __ZNSt3__14swapB8ne180100IPNS_6vectorImNS_9allocatorImEEEEEENS_9enable_ifIXaasr21is_move_constructibleIT_EE5valuesr18is_move_assignableIS7_EE5valueEvE4typeERS7_SA_, symObjAddr: 0x2C838, symBinAddr: 0x10002F0D0, symSize: 0x3C }
  - { offset: 0x3B439, size: 0x8, addend: 0x0, symName: __ZNSt3__122__make_exception_guardB8ne180100INS_29_AllocatorDestroyRangeReverseINS_9allocatorINS_6vectorImNS2_ImEEEEEENS_16reverse_iteratorIPS5_EEEEEENS_28__exception_guard_exceptionsIT_EESC_, symObjAddr: 0x2C888, symBinAddr: 0x10002F120, symSize: 0x4C }
  - { offset: 0x3B46F, size: 0x8, addend: 0x0, symName: __ZNSt3__1neB8ne180100IPNS_6vectorImNS_9allocatorImEEEES5_EEbRKNS_16reverse_iteratorIT_EERKNS6_IT0_EE, symObjAddr: 0x2C918, symBinAddr: 0x10002F1B0, symSize: 0x44 }
  - { offset: 0x3B4BB, size: 0x8, addend: 0x0, symName: __ZNSt3__112__to_addressB8ne180100INS_16reverse_iteratorIPNS_6vectorImNS_9allocatorImEEEEEEvEEu7__decayIDTclsr19__to_address_helperIT_EE6__callclsr3stdE7declvalIRKS8_EEEEESA_, symObjAddr: 0x2C95C, symBinAddr: 0x10002F1F4, symSize: 0x24 }
  - { offset: 0x3B51B, size: 0x8, addend: 0x0, symName: __ZNSt3__119__allocator_destroyB8ne180100INS_9allocatorINS_6vectorImNS1_ImEEEEEENS_16reverse_iteratorINS6_IPS4_EEEES9_EEvRT_T0_T1_, symObjAddr: 0x2CC08, symBinAddr: 0x10002F4A0, symSize: 0x70 }
  - { offset: 0x3B580, size: 0x8, addend: 0x0, symName: __ZNSt3__1neB8ne180100INS_16reverse_iteratorIPNS_6vectorImNS_9allocatorImEEEEEES7_EEbRKNS1_IT_EERKNS1_IT0_EE, symObjAddr: 0x2CCB4, symBinAddr: 0x10002F54C, symSize: 0x5C }
  - { offset: 0x3B5CC, size: 0x8, addend: 0x0, symName: __ZNSt3__112__to_addressB8ne180100INS_16reverse_iteratorINS1_IPNS_6vectorImNS_9allocatorImEEEEEEEEvEEu7__decayIDTclsr19__to_address_helperIT_EE6__callclsr3stdE7declvalIRKS9_EEEEESB_, symObjAddr: 0x2CD10, symBinAddr: 0x10002F5A8, symSize: 0x24 }
  - { offset: 0x3B62B, size: 0x8, addend: 0x0, symName: __ZNSt3__122__make_exception_guardB8ne180100INS_6vectorImNS_9allocatorImEEE16__destroy_vectorEEENS_28__exception_guard_exceptionsIT_EES7_, symObjAddr: 0x2D1C4, symBinAddr: 0x10002FA5C, symSize: 0x40 }
  - { offset: 0x3B660, size: 0x8, addend: 0x0, symName: __ZNSt3__119__allocate_at_leastB8ne180100INS_9allocatorImEEEENS_19__allocation_resultINS_16allocator_traitsIT_E7pointerEEERS5_m, symObjAddr: 0x2D56C, symBinAddr: 0x10002FE04, symSize: 0x40 }
  - { offset: 0x3B6A3, size: 0x8, addend: 0x0, symName: __ZNSt3__130__uninitialized_allocator_copyB8ne180100INS_9allocatorImEEPKmS4_PmEET2_RT_T0_T1_S6_, symObjAddr: 0x2D6E8, symBinAddr: 0x10002FF80, symSize: 0x80 }
  - { offset: 0x3B740, size: 0x8, addend: 0x0, symName: __ZNSt3__114__unwrap_rangeB8ne180100IPKmS2_EENS_4pairIT0_S4_EET_S6_, symObjAddr: 0x2D7D8, symBinAddr: 0x100030070, symSize: 0x60 }
  - { offset: 0x3B78C, size: 0x8, addend: 0x0, symName: __ZNSt3__135__uninitialized_allocator_copy_implB8ne180100INS_9allocatorImEEKmmmTnPNS_9enable_ifIXaaaaaasr31is_trivially_copy_constructibleIT1_EE5valuesr28is_trivially_copy_assignableIS5_EE5valuesr7is_sameIu14__remove_constIT0_Eu14__remove_constIT2_EEE5valuesr38__allocator_has_trivial_copy_constructIT_S5_EE5valueEvE4typeELPv0EEEPS8_RSA_PS6_SH_SF_, symObjAddr: 0x2D838, symBinAddr: 0x1000300D0, symSize: 0x38 }
  - { offset: 0x3B80E, size: 0x8, addend: 0x0, symName: __ZNSt3__113__unwrap_iterB8ne180100IPmNS_18__unwrap_iter_implIS1_Lb1EEETnNS_9enable_ifIXsr21is_copy_constructibleIT_EE5valueEiE4typeELi0EEEDTclsrT0_8__unwrapclsr3stdE7declvalIS5_EEEES5_, symObjAddr: 0x2D870, symBinAddr: 0x100030108, symSize: 0x24 }
  - { offset: 0x3B852, size: 0x8, addend: 0x0, symName: __ZNSt3__113__rewrap_iterB8ne180100IPmS1_NS_18__unwrap_iter_implIS1_Lb1EEEEET_S4_T0_, symObjAddr: 0x2D894, symBinAddr: 0x10003012C, symSize: 0x3C }
  - { offset: 0x3B8A7, size: 0x8, addend: 0x0, symName: __ZNSt3__19make_pairB8ne180100IPKmS2_EENS_4pairINS_18__unwrap_ref_decayIT_E4typeENS4_IT0_E4typeEEEOS5_OS8_, symObjAddr: 0x2D8D0, symBinAddr: 0x100030168, symSize: 0x38 }
  - { offset: 0x3B8F6, size: 0x8, addend: 0x0, symName: __ZNSt3__113__unwrap_iterB8ne180100IPKmNS_18__unwrap_iter_implIS2_Lb1EEETnNS_9enable_ifIXsr21is_copy_constructibleIT_EE5valueEiE4typeELi0EEEDTclsrT0_8__unwrapclsr3stdE7declvalIS6_EEEES6_, symObjAddr: 0x2D908, symBinAddr: 0x1000301A0, symSize: 0x24 }
  - { offset: 0x3BA61, size: 0x8, addend: 0x0, symName: __ZNSt3__112__to_addressB8ne180100IKmEEPT_S3_, symObjAddr: 0x2D9C0, symBinAddr: 0x100030258, symSize: 0x14 }
  - { offset: 0x3BA96, size: 0x8, addend: 0x0, symName: __ZNSt3__14copyB8ne180100IPKmPmEET0_T_S5_S4_, symObjAddr: 0x2D9D4, symBinAddr: 0x10003026C, symSize: 0x40 }
  - { offset: 0x3BAF0, size: 0x8, addend: 0x0, symName: __ZNSt3__16__copyB8ne180100INS_17_ClassicAlgPolicyEPKmS3_PmEENS_4pairIT0_T2_EES6_T1_S7_, symObjAddr: 0x2DA14, symBinAddr: 0x1000302AC, symSize: 0x44 }
  - { offset: 0x3BB5C, size: 0x8, addend: 0x0, symName: __ZNSt3__123__dispatch_copy_or_moveB8ne180100INS_17_ClassicAlgPolicyENS_11__copy_loopIS1_EENS_14__copy_trivialEPKmS6_PmEENS_4pairIT2_T4_EES9_T3_SA_, symObjAddr: 0x2DA58, symBinAddr: 0x1000302F0, symSize: 0x44 }
  - { offset: 0x3BBDA, size: 0x8, addend: 0x0, symName: __ZNSt3__121__unwrap_and_dispatchB8ne180100INS_10__overloadINS_11__copy_loopINS_17_ClassicAlgPolicyEEENS_14__copy_trivialEEEPKmS8_PmTnNS_9enable_ifIXsr12__can_rewrapIT0_T1_T2_EE5valueEiE4typeELi0EEENS_4pairISB_SD_EESB_SC_SD_, symObjAddr: 0x2DA9C, symBinAddr: 0x100030334, symSize: 0xB4 }
  - { offset: 0x3BD6B, size: 0x8, addend: 0x0, symName: __ZNSt3__19make_pairB8ne180100IPKmPmEENS_4pairINS_18__unwrap_ref_decayIT_E4typeENS5_IT0_E4typeEEEOS6_OS9_, symObjAddr: 0x2DB98, symBinAddr: 0x100030430, symSize: 0x38 }
  - { offset: 0x3BDBA, size: 0x8, addend: 0x0, symName: __ZNSt3__114__rewrap_rangeB8ne180100IPKmS2_EET_S3_T0_, symObjAddr: 0x2DBD0, symBinAddr: 0x100030468, symSize: 0x2C }
  - { offset: 0x3BE06, size: 0x8, addend: 0x0, symName: __ZNSt3__119__copy_trivial_implB8ne180100IKmmEENS_4pairIPT_PT0_EES4_S4_S6_, symObjAddr: 0x2DBFC, symBinAddr: 0x100030494, symSize: 0x80 }
  - { offset: 0x3BE6E, size: 0x8, addend: 0x0, symName: __ZNSt3__119__constexpr_memmoveB8ne180100ImKmTnNS_9enable_ifIXsr23__is_always_bitcastableIT0_T_EE5valueEiE4typeELi0EEEPS4_S7_PS3_NS_15__element_countE, symObjAddr: 0x2DC7C, symBinAddr: 0x100030514, symSize: 0x60 }
  - { offset: 0x3BEDC, size: 0x8, addend: 0x0, symName: __ZNSt3__19make_pairB8ne180100IRPKmPmEENS_4pairINS_18__unwrap_ref_decayIT_E4typeENS6_IT0_E4typeEEEOS7_OSA_, symObjAddr: 0x2DCDC, symBinAddr: 0x100030574, symSize: 0x38 }
  - { offset: 0x3BF2B, size: 0x8, addend: 0x0, symName: __ZNSt3__113__rewrap_iterB8ne180100IPKmS2_NS_18__unwrap_iter_implIS2_Lb1EEEEET_S5_T0_, symObjAddr: 0x2DDF4, symBinAddr: 0x10003068C, symSize: 0x3C }
  - { offset: 0x3BFD3, size: 0x8, addend: 0x0, symName: __ZNSt3__112__to_addressB8ne180100ImEEPT_S2_, symObjAddr: 0x2DEA4, symBinAddr: 0x10003073C, symSize: 0x14 }
  - { offset: 0x3C16B, size: 0x8, addend: 0x0, symName: __ZNSt3__116forward_as_tupleB8ne180100IJ18more_than_specificEEENS_5tupleIJDpOT_EEES5_, symObjAddr: 0x2E998, symBinAddr: 0x100031230, symSize: 0x2C }
  - { offset: 0x3C1A4, size: 0x8, addend: 0x0, symName: __ZNSt3__116forward_as_tupleB8ne180100IJNS_9allocatorI18more_than_specificEEEEENS_5tupleIJDpOT_EEES7_, symObjAddr: 0x2E9C4, symBinAddr: 0x10003125C, symSize: 0x2C }
  - { offset: 0x3C207, size: 0x8, addend: 0x0, symName: __ZNSt3__13getB8ne180100ILm0EJO18more_than_specificEEERNS_13tuple_elementIXT_ENS_5tupleIJDpT0_EEEE4typeERS7_, symObjAddr: 0x2ECDC, symBinAddr: 0x100031574, symSize: 0x24 }
  - { offset: 0x3C24A, size: 0x8, addend: 0x0, symName: __ZNSt3__13getB8ne180100ILm0EJONS_9allocatorI18more_than_specificEEEEERNS_13tuple_elementIXT_ENS_5tupleIJDpT0_EEEE4typeERS9_, symObjAddr: 0x2ED18, symBinAddr: 0x1000315B0, symSize: 0x24 }
  - { offset: 0x3C769, size: 0x8, addend: 0x0, symName: __ZNSt3__116forward_as_tupleB8ne180100IJRK18more_than_specificEEENS_5tupleIJDpOT_EEES7_, symObjAddr: 0x2F2A0, symBinAddr: 0x100031B38, symSize: 0x2C }
  - { offset: 0x3C7B7, size: 0x8, addend: 0x0, symName: __ZNSt3__13getB8ne180100ILm0EJRK18more_than_specificEEERNS_13tuple_elementIXT_ENS_5tupleIJDpT0_EEEE4typeERS8_, symObjAddr: 0x2F490, symBinAddr: 0x100031D28, symSize: 0x24 }
  - { offset: 0x3C7FA, size: 0x8, addend: 0x0, symName: __ZNSt3__116forward_as_tupleB8ne180100IJRKNS_9allocatorI18more_than_specificEEEEENS_5tupleIJDpOT_EEES9_, symObjAddr: 0x2F7DC, symBinAddr: 0x100032074, symSize: 0x2C }
  - { offset: 0x3C848, size: 0x8, addend: 0x0, symName: __ZNSt3__13getB8ne180100ILm0EJRKNS_9allocatorI18more_than_specificEEEEERNS_13tuple_elementIXT_ENS_5tupleIJDpT0_EEEE4typeERSA_, symObjAddr: 0x2F9C0, symBinAddr: 0x100032258, symSize: 0x24 }
  - { offset: 0x3C8DA, size: 0x8, addend: 0x0, symName: __ZNSt3__18__invokeB8ne180100IR18more_than_specificJRKNS_10shared_ptrI4NodeEES7_EEEDTclclsr3stdE7declvalIT_EEspclsr3stdE7declvalIT0_EEEEOS8_DpOS9_, symObjAddr: 0x2FA9C, symBinAddr: 0x100032334, symSize: 0x34 }
  - { offset: 0x3C93F, size: 0x8, addend: 0x0, symName: __ZNSt3__113__countl_zeroB8ne180100ImEEiT_, symObjAddr: 0x2FE54, symBinAddr: 0x1000326EC, symSize: 0x4C }
  - { offset: 0x3C9DA, size: 0x8, addend: 0x0, symName: __ZNSt3__112__to_addressB8ne180100INS_6vectorIdNS_9allocatorIdEEEEEEPT_S6_, symObjAddr: 0x30784, symBinAddr: 0x10003301C, symSize: 0x14 }
  - { offset: 0x3CA0F, size: 0x8, addend: 0x0, symName: __ZNSt3__112__to_addressB8ne180100IiEEPT_S2_, symObjAddr: 0x30B44, symBinAddr: 0x1000333DC, symSize: 0x14 }
  - { offset: 0x3CA44, size: 0x8, addend: 0x0, symName: __ZNSt3__119__allocate_at_leastB8ne180100INS_9allocatorINS_6vectorIdNS1_IdEEEEEEEENS_19__allocation_resultINS_16allocator_traitsIT_E7pointerEEERS8_m, symObjAddr: 0x313AC, symBinAddr: 0x100033C44, symSize: 0x40 }
  - { offset: 0x3CA87, size: 0x8, addend: 0x0, symName: __ZNSt3__142__uninitialized_allocator_move_if_noexceptB8ne180100INS_9allocatorINS_6vectorIdNS1_IdEEEEEENS_16reverse_iteratorIPS4_EES8_S8_EET2_RT_T0_T1_S9_, symObjAddr: 0x31560, symBinAddr: 0x100033DF8, symSize: 0x12C }
  - { offset: 0x3CB27, size: 0x8, addend: 0x0, symName: __ZNSt3__14swapB8ne180100IPNS_6vectorIdNS_9allocatorIdEEEEEENS_9enable_ifIXaasr21is_move_constructibleIT_EE5valuesr18is_move_assignableIS7_EE5valueEvE4typeERS7_SA_, symObjAddr: 0x316D8, symBinAddr: 0x100033F70, symSize: 0x3C }
  - { offset: 0x3CB78, size: 0x8, addend: 0x0, symName: __ZNSt3__122__make_exception_guardB8ne180100INS_29_AllocatorDestroyRangeReverseINS_9allocatorINS_6vectorIdNS2_IdEEEEEENS_16reverse_iteratorIPS5_EEEEEENS_28__exception_guard_exceptionsIT_EESC_, symObjAddr: 0x31728, symBinAddr: 0x100033FC0, symSize: 0x4C }
  - { offset: 0x3CBAE, size: 0x8, addend: 0x0, symName: __ZNSt3__1neB8ne180100IPNS_6vectorIdNS_9allocatorIdEEEES5_EEbRKNS_16reverse_iteratorIT_EERKNS6_IT0_EE, symObjAddr: 0x317B8, symBinAddr: 0x100034050, symSize: 0x44 }
  - { offset: 0x3CBFA, size: 0x8, addend: 0x0, symName: __ZNSt3__112__to_addressB8ne180100INS_16reverse_iteratorIPNS_6vectorIdNS_9allocatorIdEEEEEEvEEu7__decayIDTclsr19__to_address_helperIT_EE6__callclsr3stdE7declvalIRKS8_EEEEESA_, symObjAddr: 0x31830, symBinAddr: 0x1000340C8, symSize: 0x24 }
  - { offset: 0x3CC5A, size: 0x8, addend: 0x0, symName: __ZNSt3__119__allocator_destroyB8ne180100INS_9allocatorINS_6vectorIdNS1_IdEEEEEENS_16reverse_iteratorINS6_IPS4_EEEES9_EEvRT_T0_T1_, symObjAddr: 0x31B0C, symBinAddr: 0x1000343A4, symSize: 0x70 }
  - { offset: 0x3CCBF, size: 0x8, addend: 0x0, symName: __ZNSt3__1neB8ne180100INS_16reverse_iteratorIPNS_6vectorIdNS_9allocatorIdEEEEEES7_EEbRKNS1_IT_EERKNS1_IT0_EE, symObjAddr: 0x31BB8, symBinAddr: 0x100034450, symSize: 0x5C }
  - { offset: 0x3CD0B, size: 0x8, addend: 0x0, symName: __ZNSt3__112__to_addressB8ne180100INS_16reverse_iteratorINS1_IPNS_6vectorIdNS_9allocatorIdEEEEEEEEvEEu7__decayIDTclsr19__to_address_helperIT_EE6__callclsr3stdE7declvalIRKS9_EEEEESB_, symObjAddr: 0x31C14, symBinAddr: 0x1000344AC, symSize: 0x24 }
  - { offset: 0x3CD6A, size: 0x8, addend: 0x0, symName: __ZNSt3__122__make_exception_guardB8ne180100INS_6vectorINS1_IdNS_9allocatorIdEEEENS2_IS4_EEE16__destroy_vectorEEENS_28__exception_guard_exceptionsIT_EES9_, symObjAddr: 0x32160, symBinAddr: 0x1000349F8, symSize: 0x40 }
  - { offset: 0x3CD9F, size: 0x8, addend: 0x0, symName: __ZNSt3__130__uninitialized_allocator_copyB8ne180100INS_9allocatorINS_6vectorIdNS1_IdEEEEEEPS4_S6_S6_EET2_RT_T0_T1_S7_, symObjAddr: 0x3237C, symBinAddr: 0x100034C14, symSize: 0x80 }
  - { offset: 0x3CE3C, size: 0x8, addend: 0x0, symName: __ZNSt3__114__unwrap_rangeB8ne180100IPNS_6vectorIdNS_9allocatorIdEEEES5_EENS_4pairIT0_S7_EET_S9_, symObjAddr: 0x323FC, symBinAddr: 0x100034C94, symSize: 0x60 }
  - { offset: 0x3CE88, size: 0x8, addend: 0x0, symName: __ZNSt3__135__uninitialized_allocator_copy_implB8ne180100INS_9allocatorINS_6vectorIdNS1_IdEEEEEEPS4_S6_S6_EET2_RT_T0_T1_S7_, symObjAddr: 0x3245C, symBinAddr: 0x100034CF4, symSize: 0xF0 }
  - { offset: 0x3CF26, size: 0x8, addend: 0x0, symName: __ZNSt3__113__unwrap_iterB8ne180100IPNS_6vectorIdNS_9allocatorIdEEEENS_18__unwrap_iter_implIS5_Lb1EEETnNS_9enable_ifIXsr21is_copy_constructibleIT_EE5valueEiE4typeELi0EEEDTclsrT0_8__unwrapclsr3stdE7declvalIS9_EEEES9_, symObjAddr: 0x3254C, symBinAddr: 0x100034DE4, symSize: 0x24 }
  - { offset: 0x3CF6A, size: 0x8, addend: 0x0, symName: __ZNSt3__113__rewrap_iterB8ne180100IPNS_6vectorIdNS_9allocatorIdEEEES5_NS_18__unwrap_iter_implIS5_Lb1EEEEET_S8_T0_, symObjAddr: 0x32570, symBinAddr: 0x100034E08, symSize: 0x3C }
  - { offset: 0x3CFBF, size: 0x8, addend: 0x0, symName: __ZNSt3__19make_pairB8ne180100IPNS_6vectorIdNS_9allocatorIdEEEES5_EENS_4pairINS_18__unwrap_ref_decayIT_E4typeENS7_IT0_E4typeEEEOS8_OSB_, symObjAddr: 0x325AC, symBinAddr: 0x100034E44, symSize: 0x38 }
  - { offset: 0x3D0E2, size: 0x8, addend: 0x0, symName: __ZNSt3__122__make_exception_guardB8ne180100INS_29_AllocatorDestroyRangeReverseINS_9allocatorINS_6vectorIdNS2_IdEEEEEEPS5_EEEENS_28__exception_guard_exceptionsIT_EESA_, symObjAddr: 0x32654, symBinAddr: 0x100034EEC, symSize: 0x4C }
  - { offset: 0x3D119, size: 0x8, addend: 0x0, symName: __ZNSt3__119__allocator_destroyB8ne180100INS_9allocatorINS_6vectorIdNS1_IdEEEEEENS_16reverse_iteratorIPS4_EES8_EEvRT_T0_T1_, symObjAddr: 0x328E4, symBinAddr: 0x10003517C, symSize: 0x70 }
  - { offset: 0x3D1CF, size: 0x8, addend: 0x0, symName: __ZNSt3__119__allocate_at_leastB8ne180100INS_9allocatorIiEEEENS_19__allocation_resultINS_16allocator_traitsIT_E7pointerEEERS5_m, symObjAddr: 0x33364, symBinAddr: 0x100035BFC, symSize: 0x40 }
  - { offset: 0x3D212, size: 0x8, addend: 0x0, symName: __ZNSt3__142__uninitialized_allocator_move_if_noexceptB8ne180100INS_9allocatorIiEENS_16reverse_iteratorIPiEES5_ivEET1_RT_T0_S9_S6_, symObjAddr: 0x33514, symBinAddr: 0x100035DAC, symSize: 0x78 }
  - { offset: 0x3D290, size: 0x8, addend: 0x0, symName: __ZNSt3__14swapB8ne180100IPiEENS_9enable_ifIXaasr21is_move_constructibleIT_EE5valuesr18is_move_assignableIS3_EE5valueEvE4typeERS3_S6_, symObjAddr: 0x335D8, symBinAddr: 0x100035E70, symSize: 0x3C }
  - { offset: 0x3D2E1, size: 0x8, addend: 0x0, symName: __ZNSt3__14moveB8ne180100INS_16reverse_iteratorIPiEES3_EET0_T_S5_S4_, symObjAddr: 0x33628, symBinAddr: 0x100035EC0, symSize: 0x78 }
  - { offset: 0x3D33B, size: 0x8, addend: 0x0, symName: __ZNSt3__16__moveB8ne180100INS_17_ClassicAlgPolicyENS_16reverse_iteratorIPiEES4_S4_EENS_4pairIT0_T2_EES6_T1_S7_, symObjAddr: 0x336A0, symBinAddr: 0x100035F38, symSize: 0x64 }
  - { offset: 0x3D3A7, size: 0x8, addend: 0x0, symName: __ZNSt3__123__dispatch_copy_or_moveB8ne180100INS_17_ClassicAlgPolicyENS_11__move_loopIS1_EENS_14__move_trivialENS_16reverse_iteratorIPiEES7_S7_EENS_4pairIT2_T4_EES9_T3_SA_, symObjAddr: 0x33704, symBinAddr: 0x100035F9C, symSize: 0x64 }
  - { offset: 0x3D425, size: 0x8, addend: 0x0, symName: __ZNSt3__121__unwrap_and_dispatchB8ne180100INS_10__overloadINS_11__move_loopINS_17_ClassicAlgPolicyEEENS_14__move_trivialEEENS_16reverse_iteratorIPiEES9_S9_TnNS_9enable_ifIXsr12__can_rewrapIT0_T1_T2_EE5valueEiE4typeELi0EEENS_4pairISB_SD_EESB_SC_SD_, symObjAddr: 0x33768, symBinAddr: 0x100036000, symSize: 0x12C }
  - { offset: 0x3D4B5, size: 0x8, addend: 0x0, symName: __ZNSt3__114__unwrap_rangeB8ne180100INS_16reverse_iteratorIPiEES3_EENS_4pairIT0_S5_EET_S7_, symObjAddr: 0x33894, symBinAddr: 0x10003612C, symSize: 0x84 }
  - { offset: 0x3D5D5, size: 0x8, addend: 0x0, symName: __ZNSt3__113__unwrap_iterB8ne180100INS_16reverse_iteratorIPiEENS_18__unwrap_iter_implIS3_Lb0EEETnNS_9enable_ifIXsr21is_copy_constructibleIT_EE5valueEiE4typeELi0EEEDTclsrT0_8__unwrapclsr3stdE7declvalIS7_EEEES7_, symObjAddr: 0x339B8, symBinAddr: 0x100036250, symSize: 0x44 }
  - { offset: 0x3D619, size: 0x8, addend: 0x0, symName: __ZNSt3__19make_pairB8ne180100INS_16reverse_iteratorIPiEES3_EENS_4pairINS_18__unwrap_ref_decayIT_E4typeENS5_IT0_E4typeEEEOS6_OS9_, symObjAddr: 0x339FC, symBinAddr: 0x100036294, symSize: 0x38 }
  - { offset: 0x3D668, size: 0x8, addend: 0x0, symName: __ZNSt3__114__rewrap_rangeB8ne180100INS_16reverse_iteratorIPiEES3_EET_S4_T0_, symObjAddr: 0x33A34, symBinAddr: 0x1000362CC, symSize: 0x5C }
  - { offset: 0x3D6B4, size: 0x8, addend: 0x0, symName: __ZNSt3__113__rewrap_iterB8ne180100INS_16reverse_iteratorIPiEES3_NS_18__unwrap_iter_implIS3_Lb0EEEEET_S6_T0_, symObjAddr: 0x33A90, symBinAddr: 0x100036328, symSize: 0x74 }
  - { offset: 0x3D709, size: 0x8, addend: 0x0, symName: __ZNSt3__1neB8ne180100IPiS1_EEbRKNS_16reverse_iteratorIT_EERKNS2_IT0_EE, symObjAddr: 0x33B04, symBinAddr: 0x10003639C, symSize: 0x44 }
  - { offset: 0x3D7A8, size: 0x8, addend: 0x0, symName: __ZNSt3__142__uninitialized_allocator_move_if_noexceptB8ne180100INS_9allocatorINS_6vectorINS2_IdNS1_IdEEEENS1_IS4_EEEEEENS_16reverse_iteratorIPS6_EESA_SA_EET2_RT_T0_T1_SB_, symObjAddr: 0x34458, symBinAddr: 0x100036CF0, symSize: 0x11C }
  - { offset: 0x3D848, size: 0x8, addend: 0x0, symName: __ZNSt3__14swapB8ne180100IPNS_6vectorINS1_IdNS_9allocatorIdEEEENS2_IS4_EEEEEENS_9enable_ifIXaasr21is_move_constructibleIT_EE5valuesr18is_move_assignableIS9_EE5valueEvE4typeERS9_SC_, symObjAddr: 0x34574, symBinAddr: 0x100036E0C, symSize: 0x3C }
  - { offset: 0x3D899, size: 0x8, addend: 0x0, symName: __ZNSt3__122__make_exception_guardB8ne180100INS_29_AllocatorDestroyRangeReverseINS_9allocatorINS_6vectorINS3_IdNS2_IdEEEENS2_IS5_EEEEEENS_16reverse_iteratorIPS7_EEEEEENS_28__exception_guard_exceptionsIT_EESE_, symObjAddr: 0x345B0, symBinAddr: 0x100036E48, symSize: 0x4C }
  - { offset: 0x3D8D0, size: 0x8, addend: 0x0, symName: __ZNSt3__119__allocator_destroyB8ne180100INS_9allocatorINS_6vectorINS2_IdNS1_IdEEEENS1_IS4_EEEEEENS_16reverse_iteratorINS8_IPS6_EEEESB_EEvRT_T0_T1_, symObjAddr: 0x34980, symBinAddr: 0x100037218, symSize: 0x70 }
  - { offset: 0x3D935, size: 0x8, addend: 0x0, symName: __ZNSt3__1neB8ne180100INS_16reverse_iteratorIPNS_6vectorINS2_IdNS_9allocatorIdEEEENS3_IS5_EEEEEES9_EEbRKNS1_IT_EERKNS1_IT0_EE, symObjAddr: 0x34A2C, symBinAddr: 0x1000372C4, symSize: 0x5C }
  - { offset: 0x3D981, size: 0x8, addend: 0x0, symName: __ZNSt3__112__to_addressB8ne180100INS_16reverse_iteratorINS1_IPNS_6vectorINS2_IdNS_9allocatorIdEEEENS3_IS5_EEEEEEEEvEEu7__decayIDTclsr19__to_address_helperIT_EE6__callclsr3stdE7declvalIRKSB_EEEEESD_, symObjAddr: 0x34A88, symBinAddr: 0x100037320, symSize: 0x24 }
  - { offset: 0x3D9E1, size: 0x8, addend: 0x0, symName: __ZNSt3__116__swap_allocatorB8ne180100INS_9allocatorINS_6vectorIdNS1_IdEEEEEEEEvRT_S7_NS_17integral_constantIbLb0EEE, symObjAddr: 0x34FB8, symBinAddr: 0x100037850, symSize: 0x14 }
  - { offset: 0x3DA22, size: 0x8, addend: 0x0, symName: __ZNSt3__14copyB8ne180100IPKcPcEET0_T_S5_S4_, symObjAddr: 0x3550C, symBinAddr: 0x100037DA4, symSize: 0x40 }
  - { offset: 0x3DA7C, size: 0x8, addend: 0x0, symName: __ZNSt3__16__copyB8ne180100INS_17_ClassicAlgPolicyEPKcS3_PcEENS_4pairIT0_T2_EES6_T1_S7_, symObjAddr: 0x3554C, symBinAddr: 0x100037DE4, symSize: 0x44 }
  - { offset: 0x3DAE8, size: 0x8, addend: 0x0, symName: __ZNSt3__123__dispatch_copy_or_moveB8ne180100INS_17_ClassicAlgPolicyENS_11__copy_loopIS1_EENS_14__copy_trivialEPKcS6_PcEENS_4pairIT2_T4_EES9_T3_SA_, symObjAddr: 0x35590, symBinAddr: 0x100037E28, symSize: 0x44 }
  - { offset: 0x3DB66, size: 0x8, addend: 0x0, symName: __ZNSt3__121__unwrap_and_dispatchB8ne180100INS_10__overloadINS_11__copy_loopINS_17_ClassicAlgPolicyEEENS_14__copy_trivialEEEPKcS8_PcTnNS_9enable_ifIXsr12__can_rewrapIT0_T1_T2_EE5valueEiE4typeELi0EEENS_4pairISB_SD_EESB_SC_SD_, symObjAddr: 0x355D4, symBinAddr: 0x100037E6C, symSize: 0xB4 }
  - { offset: 0x3DBF4, size: 0x8, addend: 0x0, symName: __ZNSt3__114__unwrap_rangeB8ne180100IPKcS2_EENS_4pairIT0_S4_EET_S6_, symObjAddr: 0x35688, symBinAddr: 0x100037F20, symSize: 0x60 }
  - { offset: 0x3DD43, size: 0x8, addend: 0x0, symName: __ZNSt3__19make_pairB8ne180100IPKcPcEENS_4pairINS_18__unwrap_ref_decayIT_E4typeENS5_IT0_E4typeEEEOS6_OS9_, symObjAddr: 0x35730, symBinAddr: 0x100037FC8, symSize: 0x38 }
  - { offset: 0x3DD92, size: 0x8, addend: 0x0, symName: __ZNSt3__114__rewrap_rangeB8ne180100IPKcS2_EET_S3_T0_, symObjAddr: 0x35768, symBinAddr: 0x100038000, symSize: 0x2C }
  - { offset: 0x3DDDE, size: 0x8, addend: 0x0, symName: __ZNSt3__19make_pairB8ne180100IPKcS2_EENS_4pairINS_18__unwrap_ref_decayIT_E4typeENS4_IT0_E4typeEEEOS5_OS8_, symObjAddr: 0x35794, symBinAddr: 0x10003802C, symSize: 0x38 }
  - { offset: 0x3DE2D, size: 0x8, addend: 0x0, symName: __ZNSt3__113__unwrap_iterB8ne180100IPKcNS_18__unwrap_iter_implIS2_Lb1EEETnNS_9enable_ifIXsr21is_copy_constructibleIT_EE5valueEiE4typeELi0EEEDTclsrT0_8__unwrapclsr3stdE7declvalIS6_EEEES6_, symObjAddr: 0x357CC, symBinAddr: 0x100038064, symSize: 0x24 }
  - { offset: 0x3DF98, size: 0x8, addend: 0x0, symName: __ZNSt3__119__copy_trivial_implB8ne180100IKccEENS_4pairIPT_PT0_EES4_S4_S6_, symObjAddr: 0x35884, symBinAddr: 0x10003811C, symSize: 0x78 }
  - { offset: 0x3E000, size: 0x8, addend: 0x0, symName: __ZNSt3__119__constexpr_memmoveB8ne180100IcKcTnNS_9enable_ifIXsr23__is_always_bitcastableIT0_T_EE5valueEiE4typeELi0EEEPS4_S7_PS3_NS_15__element_countE, symObjAddr: 0x358FC, symBinAddr: 0x100038194, symSize: 0x60 }
  - { offset: 0x3E06E, size: 0x8, addend: 0x0, symName: __ZNSt3__19make_pairB8ne180100IRPKcPcEENS_4pairINS_18__unwrap_ref_decayIT_E4typeENS6_IT0_E4typeEEEOS7_OSA_, symObjAddr: 0x3595C, symBinAddr: 0x1000381F4, symSize: 0x38 }
  - { offset: 0x3E0BD, size: 0x8, addend: 0x0, symName: __ZNSt3__113__rewrap_iterB8ne180100IPKcS2_NS_18__unwrap_iter_implIS2_Lb1EEEEET_S5_T0_, symObjAddr: 0x35A74, symBinAddr: 0x10003830C, symSize: 0x3C }
  - { offset: 0x3E112, size: 0x8, addend: 0x0, symName: __ZNSt3__16fill_nB8ne180100IPcmcEET_S2_T0_RKT1_, symObjAddr: 0x35AF8, symBinAddr: 0x100038390, symSize: 0x44 }
  - { offset: 0x3E175, size: 0x8, addend: 0x0, symName: __ZNSt3__18__fill_nB8ne180100IPcmcEET_S2_T0_RKT1_, symObjAddr: 0x35B3C, symBinAddr: 0x1000383D4, symSize: 0x60 }
  - { offset: 0x3E1D8, size: 0x8, addend: 0x0, symName: __ZNSt3__121__convert_to_integralB8ne180100Em, symObjAddr: 0x35B9C, symBinAddr: 0x100038434, symSize: 0x14 }
  - { offset: 0x3E204, size: 0x8, addend: 0x0, symName: __ZNSt3__112__to_addressB8ne180100I3logEEPT_S3_, symObjAddr: 0x36008, symBinAddr: 0x1000388A0, symSize: 0x14 }
  - { offset: 0x3E239, size: 0x8, addend: 0x0, symName: __ZNSt3__1neB8ne180100ERKNS_21__hash_const_iteratorIPNS_11__hash_nodeINS_17__hash_value_typeINS_12basic_stringIcNS_11char_traitsIcEENS_9allocatorIcEEEENS_6vectorINS9_ImNS6_ImEEEENS6_ISB_EEEEEEPvEEEESK_, symObjAddr: 0x36264, symBinAddr: 0x100038AFC, symSize: 0x30 }
  - { offset: 0x3E277, size: 0x8, addend: 0x0, symName: __ZNSt3__1eqB8ne180100ERKNS_21__hash_const_iteratorIPNS_11__hash_nodeINS_17__hash_value_typeINS_12basic_stringIcNS_11char_traitsIcEENS_9allocatorIcEEEENS_6vectorINS9_ImNS6_ImEEEENS6_ISB_EEEEEEPvEEEESK_, symObjAddr: 0x36294, symBinAddr: 0x100038B2C, symSize: 0x2C }
  - { offset: 0x3E2E7, size: 0x8, addend: 0x0, symName: __ZNSt3__130__uninitialized_allocator_copyB8ne180100INS_9allocatorImEEPmS3_S3_EET2_RT_T0_T1_S4_, symObjAddr: 0x365B4, symBinAddr: 0x100038E4C, symSize: 0x80 }
  - { offset: 0x3E384, size: 0x8, addend: 0x0, symName: __ZNSt3__114__unwrap_rangeB8ne180100IPmS1_EENS_4pairIT0_S3_EET_S5_, symObjAddr: 0x36634, symBinAddr: 0x100038ECC, symSize: 0x60 }
  - { offset: 0x3E3D0, size: 0x8, addend: 0x0, symName: __ZNSt3__135__uninitialized_allocator_copy_implB8ne180100INS_9allocatorImEEmmmTnPNS_9enable_ifIXaaaaaasr31is_trivially_copy_constructibleIT1_EE5valuesr28is_trivially_copy_assignableIS4_EE5valuesr7is_sameIu14__remove_constIT0_Eu14__remove_constIT2_EEE5valuesr38__allocator_has_trivial_copy_constructIT_S4_EE5valueEvE4typeELPv0EEEPS7_RS9_PS5_SG_SE_, symObjAddr: 0x36694, symBinAddr: 0x100038F2C, symSize: 0x38 }
  - { offset: 0x3E452, size: 0x8, addend: 0x0, symName: __ZNSt3__19make_pairB8ne180100IPmS1_EENS_4pairINS_18__unwrap_ref_decayIT_E4typeENS3_IT0_E4typeEEEOS4_OS7_, symObjAddr: 0x366CC, symBinAddr: 0x100038F64, symSize: 0x38 }
  - { offset: 0x3E5A4, size: 0x8, addend: 0x0, symName: __ZNSt3__14copyB8ne180100IPmS1_EET0_T_S3_S2_, symObjAddr: 0x36774, symBinAddr: 0x10003900C, symSize: 0x40 }
  - { offset: 0x3E5FE, size: 0x8, addend: 0x0, symName: __ZNSt3__16__copyB8ne180100INS_17_ClassicAlgPolicyEPmS2_S2_EENS_4pairIT0_T2_EES4_T1_S5_, symObjAddr: 0x367B4, symBinAddr: 0x10003904C, symSize: 0x44 }
  - { offset: 0x3E66A, size: 0x8, addend: 0x0, symName: __ZNSt3__123__dispatch_copy_or_moveB8ne180100INS_17_ClassicAlgPolicyENS_11__copy_loopIS1_EENS_14__copy_trivialEPmS5_S5_EENS_4pairIT2_T4_EES7_T3_S8_, symObjAddr: 0x367F8, symBinAddr: 0x100039090, symSize: 0x44 }
  - { offset: 0x3E6E8, size: 0x8, addend: 0x0, symName: __ZNSt3__121__unwrap_and_dispatchB8ne180100INS_10__overloadINS_11__copy_loopINS_17_ClassicAlgPolicyEEENS_14__copy_trivialEEEPmS7_S7_TnNS_9enable_ifIXsr12__can_rewrapIT0_T1_T2_EE5valueEiE4typeELi0EEENS_4pairIS9_SB_EES9_SA_SB_, symObjAddr: 0x3683C, symBinAddr: 0x1000390D4, symSize: 0xB4 }
  - { offset: 0x3E776, size: 0x8, addend: 0x0, symName: __ZNSt3__114__rewrap_rangeB8ne180100IPmS1_EET_S2_T0_, symObjAddr: 0x36938, symBinAddr: 0x1000391D0, symSize: 0x2C }
  - { offset: 0x3E7C2, size: 0x8, addend: 0x0, symName: __ZNSt3__119__copy_trivial_implB8ne180100ImmEENS_4pairIPT_PT0_EES3_S3_S5_, symObjAddr: 0x36964, symBinAddr: 0x1000391FC, symSize: 0x80 }
  - { offset: 0x3E82A, size: 0x8, addend: 0x0, symName: __ZNSt3__119__constexpr_memmoveB8ne180100ImmTnNS_9enable_ifIXsr23__is_always_bitcastableIT0_T_EE5valueEiE4typeELi0EEEPS3_S6_PS2_NS_15__element_countE, symObjAddr: 0x369E4, symBinAddr: 0x10003927C, symSize: 0x60 }
  - { offset: 0x3E898, size: 0x8, addend: 0x0, symName: __ZNSt3__19make_pairB8ne180100IRPmS1_EENS_4pairINS_18__unwrap_ref_decayIT_E4typeENS4_IT0_E4typeEEEOS5_OS8_, symObjAddr: 0x36A44, symBinAddr: 0x1000392DC, symSize: 0x38 }
  - { offset: 0x3E8E7, size: 0x8, addend: 0x0, symName: __ZNSt3__130__uninitialized_allocator_copyB8ne180100INS_9allocatorINS_6vectorINS2_IdNS1_IdEEEENS1_IS4_EEEEEEPS6_S8_S8_EET2_RT_T0_T1_S9_, symObjAddr: 0x37324, symBinAddr: 0x100039BBC, symSize: 0x80 }
  - { offset: 0x3E984, size: 0x8, addend: 0x0, symName: __ZNSt3__114__unwrap_rangeB8ne180100IPNS_6vectorINS1_IdNS_9allocatorIdEEEENS2_IS4_EEEES7_EENS_4pairIT0_S9_EET_SB_, symObjAddr: 0x373A4, symBinAddr: 0x100039C3C, symSize: 0x60 }
  - { offset: 0x3E9D0, size: 0x8, addend: 0x0, symName: __ZNSt3__135__uninitialized_allocator_copy_implB8ne180100INS_9allocatorINS_6vectorINS2_IdNS1_IdEEEENS1_IS4_EEEEEEPS6_S8_S8_EET2_RT_T0_T1_S9_, symObjAddr: 0x37404, symBinAddr: 0x100039C9C, symSize: 0xF0 }
  - { offset: 0x3EA6E, size: 0x8, addend: 0x0, symName: __ZNSt3__19make_pairB8ne180100IPNS_6vectorINS1_IdNS_9allocatorIdEEEENS2_IS4_EEEES7_EENS_4pairINS_18__unwrap_ref_decayIT_E4typeENS9_IT0_E4typeEEEOSA_OSD_, symObjAddr: 0x374F4, symBinAddr: 0x100039D8C, symSize: 0x38 }
  - { offset: 0x3EB91, size: 0x8, addend: 0x0, symName: __ZNSt3__122__make_exception_guardB8ne180100INS_6vectorIiNS_9allocatorIiEEE16__destroy_vectorEEENS_28__exception_guard_exceptionsIT_EES7_, symObjAddr: 0x377F0, symBinAddr: 0x10003A088, symSize: 0x40 }
  - { offset: 0x3EBC6, size: 0x8, addend: 0x0, symName: __ZNSt3__130__uninitialized_allocator_copyB8ne180100INS_9allocatorIiEEPiS3_S3_EET2_RT_T0_T1_S4_, symObjAddr: 0x37A04, symBinAddr: 0x10003A29C, symSize: 0x80 }
  - { offset: 0x3EC63, size: 0x8, addend: 0x0, symName: __ZNSt3__114__unwrap_rangeB8ne180100IPiS1_EENS_4pairIT0_S3_EET_S5_, symObjAddr: 0x37A84, symBinAddr: 0x10003A31C, symSize: 0x60 }
  - { offset: 0x3ECAF, size: 0x8, addend: 0x0, symName: __ZNSt3__135__uninitialized_allocator_copy_implB8ne180100INS_9allocatorIiEEiiiTnPNS_9enable_ifIXaaaaaasr31is_trivially_copy_constructibleIT1_EE5valuesr28is_trivially_copy_assignableIS4_EE5valuesr7is_sameIu14__remove_constIT0_Eu14__remove_constIT2_EEE5valuesr38__allocator_has_trivial_copy_constructIT_S4_EE5valueEvE4typeELPv0EEEPS7_RS9_PS5_SG_SE_, symObjAddr: 0x37AE4, symBinAddr: 0x10003A37C, symSize: 0x38 }
  - { offset: 0x3ED31, size: 0x8, addend: 0x0, symName: __ZNSt3__113__unwrap_iterB8ne180100IPiNS_18__unwrap_iter_implIS1_Lb1EEETnNS_9enable_ifIXsr21is_copy_constructibleIT_EE5valueEiE4typeELi0EEEDTclsrT0_8__unwrapclsr3stdE7declvalIS5_EEEES5_, symObjAddr: 0x37B1C, symBinAddr: 0x10003A3B4, symSize: 0x24 }
  - { offset: 0x3ED75, size: 0x8, addend: 0x0, symName: __ZNSt3__113__rewrap_iterB8ne180100IPiS1_NS_18__unwrap_iter_implIS1_Lb1EEEEET_S4_T0_, symObjAddr: 0x37B40, symBinAddr: 0x10003A3D8, symSize: 0x3C }
  - { offset: 0x3EDCA, size: 0x8, addend: 0x0, symName: __ZNSt3__19make_pairB8ne180100IPiS1_EENS_4pairINS_18__unwrap_ref_decayIT_E4typeENS3_IT0_E4typeEEEOS4_OS7_, symObjAddr: 0x37B7C, symBinAddr: 0x10003A414, symSize: 0x38 }
  - { offset: 0x3EF1C, size: 0x8, addend: 0x0, symName: __ZNSt3__14copyB8ne180100IPiS1_EET0_T_S3_S2_, symObjAddr: 0x37C24, symBinAddr: 0x10003A4BC, symSize: 0x40 }
  - { offset: 0x3EF76, size: 0x8, addend: 0x0, symName: __ZNSt3__16__copyB8ne180100INS_17_ClassicAlgPolicyEPiS2_S2_EENS_4pairIT0_T2_EES4_T1_S5_, symObjAddr: 0x37C64, symBinAddr: 0x10003A4FC, symSize: 0x44 }
  - { offset: 0x3EFE2, size: 0x8, addend: 0x0, symName: __ZNSt3__123__dispatch_copy_or_moveB8ne180100INS_17_ClassicAlgPolicyENS_11__copy_loopIS1_EENS_14__copy_trivialEPiS5_S5_EENS_4pairIT2_T4_EES7_T3_S8_, symObjAddr: 0x37CA8, symBinAddr: 0x10003A540, symSize: 0x44 }
  - { offset: 0x3F060, size: 0x8, addend: 0x0, symName: __ZNSt3__121__unwrap_and_dispatchB8ne180100INS_10__overloadINS_11__copy_loopINS_17_ClassicAlgPolicyEEENS_14__copy_trivialEEEPiS7_S7_TnNS_9enable_ifIXsr12__can_rewrapIT0_T1_T2_EE5valueEiE4typeELi0EEENS_4pairIS9_SB_EES9_SA_SB_, symObjAddr: 0x37CEC, symBinAddr: 0x10003A584, symSize: 0xB4 }
  - { offset: 0x3F0EE, size: 0x8, addend: 0x0, symName: __ZNSt3__114__rewrap_rangeB8ne180100IPiS1_EET_S2_T0_, symObjAddr: 0x37DE8, symBinAddr: 0x10003A680, symSize: 0x2C }
  - { offset: 0x3F13A, size: 0x8, addend: 0x0, symName: __ZNSt3__119__copy_trivial_implB8ne180100IiiEENS_4pairIPT_PT0_EES3_S3_S5_, symObjAddr: 0x37E14, symBinAddr: 0x10003A6AC, symSize: 0x80 }
  - { offset: 0x3F1A2, size: 0x8, addend: 0x0, symName: __ZNSt3__119__constexpr_memmoveB8ne180100IiiTnNS_9enable_ifIXsr23__is_always_bitcastableIT0_T_EE5valueEiE4typeELi0EEEPS3_S6_PS2_NS_15__element_countE, symObjAddr: 0x37E94, symBinAddr: 0x10003A72C, symSize: 0x60 }
  - { offset: 0x3F210, size: 0x8, addend: 0x0, symName: __ZNSt3__19make_pairB8ne180100IRPiS1_EENS_4pairINS_18__unwrap_ref_decayIT_E4typeENS4_IT0_E4typeEEEOS5_OS8_, symObjAddr: 0x37EF4, symBinAddr: 0x10003A78C, symSize: 0x38 }
  - { offset: 0x3F2B2, size: 0x8, addend: 0x0, symName: __ZNSt3__119__allocate_at_leastB8ne180100INS_9allocatorI3logEEEENS_19__allocation_resultINS_16allocator_traitsIT_E7pointerEEERS6_m, symObjAddr: 0x384D0, symBinAddr: 0x10003AD68, symSize: 0x40 }
  - { offset: 0x3F2F5, size: 0x8, addend: 0x0, symName: __ZNSt3__142__uninitialized_allocator_move_if_noexceptB8ne180100INS_9allocatorI3logEENS_16reverse_iteratorIPS2_EES6_S6_EET2_RT_T0_T1_S7_, symObjAddr: 0x38684, symBinAddr: 0x10003AF1C, symSize: 0x12C }
  - { offset: 0x3F395, size: 0x8, addend: 0x0, symName: __ZNSt3__14swapB8ne180100IP3logEENS_9enable_ifIXaasr21is_move_constructibleIT_EE5valuesr18is_move_assignableIS4_EE5valueEvE4typeERS4_S7_, symObjAddr: 0x387FC, symBinAddr: 0x10003B094, symSize: 0x3C }
  - { offset: 0x3F3E6, size: 0x8, addend: 0x0, symName: __ZNSt3__122__make_exception_guardB8ne180100INS_29_AllocatorDestroyRangeReverseINS_9allocatorI3logEENS_16reverse_iteratorIPS3_EEEEEENS_28__exception_guard_exceptionsIT_EESA_, symObjAddr: 0x3884C, symBinAddr: 0x10003B0E4, symSize: 0x4C }
  - { offset: 0x3F41C, size: 0x8, addend: 0x0, symName: __ZNSt3__1neB8ne180100IP3logS2_EEbRKNS_16reverse_iteratorIT_EERKNS3_IT0_EE, symObjAddr: 0x388DC, symBinAddr: 0x10003B174, symSize: 0x44 }
  - { offset: 0x3F468, size: 0x8, addend: 0x0, symName: __ZNSt3__112__to_addressB8ne180100INS_16reverse_iteratorIP3logEEvEEu7__decayIDTclsr19__to_address_helperIT_EE6__callclsr3stdE7declvalIRKS5_EEEEES7_, symObjAddr: 0x38954, symBinAddr: 0x10003B1EC, symSize: 0x24 }
  - { offset: 0x3F4C8, size: 0x8, addend: 0x0, symName: __ZNSt3__119__allocator_destroyB8ne180100INS_9allocatorI3logEENS_16reverse_iteratorINS4_IPS2_EEEES7_EEvRT_T0_T1_, symObjAddr: 0x38F3C, symBinAddr: 0x10003B7D4, symSize: 0x70 }
  - { offset: 0x3F52D, size: 0x8, addend: 0x0, symName: __ZNSt3__1neB8ne180100INS_16reverse_iteratorIP3logEES4_EEbRKNS1_IT_EERKNS1_IT0_EE, symObjAddr: 0x38FE8, symBinAddr: 0x10003B880, symSize: 0x5C }
  - { offset: 0x3F579, size: 0x8, addend: 0x0, symName: __ZNSt3__112__to_addressB8ne180100INS_16reverse_iteratorINS1_IP3logEEEEvEEu7__decayIDTclsr19__to_address_helperIT_EE6__callclsr3stdE7declvalIRKS6_EEEEES8_, symObjAddr: 0x39044, symBinAddr: 0x10003B8DC, symSize: 0x24 }
  - { offset: 0x3F5D8, size: 0x8, addend: 0x0, symName: __ZNSt3__118generate_canonicalB8ne180100IdLm53ENS_26linear_congruential_engineIjLj48271ELj0ELj2147483647EEEEET_RT1_, symObjAddr: 0x395AC, symBinAddr: 0x10003BE44, symSize: 0x118 }
  - { offset: 0x41523, size: 0x8, addend: 0x0, symName: __ZSt28__throw_bad_array_new_lengthB8ne180100v, symObjAddr: 0xD4BC, symBinAddr: 0x10000FD54, symSize: 0x34 }
  - { offset: 0x4281B, size: 0x8, addend: 0x0, symName: __ZNSt3__16vectorINS_10shared_ptrI4NodeEENS_9allocatorIS3_EEE26__swap_out_circular_bufferERNS_14__split_bufferIS3_RS5_EE, symObjAddr: 0xF45C, symBinAddr: 0x100011CF4, symSize: 0x110 }
  - { offset: 0x430B9, size: 0x8, addend: 0x0, symName: __ZNKSt3__16chrono15__duration_castINS0_8durationIxNS_5ratioILl1ELl1000000000EEEEENS2_IxNS3_ILl1ELl1000EEEEENS3_ILl1ELl1000000EEELb1ELb0EEclB8ne180100ERKS5_, symObjAddr: 0x135FC, symBinAddr: 0x100015E94, symSize: 0x48 }
  - { offset: 0x4377D, size: 0x8, addend: 0x0, symName: __ZNSt3__16vectorI4EdgeNS_9allocatorIS1_EEE26__swap_out_circular_bufferERNS_14__split_bufferIS1_RS3_EE, symObjAddr: 0x191AC, symBinAddr: 0x10001BA44, symSize: 0x110 }
  - { offset: 0x43805, size: 0x8, addend: 0x0, symName: __ZNSt3__16vectorIdNS_9allocatorIdEEE26__swap_out_circular_bufferERNS_14__split_bufferIdRS2_EE, symObjAddr: 0x1A9D0, symBinAddr: 0x10001D268, symSize: 0x110 }
  - { offset: 0x43A44, size: 0x8, addend: 0x0, symName: __ZNSt3__16vectorINS_12basic_stringIcNS_11char_traitsIcEENS_9allocatorIcEEEENS4_IS6_EEE26__swap_out_circular_bufferERNS_14__split_bufferIS6_RS7_EE, symObjAddr: 0x1C064, symBinAddr: 0x10001E8FC, symSize: 0x110 }
  - { offset: 0x441DB, size: 0x8, addend: 0x0, symName: __ZNSt3__16vectorI4EdgeNS_9allocatorIS1_EEE26__swap_out_circular_bufferERNS_14__split_bufferIS1_RS3_EEPS1_, symObjAddr: 0x237C0, symBinAddr: 0x100026058, symSize: 0x14C }
  - { offset: 0x44D1F, size: 0x8, addend: 0x0, symName: __ZNSt3__16vectorINS0_ImNS_9allocatorImEEEENS1_IS3_EEE26__swap_out_circular_bufferERNS_14__split_bufferIS3_RS4_EE, symObjAddr: 0x2C1A4, symBinAddr: 0x10002EA3C, symSize: 0x110 }
  - { offset: 0x45066, size: 0x8, addend: 0x0, symName: __ZNSt3__124uniform_int_distributionImEclINS_26linear_congruential_engineIjLj48271ELj0ELj2147483647EEEEEmRT_RKNS1_10param_typeE, symObjAddr: 0x2FC64, symBinAddr: 0x1000324FC, symSize: 0x160 }
  - { offset: 0x452DB, size: 0x8, addend: 0x0, symName: __ZNSt3__16vectorINS0_IdNS_9allocatorIdEEEENS1_IS3_EEE26__swap_out_circular_bufferERNS_14__split_bufferIS3_RS4_EE, symObjAddr: 0x31044, symBinAddr: 0x1000338DC, symSize: 0x110 }
  - { offset: 0x453C5, size: 0x8, addend: 0x0, symName: __ZNSt3__16vectorIiNS_9allocatorIiEEE26__swap_out_circular_bufferERNS_14__split_bufferIiRS2_EE, symObjAddr: 0x3300C, symBinAddr: 0x1000358A4, symSize: 0x110 }
  - { offset: 0x4541F, size: 0x8, addend: 0x0, symName: __ZNSt3__16vectorINS0_INS0_IdNS_9allocatorIdEEEENS1_IS3_EEEENS1_IS5_EEE26__swap_out_circular_bufferERNS_14__split_bufferIS5_RS6_EE, symObjAddr: 0x340EC, symBinAddr: 0x100036984, symSize: 0x110 }
  - { offset: 0x45760, size: 0x8, addend: 0x0, symName: __ZNSt3__16vectorI3logNS_9allocatorIS1_EEE26__swap_out_circular_bufferERNS_14__split_bufferIS1_RS3_EE, symObjAddr: 0x38168, symBinAddr: 0x10003AA00, symSize: 0x110 }
  - { offset: 0x4586A, size: 0x8, addend: 0x0, symName: __ZlsRNSt3__113basic_ostreamIcNS_11char_traitsIcEEEERK4Edge, symObjAddr: 0x0, symBinAddr: 0x100002898, symSize: 0x144 }
  - { offset: 0x458C2, size: 0x8, addend: 0x0, symName: __ZNKSt3__16vectorIdNS_9allocatorIdEEEixB8ne180100Em, symObjAddr: 0x18C, symBinAddr: 0x100002A24, symSize: 0x24 }
  - { offset: 0x458F9, size: 0x8, addend: 0x0, symName: __ZNKSt3__16vectorIdNS_9allocatorIdEEE4sizeB8ne180100Ev, symObjAddr: 0x1B0, symBinAddr: 0x100002A48, symSize: 0x28 }
  - { offset: 0x4591F, size: 0x8, addend: 0x0, symName: __Z12split_stringNSt3__112basic_stringIcNS_11char_traitsIcEENS_9allocatorIcEEEES5_RNS_6vectorIS5_NS3_IS5_EEEE, symObjAddr: 0x1D8, symBinAddr: 0x100002A70, symSize: 0x114 }
  - { offset: 0x45979, size: 0x8, addend: 0x0, symName: __ZNKSt3__112basic_stringIcNS_11char_traitsIcEENS_9allocatorIcEEE13find_first_ofB8ne180100ERKS5_m, symObjAddr: 0x2EC, symBinAddr: 0x100002B84, symSize: 0x78 }
  - { offset: 0x459BF, size: 0x8, addend: 0x0, symName: __ZNSt3__16vectorINS_12basic_stringIcNS_11char_traitsIcEENS_9allocatorIcEEEENS4_IS6_EEE9push_backB8ne180100EOS6_, symObjAddr: 0x364, symBinAddr: 0x100002BFC, symSize: 0x8C }
  - { offset: 0x45A05, size: 0x8, addend: 0x0, symName: __ZNKSt3__112basic_stringIcNS_11char_traitsIcEENS_9allocatorIcEEE6substrB8ne180100Emm, symObjAddr: 0x3F0, symBinAddr: 0x100002C88, symSize: 0x68 }
  - { offset: 0x45A49, size: 0x8, addend: 0x0, symName: __ZNSt3__112basic_stringIcNS_11char_traitsIcEENS_9allocatorIcEEEaSB8ne180100EOS5_, symObjAddr: 0x458, symBinAddr: 0x100002CF0, symSize: 0x34 }
  - { offset: 0x45A7E, size: 0x8, addend: 0x0, symName: __ZNKSt3__112basic_stringIcNS_11char_traitsIcEENS_9allocatorIcEEE6lengthB8ne180100Ev, symObjAddr: 0x48C, symBinAddr: 0x100002D24, symSize: 0x24 }
  - { offset: 0x45AA4, size: 0x8, addend: 0x0, symName: __ZNSt3__16vectorINS_12basic_stringIcNS_11char_traitsIcEENS_9allocatorIcEEEENS4_IS6_EEE9push_backB8ne180100ERKS6_, symObjAddr: 0x4B0, symBinAddr: 0x100002D48, symSize: 0x8C }
  - { offset: 0x45AE9, size: 0x8, addend: 0x0, symName: __Z13load_gr_filesNSt3__16vectorINS_12basic_stringIcNS_11char_traitsIcEENS_9allocatorIcEEEENS4_IS6_EEEERNS0_I4EdgeNS4_IS9_EEEERm, symObjAddr: 0x53C, symBinAddr: 0x100002DD4, symSize: 0x6C0 }
  - { offset: 0x45C0B, size: 0x8, addend: 0x0, symName: __ZNSt3__16vectorINS_12basic_stringIcNS_11char_traitsIcEENS_9allocatorIcEEEENS4_IS6_EEE5beginB8ne180100Ev, symObjAddr: 0xBFC, symBinAddr: 0x100003494, symSize: 0x30 }
  - { offset: 0x45C33, size: 0x8, addend: 0x0, symName: __ZNSt3__16vectorINS_12basic_stringIcNS_11char_traitsIcEENS_9allocatorIcEEEENS4_IS6_EEE3endB8ne180100Ev, symObjAddr: 0xC2C, symBinAddr: 0x1000034C4, symSize: 0x30 }
  - { offset: 0x45C5B, size: 0x8, addend: 0x0, symName: __ZNKSt3__111__wrap_iterIPNS_12basic_stringIcNS_11char_traitsIcEENS_9allocatorIcEEEEEdeB8ne180100Ev, symObjAddr: 0xC8C, symBinAddr: 0x100003524, symSize: 0x18 }
  - { offset: 0x45C81, size: 0x8, addend: 0x0, symName: __ZNKSt3__112basic_stringIcNS_11char_traitsIcEENS_9allocatorIcEEE5c_strB8ne180100Ev, symObjAddr: 0xCA4, symBinAddr: 0x10000353C, symSize: 0x24 }
  - { offset: 0x45FDC, size: 0x8, addend: 0x0, symName: __ZNSt3__114basic_ifstreamIcNS_11char_traitsIcEEEC1EPKcj, symObjAddr: 0xCC8, symBinAddr: 0x100003560, symSize: 0x15C }
  - { offset: 0x46026, size: 0x8, addend: 0x0, symName: __ZNKSt3__114basic_ifstreamIcNS_11char_traitsIcEEE7is_openEv, symObjAddr: 0xE24, symBinAddr: 0x1000036BC, symSize: 0x28 }
  - { offset: 0x4604E, size: 0x8, addend: 0x0, symName: __ZNSt3__113basic_ostreamIcNS_11char_traitsIcEEElsB8ne180100EPFRS3_S4_E, symObjAddr: 0xE98, symBinAddr: 0x100003730, symSize: 0x2C }
  - { offset: 0x46082, size: 0x8, addend: 0x0, symName: __ZNSt3__112basic_stringIcNS_11char_traitsIcEENS_9allocatorIcEEEC1B8ne180100Ev, symObjAddr: 0xF1C, symBinAddr: 0x1000037B4, symSize: 0x2C }
  - { offset: 0x460AC, size: 0x8, addend: 0x0, symName: __ZNKSt3__19basic_iosIcNS_11char_traitsIcEEE3eofB8ne180100Ev, symObjAddr: 0xF48, symBinAddr: 0x1000037E0, symSize: 0x24 }
  - { offset: 0x460D2, size: 0x8, addend: 0x0, symName: __ZNSt3__16vectorINS_12basic_stringIcNS_11char_traitsIcEENS_9allocatorIcEEEENS4_IS6_EEEC1B8ne180100Ev, symObjAddr: 0x106C, symBinAddr: 0x100003904, symSize: 0x2C }
  - { offset: 0x46102, size: 0x8, addend: 0x0, symName: __ZNSt3__112basic_stringIcNS_11char_traitsIcEENS_9allocatorIcEEEC1B8ne180100ILi0EEEPKc, symObjAddr: 0x1098, symBinAddr: 0x100003930, symSize: 0x34 }
  - { offset: 0x46141, size: 0x8, addend: 0x0, symName: __ZNSt3__16vectorINS_12basic_stringIcNS_11char_traitsIcEENS_9allocatorIcEEEENS4_IS6_EEEixB8ne180100Em, symObjAddr: 0x10CC, symBinAddr: 0x100003964, symSize: 0x2C }
  - { offset: 0x46178, size: 0x8, addend: 0x0, symName: __ZNKSt3__16vectorI4EdgeNS_9allocatorIS1_EEE4sizeB8ne180100Ev, symObjAddr: 0x10F8, symBinAddr: 0x100003990, symSize: 0x28 }
  - { offset: 0x4619E, size: 0x8, addend: 0x0, symName: __ZNSt3__16vectorI4EdgeNS_9allocatorIS1_EEEixB8ne180100Em, symObjAddr: 0x1120, symBinAddr: 0x1000039B8, symSize: 0x2C }
  - { offset: 0x461D5, size: 0x8, addend: 0x0, symName: __ZNSt3__16vectorIdNS_9allocatorIdEEE9push_backB8ne180100EOd, symObjAddr: 0x114C, symBinAddr: 0x1000039E4, symSize: 0x8C }
  - { offset: 0x4621B, size: 0x8, addend: 0x0, symName: __ZNSt3__16vectorIdNS_9allocatorIdEEEC1B8ne180100ESt16initializer_listIdE, symObjAddr: 0x11D8, symBinAddr: 0x100003A70, symSize: 0x3C }
  - { offset: 0x46256, size: 0x8, addend: 0x0, symName: __ZN4EdgeC1EmmNSt3__16vectorIdNS0_9allocatorIdEEEE, symObjAddr: 0x1214, symBinAddr: 0x100003AAC, symSize: 0x44 }
  - { offset: 0x462AB, size: 0x8, addend: 0x0, symName: __ZNSt3__16vectorIdNS_9allocatorIdEEED1B8ne180100Ev, symObjAddr: 0x1258, symBinAddr: 0x100003AF0, symSize: 0x2C }
  - { offset: 0x462D5, size: 0x8, addend: 0x0, symName: __ZNSt3__16vectorI4EdgeNS_9allocatorIS1_EEE9push_backB8ne180100ERKS1_, symObjAddr: 0x1284, symBinAddr: 0x100003B1C, symSize: 0x8C }
  - { offset: 0x4631B, size: 0x8, addend: 0x0, symName: __ZN4EdgeD1Ev, symObjAddr: 0x1360, symBinAddr: 0x100003BF8, symSize: 0x2C }
  - { offset: 0x46347, size: 0x8, addend: 0x0, symName: __ZNSt3__16vectorINS_12basic_stringIcNS_11char_traitsIcEENS_9allocatorIcEEEENS4_IS6_EEED1B8ne180100Ev, symObjAddr: 0x138C, symBinAddr: 0x100003C24, symSize: 0x2C }
  - { offset: 0x46371, size: 0x8, addend: 0x0, symName: __ZNSt3__114basic_ifstreamIcNS_11char_traitsIcEEE5closeEv, symObjAddr: 0x13B8, symBinAddr: 0x100003C50, symSize: 0x50 }
  - { offset: 0x4639F, size: 0x8, addend: 0x0, symName: __ZNSt3__114basic_ifstreamIcNS_11char_traitsIcEEED1Ev, symObjAddr: 0x1408, symBinAddr: 0x100003CA0, symSize: 0x40 }
  - { offset: 0x463CC, size: 0x8, addend: 0x0, symName: __ZNSt3__111__wrap_iterIPNS_12basic_stringIcNS_11char_traitsIcEENS_9allocatorIcEEEEEppB8ne180100Ev, symObjAddr: 0x1448, symBinAddr: 0x100003CE0, symSize: 0x20 }
  - { offset: 0x463F2, size: 0x8, addend: 0x0, symName: __Z12getNodes_DOTNSt3__112basic_stringIcNS_11char_traitsIcEENS_9allocatorIcEEEERNS_6vectorINS_10shared_ptrI4NodeEENS3_IS9_EEEE, symObjAddr: 0x1468, symBinAddr: 0x100003D00, symSize: 0x370 }
  - { offset: 0x464D4, size: 0x8, addend: 0x0, symName: __ZNSt3__113basic_fstreamIcNS_11char_traitsIcEEEC1ERKNS_12basic_stringIcS2_NS_9allocatorIcEEEEj, symObjAddr: 0x17D8, symBinAddr: 0x100004070, symSize: 0x168 }
  - { offset: 0x4651E, size: 0x8, addend: 0x0, symName: __ZNSt3__16vectorINS_10shared_ptrI4NodeEENS_9allocatorIS3_EEE5clearB8ne180100Ev, symObjAddr: 0x1940, symBinAddr: 0x1000041D8, symSize: 0x44 }
  - { offset: 0x46553, size: 0x8, addend: 0x0, symName: __ZNSt3__16vectorINS_10shared_ptrI4NodeEENS_9allocatorIS3_EEE9push_backB8ne180100EOS3_, symObjAddr: 0x1984, symBinAddr: 0x10000421C, symSize: 0x8C }
  - { offset: 0x46599, size: 0x8, addend: 0x0, symName: __ZNSt3__110shared_ptrI4NodeEC1B8ne180100EDn, symObjAddr: 0x1A10, symBinAddr: 0x1000042A8, symSize: 0x34 }
  - { offset: 0x465CF, size: 0x8, addend: 0x0, symName: __ZNSt3__110shared_ptrI4NodeED1B8ne180100Ev, symObjAddr: 0x1A44, symBinAddr: 0x1000042DC, symSize: 0x2C }
  - { offset: 0x465F9, size: 0x8, addend: 0x0, symName: __ZNSt3__114numeric_limitsIlE3maxB8ne180100Ev, symObjAddr: 0x1A70, symBinAddr: 0x100004308, symSize: 0x14 }
  - { offset: 0x4660D, size: 0x8, addend: 0x0, symName: __ZNKSt3__19basic_iosIcNS_11char_traitsIcEEEcvbB8ne180100Ev, symObjAddr: 0x1D70, symBinAddr: 0x100004608, symSize: 0x28 }
  - { offset: 0x46633, size: 0x8, addend: 0x0, symName: __ZNSt3__113basic_fstreamIcNS_11char_traitsIcEEE5closeEv, symObjAddr: 0x1DE8, symBinAddr: 0x100004680, symSize: 0x50 }
  - { offset: 0x46661, size: 0x8, addend: 0x0, symName: __ZNSt3__113basic_fstreamIcNS_11char_traitsIcEEED1Ev, symObjAddr: 0x1E38, symBinAddr: 0x1000046D0, symSize: 0x40 }
  - { offset: 0x4668D, size: 0x8, addend: 0x0, symName: __Z14getNodes_ASCIINSt3__112basic_stringIcNS_11char_traitsIcEENS_9allocatorIcEEEERNS_6vectorINS_10shared_ptrI4NodeEENS3_IS9_EEEER9AdjMatrix, symObjAddr: 0x1E78, symBinAddr: 0x100004710, symSize: 0x1A04 }
  - { offset: 0x46911, size: 0x8, addend: 0x0, symName: __ZNSt3__16vectorIcNS_9allocatorIcEEEC1Em, symObjAddr: 0x387C, symBinAddr: 0x100006114, symSize: 0x34 }
  - { offset: 0x4694C, size: 0x8, addend: 0x0, symName: __ZNSt3__16vectorINS0_IcNS_9allocatorIcEEEENS1_IS3_EEEC1EmRKS3_, symObjAddr: 0x38B0, symBinAddr: 0x100006148, symSize: 0x3C }
  - { offset: 0x46996, size: 0x8, addend: 0x0, symName: __ZNSt3__16vectorIcNS_9allocatorIcEEED1B8ne180100Ev, symObjAddr: 0x38EC, symBinAddr: 0x100006184, symSize: 0x2C }
  - { offset: 0x46A60, size: 0x8, addend: 0x0, symName: __ZNSt3__113unordered_mapINS_4pairIddEEm9pair_hashNS_8equal_toIS2_EENS_9allocatorINS1_IKS2_mEEEEEC1B8ne180100Ev, symObjAddr: 0x3918, symBinAddr: 0x1000061B0, symSize: 0x2C }
  - { offset: 0x46A8A, size: 0x8, addend: 0x0, symName: __ZNSt3__112basic_stringIcNS_11char_traitsIcEENS_9allocatorIcEEEixB8ne180100Em, symObjAddr: 0x3944, symBinAddr: 0x1000061DC, symSize: 0x48 }
  - { offset: 0x46ABF, size: 0x8, addend: 0x0, symName: __ZNSt3__16vectorINS0_IcNS_9allocatorIcEEEENS1_IS3_EEEixB8ne180100Em, symObjAddr: 0x398C, symBinAddr: 0x100006224, symSize: 0x2C }
  - { offset: 0x46AF6, size: 0x8, addend: 0x0, symName: __ZNSt3__16vectorIcNS_9allocatorIcEEEixB8ne180100Em, symObjAddr: 0x39B8, symBinAddr: 0x100006250, symSize: 0x24 }
  - { offset: 0x46B2D, size: 0x8, addend: 0x0, symName: __ZNSt3__113unordered_mapINS_4pairIddEEm9pair_hashNS_8equal_toIS2_EENS_9allocatorINS1_IKS2_mEEEEEixEOS2_, symObjAddr: 0x3A2C, symBinAddr: 0x1000062C4, symSize: 0x80 }
  - { offset: 0x46B81, size: 0x8, addend: 0x0, symName: __ZNSt3__14pairIddEC1B8ne180100IiiTnNS_9enable_ifIXclsr10_CheckArgsE17__enable_implicitIT_T0_EEEiE4typeELi0EEEONS0_IS4_S5_EE, symObjAddr: 0x3AE0, symBinAddr: 0x100006378, symSize: 0x34 }
  - { offset: 0x46BD1, size: 0x8, addend: 0x0, symName: __ZNSt3__16vectorI4EdgeNS_9allocatorIS1_EEEC1B8ne180100Ev, symObjAddr: 0x3B14, symBinAddr: 0x1000063AC, symSize: 0x2C }
  - { offset: 0x46BFB, size: 0x8, addend: 0x0, symName: __ZNSt3__123mersenne_twister_engineIjLm32ELm624ELm397ELm31ELj2567483615ELm11ELj4294967295ELm7ELj2636928640ELm15ELj4022730752ELm18ELj1812433253EEC1B8ne180100Ej, symObjAddr: 0x3B40, symBinAddr: 0x1000063D8, symSize: 0x34 }
  - { offset: 0x46C33, size: 0x8, addend: 0x0, symName: __ZNSt3__16vectorI4EdgeNS_9allocatorIS1_EEE9push_backB8ne180100EOS1_, symObjAddr: 0x3B74, symBinAddr: 0x10000640C, symSize: 0x8C }
  - { offset: 0x46C79, size: 0x8, addend: 0x0, symName: __ZNSt3__14pairIddEC1B8ne180100IRdS3_TnNS_9enable_ifIXclsr10_CheckArgsE17__enable_implicitIT_T0_EEEiE4typeELi0EEEOS5_OS6_, symObjAddr: 0x3C00, symBinAddr: 0x100006498, symSize: 0x3C }
  - { offset: 0x46CDD, size: 0x8, addend: 0x0, symName: __ZNSt3__14pairIddEC1B8ne180100IdRdTnNS_9enable_ifIXclsr10_CheckArgsE17__enable_implicitIT_T0_EEEiE4typeELi0EEEOS5_OS6_, symObjAddr: 0x3C3C, symBinAddr: 0x1000064D4, symSize: 0x3C }
  - { offset: 0x46D3B, size: 0x8, addend: 0x0, symName: __ZNSt3__123mersenne_twister_engineIjLm32ELm624ELm397ELm31ELj2567483615ELm11ELj4294967295ELm7ELj2636928640ELm15ELj4022730752ELm18ELj1812433253EEclEv, symObjAddr: 0x3C78, symBinAddr: 0x100006510, symSize: 0x14C }
  - { offset: 0x46DAE, size: 0x8, addend: 0x0, symName: __ZNSt3__14pairIddEC1B8ne180100IddTnNS_9enable_ifIXclsr10_CheckArgsE17__enable_implicitIT_T0_EEEiE4typeELi0EEEOS4_OS5_, symObjAddr: 0x3DC4, symBinAddr: 0x10000665C, symSize: 0x3C }
  - { offset: 0x46E0C, size: 0x8, addend: 0x0, symName: __ZNSt3__14pairIddEC1B8ne180100IRddTnNS_9enable_ifIXclsr10_CheckArgsE17__enable_implicitIT_T0_EEEiE4typeELi0EEEOS5_OS6_, symObjAddr: 0x3E00, symBinAddr: 0x100006698, symSize: 0x3C }
  - { offset: 0x46E6A, size: 0x8, addend: 0x0, symName: __ZNSt3__16vectorINS0_I4EdgeNS_9allocatorIS1_EEEENS2_IS4_EEEC1EmRKS4_, symObjAddr: 0x3E3C, symBinAddr: 0x1000066D4, symSize: 0x3C }
  - { offset: 0x46EB4, size: 0x8, addend: 0x0, symName: __ZNSt3__16vectorI4EdgeNS_9allocatorIS1_EEED1B8ne180100Ev, symObjAddr: 0x3E78, symBinAddr: 0x100006710, symSize: 0x2C }
  - { offset: 0x46EDE, size: 0x8, addend: 0x0, symName: __ZNSt3__16vectorI4EdgeNS_9allocatorIS1_EEE5beginB8ne180100Ev, symObjAddr: 0x3EA4, symBinAddr: 0x10000673C, symSize: 0x30 }
  - { offset: 0x46F06, size: 0x8, addend: 0x0, symName: __ZNSt3__16vectorI4EdgeNS_9allocatorIS1_EEE3endB8ne180100Ev, symObjAddr: 0x3F04, symBinAddr: 0x10000679C, symSize: 0x30 }
  - { offset: 0x46F2E, size: 0x8, addend: 0x0, symName: __ZNSt3__16vectorINS0_I4EdgeNS_9allocatorIS1_EEEENS2_IS4_EEEixB8ne180100Em, symObjAddr: 0x3F34, symBinAddr: 0x1000067CC, symSize: 0x2C }
  - { offset: 0x46F65, size: 0x8, addend: 0x0, symName: __ZNKSt3__111__wrap_iterIP4EdgeEptB8ne180100Ev, symObjAddr: 0x3F60, symBinAddr: 0x1000067F8, symSize: 0x28 }
  - { offset: 0x46F8B, size: 0x8, addend: 0x0, symName: __ZNKSt3__111__wrap_iterIP4EdgeEdeB8ne180100Ev, symObjAddr: 0x3F88, symBinAddr: 0x100006820, symSize: 0x18 }
  - { offset: 0x46FB1, size: 0x8, addend: 0x0, symName: __ZNSt3__111__wrap_iterIP4EdgeEppB8ne180100Ei, symObjAddr: 0x3FA0, symBinAddr: 0x100006838, symSize: 0x34 }
  - { offset: 0x46FEF, size: 0x8, addend: 0x0, symName: __ZNSt3__16vectorINS0_I4EdgeNS_9allocatorIS1_EEEENS2_IS4_EEE5beginB8ne180100Ev, symObjAddr: 0x3FD4, symBinAddr: 0x10000686C, symSize: 0x30 }
  - { offset: 0x47017, size: 0x8, addend: 0x0, symName: __ZNSt3__16vectorINS0_I4EdgeNS_9allocatorIS1_EEEENS2_IS4_EEE3endB8ne180100Ev, symObjAddr: 0x4034, symBinAddr: 0x1000068CC, symSize: 0x30 }
  - { offset: 0x4703F, size: 0x8, addend: 0x0, symName: __ZNKSt3__111__wrap_iterIPNS_6vectorI4EdgeNS_9allocatorIS2_EEEEEptB8ne180100Ev, symObjAddr: 0x4064, symBinAddr: 0x1000068FC, symSize: 0x28 }
  - { offset: 0x47065, size: 0x8, addend: 0x0, symName: __ZNSt3__16vectorIdNS_9allocatorIdEEE9push_backB8ne180100ERKd, symObjAddr: 0x408C, symBinAddr: 0x100006924, symSize: 0x8C }
  - { offset: 0x470AB, size: 0x8, addend: 0x0, symName: __ZNSt3__111__wrap_iterIPNS_6vectorI4EdgeNS_9allocatorIS2_EEEEEppB8ne180100Ei, symObjAddr: 0x4118, symBinAddr: 0x1000069B0, symSize: 0x34 }
  - { offset: 0x470E9, size: 0x8, addend: 0x0, symName: __ZNSt3__16vectorI4EdgeNS_9allocatorIS1_EEE5clearB8ne180100Ev, symObjAddr: 0x414C, symBinAddr: 0x1000069E4, symSize: 0x44 }
  - { offset: 0x4711E, size: 0x8, addend: 0x0, symName: __ZNSt3__16vectorI4EdgeNS_9allocatorIS1_EEE6insertINS_11__wrap_iterIPS1_EETnNS_9enable_ifIXaasr31__has_forward_iterator_categoryIT_EE5valuesr16is_constructibleIS1_NS_15iterator_traitsISA_E9referenceEEE5valueEiE4typeELi0EEES8_NS6_IPKS1_EESA_SA_, symObjAddr: 0x4190, symBinAddr: 0x100006A28, symSize: 0x84 }
  - { offset: 0x47186, size: 0x8, addend: 0x0, symName: __ZNSt3__111__wrap_iterIPK4EdgeEC1B8ne180100IPS1_TnNS_9enable_ifIXsr14is_convertibleIT_S3_EE5valueEiE4typeELi0EEERKNS0_IS8_EE, symObjAddr: 0x4214, symBinAddr: 0x100006AAC, symSize: 0x34 }
  - { offset: 0x471CD, size: 0x8, addend: 0x0, symName: __ZNSt3__16vectorINS0_I4EdgeNS_9allocatorIS1_EEEENS2_IS4_EEE5clearB8ne180100Ev, symObjAddr: 0x4248, symBinAddr: 0x100006AE0, symSize: 0x44 }
  - { offset: 0x47202, size: 0x8, addend: 0x0, symName: __ZNSt3__16vectorINS0_I4EdgeNS_9allocatorIS1_EEEENS2_IS4_EEEaSB8ne180100EOS6_, symObjAddr: 0x428C, symBinAddr: 0x100006B24, symSize: 0x34 }
  - { offset: 0x47239, size: 0x8, addend: 0x0, symName: __ZNSt3__16vectorINS0_I4EdgeNS_9allocatorIS1_EEEENS2_IS4_EEED1B8ne180100Ev, symObjAddr: 0x42C0, symBinAddr: 0x100006B58, symSize: 0x2C }
  - { offset: 0x47263, size: 0x8, addend: 0x0, symName: __ZNKSt3__16vectorINS0_I4EdgeNS_9allocatorIS1_EEEENS2_IS4_EEE4sizeB8ne180100Ev, symObjAddr: 0x42EC, symBinAddr: 0x100006B84, symSize: 0x28 }
  - { offset: 0x47378, size: 0x8, addend: 0x0, symName: __ZN9AdjMatrixC1EmRNSt3__16vectorI4EdgeNS0_9allocatorIS2_EEEEb, symObjAddr: 0x4314, symBinAddr: 0x100006BAC, symSize: 0x48 }
  - { offset: 0x473D8, size: 0x8, addend: 0x0, symName: __ZN9AdjMatrixaSEOS_, symObjAddr: 0x435C, symBinAddr: 0x100006BF4, symSize: 0x40 }
  - { offset: 0x47409, size: 0x8, addend: 0x0, symName: __ZN9AdjMatrixD1Ev, symObjAddr: 0x439C, symBinAddr: 0x100006C34, symSize: 0x2C }
  - { offset: 0x47435, size: 0x8, addend: 0x0, symName: __ZNSt3__113unordered_mapINS_4pairIddEEm9pair_hashNS_8equal_toIS2_EENS_9allocatorINS1_IKS2_mEEEEED1B8ne180100Ev, symObjAddr: 0x43C8, symBinAddr: 0x100006C60, symSize: 0x2C }
  - { offset: 0x4745F, size: 0x8, addend: 0x0, symName: __ZNSt3__16vectorINS0_IcNS_9allocatorIcEEEENS1_IS3_EEED1B8ne180100Ev, symObjAddr: 0x43F4, symBinAddr: 0x100006C8C, symSize: 0x2C }
  - { offset: 0x47489, size: 0x8, addend: 0x0, symName: __Z17RAND_ASCII_RUNNERNSt3__112basic_stringIcNS_11char_traitsIcEENS_9allocatorIcEEEES5_, symObjAddr: 0x4420, symBinAddr: 0x100006CB8, symSize: 0x1C8 }
  - { offset: 0x47534, size: 0x8, addend: 0x0, symName: __ZNSt3__16vectorINS_10shared_ptrI4NodeEENS_9allocatorIS3_EEEC1B8ne180100Ev, symObjAddr: 0x45E8, symBinAddr: 0x100006E80, symSize: 0x2C }
  - { offset: 0x4755E, size: 0x8, addend: 0x0, symName: __ZN9AdjMatrixC1Ev, symObjAddr: 0x4614, symBinAddr: 0x100006EAC, symSize: 0x2C }
  - { offset: 0x47588, size: 0x8, addend: 0x0, symName: __ZN9h_functorC1Em, symObjAddr: 0x4640, symBinAddr: 0x100006ED8, symSize: 0x34 }
  - { offset: 0x4760D, size: 0x8, addend: 0x0, symName: __ZNSt3__18functionIFdRKNS_10shared_ptrI4NodeEES5_EEC1I9h_functorvEET_, symObjAddr: 0x4674, symBinAddr: 0x100006F0C, symSize: 0x34 }
  - { offset: 0x47650, size: 0x8, addend: 0x0, symName: __ZNKSt3__16vectorINS_10shared_ptrI4NodeEENS_9allocatorIS3_EEE4sizeB8ne180100Ev, symObjAddr: 0x46A8, symBinAddr: 0x100006F40, symSize: 0x28 }
  - { offset: 0x47676, size: 0x8, addend: 0x0, symName: __ZNSt3__18functionIFdRKNS_10shared_ptrI4NodeEES5_EED1Ev, symObjAddr: 0x46D0, symBinAddr: 0x100006F68, symSize: 0x2C }
  - { offset: 0x476A2, size: 0x8, addend: 0x0, symName: __ZNSt3__16vectorINS_10shared_ptrI4NodeEENS_9allocatorIS3_EEED1B8ne180100Ev, symObjAddr: 0x46FC, symBinAddr: 0x100006F94, symSize: 0x2C }
  - { offset: 0x476CC, size: 0x8, addend: 0x0, symName: __Z12ASCII_RUNNERNSt3__112basic_stringIcNS_11char_traitsIcEENS_9allocatorIcEEEEmmS5_, symObjAddr: 0x4728, symBinAddr: 0x100006FC0, symSize: 0x11C }
  - { offset: 0x47765, size: 0x8, addend: 0x0, symName: __Z10DOT_RUNNERNSt3__112basic_stringIcNS_11char_traitsIcEENS_9allocatorIcEEEE, symObjAddr: 0x4844, symBinAddr: 0x1000070DC, symSize: 0x7B4 }
  - { offset: 0x4793F, size: 0x8, addend: 0x0, symName: __ZNSt3__114basic_ifstreamIcNS_11char_traitsIcEEEC1Ev, symObjAddr: 0x4FF8, symBinAddr: 0x100007890, symSize: 0xE0 }
  - { offset: 0x4796B, size: 0x8, addend: 0x0, symName: __ZNSt3__14__fs10filesystem4pathC1B8ne180100INS_12basic_stringIcNS_11char_traitsIcEENS_9allocatorIcEEEEvEERKT_NS2_6formatE, symObjAddr: 0x50D8, symBinAddr: 0x100007970, symSize: 0x3C }
  - { offset: 0x479BA, size: 0x8, addend: 0x0, symName: __ZNSt3__14__fs10filesystem18directory_iteratorC1B8ne180100ERKNS1_4pathE, symObjAddr: 0x5114, symBinAddr: 0x1000079AC, symSize: 0x3C }
  - { offset: 0x479F2, size: 0x8, addend: 0x0, symName: __ZNSt3__14__fs10filesystem4pathD1B8ne180100Ev, symObjAddr: 0x5150, symBinAddr: 0x1000079E8, symSize: 0x2C }
  - { offset: 0x47A1C, size: 0x8, addend: 0x0, symName: __ZNSt3__14__fs10filesystem18directory_iteratorC1B8ne180100ERKS2_, symObjAddr: 0x51B4, symBinAddr: 0x100007A4C, symSize: 0x34 }
  - { offset: 0x47A50, size: 0x8, addend: 0x0, symName: __ZNSt3__14__fs10filesystem18directory_iteratorD1B8ne180100Ev, symObjAddr: 0x51E8, symBinAddr: 0x100007A80, symSize: 0x2C }
  - { offset: 0x47A7A, size: 0x8, addend: 0x0, symName: __ZNKSt3__14__fs10filesystem18directory_iteratordeB8ne180100Ev, symObjAddr: 0x5278, symBinAddr: 0x100007B10, symSize: 0x24 }
  - { offset: 0x47AA0, size: 0x8, addend: 0x0, symName: __ZNSt3__14__fs10filesystem15directory_entryC1B8ne180100ERKS2_, symObjAddr: 0x529C, symBinAddr: 0x100007B34, symSize: 0x34 }
  - { offset: 0x47AD4, size: 0x8, addend: 0x0, symName: __ZNKSt3__14__fs10filesystem15directory_entry4pathB8ne180100Ev, symObjAddr: 0x52D0, symBinAddr: 0x100007B68, symSize: 0x14 }
  - { offset: 0x47AFA, size: 0x8, addend: 0x0, symName: __ZNKSt3__14__fs10filesystem4pathcvNS_12basic_stringIcNS_11char_traitsIcEENS_9allocatorIcEEEEB8ne180100Ev, symObjAddr: 0x52E4, symBinAddr: 0x100007B7C, symSize: 0x38 }
  - { offset: 0x47B20, size: 0x8, addend: 0x0, symName: __ZNSt3__14__fs10filesystem15directory_entryD1B8ne180100Ev, symObjAddr: 0x531C, symBinAddr: 0x100007BB4, symSize: 0x2C }
  - { offset: 0x47B4A, size: 0x8, addend: 0x0, symName: __ZNSt3__14__fs10filesystem18directory_iteratorppB8ne180100Ev, symObjAddr: 0x5348, symBinAddr: 0x100007BE0, symSize: 0x28 }
  - { offset: 0x47B70, size: 0x8, addend: 0x0, symName: __ZNKSt3__111__wrap_iterIPNS_12basic_stringIcNS_11char_traitsIcEENS_9allocatorIcEEEEEptB8ne180100Ev, symObjAddr: 0x5370, symBinAddr: 0x100007C08, symSize: 0x28 }
  - { offset: 0x47B96, size: 0x8, addend: 0x0, symName: __ZNKSt3__112basic_stringIcNS_11char_traitsIcEENS_9allocatorIcEEE4sizeB8ne180100Ev, symObjAddr: 0x5398, symBinAddr: 0x100007C30, symSize: 0x54 }
  - { offset: 0x47BBC, size: 0x8, addend: 0x0, symName: __ZNSt3__16vectorINS_12basic_stringIcNS_11char_traitsIcEENS_9allocatorIcEEEENS4_IS6_EEE5eraseB8ne180100ENS_11__wrap_iterIPKS6_EE, symObjAddr: 0x53EC, symBinAddr: 0x100007C84, symSize: 0x9C }
  - { offset: 0x47C17, size: 0x8, addend: 0x0, symName: __ZNSt3__111__wrap_iterIPKNS_12basic_stringIcNS_11char_traitsIcEENS_9allocatorIcEEEEEC1B8ne180100IPS6_TnNS_9enable_ifIXsr14is_convertibleIT_S8_EE5valueEiE4typeELi0EEERKNS0_ISD_EE, symObjAddr: 0x5488, symBinAddr: 0x100007D20, symSize: 0x34 }
  - { offset: 0x47C5E, size: 0x8, addend: 0x0, symName: __ZNSt3__111__wrap_iterIPNS_12basic_stringIcNS_11char_traitsIcEENS_9allocatorIcEEEEEppB8ne180100Ei, symObjAddr: 0x54BC, symBinAddr: 0x100007D54, symSize: 0x34 }
  - { offset: 0x47C9C, size: 0x8, addend: 0x0, symName: __ZNSt3__16vectorINS_12basic_stringIcNS_11char_traitsIcEENS_9allocatorIcEEEENS4_IS6_EEEC1ERKS8_, symObjAddr: 0x54F0, symBinAddr: 0x100007D88, symSize: 0x34 }
  - { offset: 0x47CD6, size: 0x8, addend: 0x0, symName: __Z19get_ASCII_instancesNSt3__112basic_stringIcNS_11char_traitsIcEENS_9allocatorIcEEEE, symObjAddr: 0x5524, symBinAddr: 0x100007DBC, symSize: 0x228 }
  - { offset: 0x47E41, size: 0x8, addend: 0x0, symName: __ZNSt3__113unordered_mapINS_12basic_stringIcNS_11char_traitsIcEENS_9allocatorIcEEEENS_6vectorINS7_ImNS4_ImEEEENS4_IS9_EEEENS_4hashIS6_EENS_8equal_toIS6_EENS4_INS_4pairIKS6_SB_EEEEEC1B8ne180100Ev, symObjAddr: 0x574C, symBinAddr: 0x100007FE4, symSize: 0x2C }
  - { offset: 0x47E6B, size: 0x8, addend: 0x0, symName: __ZNSt3__114basic_ifstreamIcNS_11char_traitsIcEEEC1ERKNS_12basic_stringIcS2_NS_9allocatorIcEEEEj, symObjAddr: 0x5778, symBinAddr: 0x100008010, symSize: 0x15C }
  - { offset: 0x47EB5, size: 0x8, addend: 0x0, symName: __ZNSt3__113unordered_mapINS_12basic_stringIcNS_11char_traitsIcEENS_9allocatorIcEEEENS_6vectorINS7_ImNS4_ImEEEENS4_IS9_EEEENS_4hashIS6_EENS_8equal_toIS6_EENS4_INS_4pairIKS6_SB_EEEEEixERSH_, symObjAddr: 0x58D4, symBinAddr: 0x10000816C, symSize: 0x80 }
  - { offset: 0x47EEC, size: 0x8, addend: 0x0, symName: __ZNSt3__16vectorINS0_ImNS_9allocatorImEEEENS1_IS3_EEE9push_backB8ne180100EOS3_, symObjAddr: 0x5954, symBinAddr: 0x1000081EC, symSize: 0x8C }
  - { offset: 0x47F32, size: 0x8, addend: 0x0, symName: __ZNSt3__16vectorImNS_9allocatorImEEEC1B8ne180100ESt16initializer_listImE, symObjAddr: 0x59E0, symBinAddr: 0x100008278, symSize: 0x3C }
  - { offset: 0x47F6D, size: 0x8, addend: 0x0, symName: __ZNSt3__16vectorImNS_9allocatorImEEED1B8ne180100Ev, symObjAddr: 0x5A1C, symBinAddr: 0x1000082B4, symSize: 0x2C }
  - { offset: 0x47F97, size: 0x8, addend: 0x0, symName: __ZNSt3__113unordered_mapINS_12basic_stringIcNS_11char_traitsIcEENS_9allocatorIcEEEENS_6vectorINS7_ImNS4_ImEEEENS4_IS9_EEEENS_4hashIS6_EENS_8equal_toIS6_EENS4_INS_4pairIKS6_SB_EEEEED1B8ne180100Ev, symObjAddr: 0x5A48, symBinAddr: 0x1000082E0, symSize: 0x2C }
  - { offset: 0x47FC1, size: 0x8, addend: 0x0, symName: __Z24ASCII_MAP_INSTANCE_MAKERNSt3__112basic_stringIcNS_11char_traitsIcEENS_9allocatorIcEEEERNS_13unordered_mapIS5_NS_6vectorINS7_ImNS3_ImEEEENS3_IS9_EEEENS_4hashIS5_EENS_8equal_toIS5_EENS3_INS_4pairIKS5_SB_EEEEEE, symObjAddr: 0x5A74, symBinAddr: 0x10000830C, symSize: 0x334 }
  - { offset: 0x4816F, size: 0x8, addend: 0x0, symName: __ZN5ASTARC1ERK9AdjMatrixRKNSt3__16vectorINS3_10shared_ptrI4NodeEENS3_9allocatorIS7_EEEE, symObjAddr: 0x5DA8, symBinAddr: 0x100008640, symSize: 0x3C }
  - { offset: 0x481B7, size: 0x8, addend: 0x0, symName: __ZN18more_than_specificC1Em, symObjAddr: 0x5DE4, symBinAddr: 0x10000867C, symSize: 0x34 }
  - { offset: 0x481EF, size: 0x8, addend: 0x0, symName: __ZNSt3__18functionIFbRKNS_10shared_ptrI4NodeEES5_EEC1I18more_than_specificvEET_, symObjAddr: 0x5E18, symBinAddr: 0x1000086B0, symSize: 0x34 }
  - { offset: 0x48232, size: 0x8, addend: 0x0, symName: __ZNK9AdjMatrix4sizeEv, symObjAddr: 0x5E4C, symBinAddr: 0x1000086E4, symSize: 0x18 }
  - { offset: 0x48258, size: 0x8, addend: 0x0, symName: __ZN5ASTARclEmmRNSt3__18functionIFdRKNS0_10shared_ptrI4NodeEES6_EEERNS1_IFbS6_S6_EEE, symObjAddr: 0x5E90, symBinAddr: 0x100008728, symSize: 0x74C }
  - { offset: 0x48399, size: 0x8, addend: 0x0, symName: __ZNSt3__18functionIFbRKNS_10shared_ptrI4NodeEES5_EED1Ev, symObjAddr: 0x65DC, symBinAddr: 0x100008E74, symSize: 0x2C }
  - { offset: 0x483C5, size: 0x8, addend: 0x0, symName: __Z20make_ASCII_instancesNSt3__112basic_stringIcNS_11char_traitsIcEENS_9allocatorIcEEEERNS_13unordered_mapIS5_NS_6vectorINS7_ImNS3_ImEEEENS3_IS9_EEEENS_4hashIS5_EENS_8equal_toIS5_EENS3_INS_4pairIKS5_SB_EEEEEE, symObjAddr: 0x6608, symBinAddr: 0x100008EA0, symSize: 0x240 }
  - { offset: 0x4845B, size: 0x8, addend: 0x0, symName: __ZNKSt3__14__fs10filesystem4path13relative_pathB8ne180100Ev, symObjAddr: 0x6848, symBinAddr: 0x1000090E0, symSize: 0x60 }
  - { offset: 0x48481, size: 0x8, addend: 0x0, symName: __ZNKSt3__14__fs10filesystem4path6stringB8ne180100Ev, symObjAddr: 0x68A8, symBinAddr: 0x100009140, symSize: 0x38 }
  - { offset: 0x484A7, size: 0x8, addend: 0x0, symName: __Z23road_map_instance_makerNSt3__112basic_stringIcNS_11char_traitsIcEENS_9allocatorIcEEEES5_RNS_13unordered_mapIS5_NS_6vectorINS7_ImNS3_ImEEEENS3_IS9_EEEENS_4hashIS5_EENS_8equal_toIS5_EENS3_INS_4pairIKS5_SB_EEEEEE, symObjAddr: 0x68E0, symBinAddr: 0x100009178, symSize: 0x684 }
  - { offset: 0x48660, size: 0x8, addend: 0x0, symName: __ZNSt3__124uniform_int_distributionImEC1B8ne180100Ev, symObjAddr: 0x6F64, symBinAddr: 0x1000097FC, symSize: 0x3C }
  - { offset: 0x4868A, size: 0x8, addend: 0x0, symName: __ZNSt3__126linear_congruential_engineIjLj48271ELj0ELj2147483647EEC1B8ne180100Ev, symObjAddr: 0x6FA0, symBinAddr: 0x100009838, symSize: 0x30 }
  - { offset: 0x486B4, size: 0x8, addend: 0x0, symName: __ZNSt3__124uniform_int_distributionImEclB8ne180100INS_26linear_congruential_engineIjLj48271ELj0ELj2147483647EEEEEmRT_, symObjAddr: 0x6FD0, symBinAddr: 0x100009868, symSize: 0x30 }
  - { offset: 0x486F1, size: 0x8, addend: 0x0, symName: __Z19make_road_instancesNSt3__112basic_stringIcNS_11char_traitsIcEENS_9allocatorIcEEEERNS_13unordered_mapIS5_NS_6vectorINS7_ImNS3_ImEEEENS3_IS9_EEEENS_4hashIS5_EENS_8equal_toIS5_EENS3_INS_4pairIKS5_SB_EEEEEE, symObjAddr: 0x7000, symBinAddr: 0x100009898, symSize: 0x1EC }
  - { offset: 0x48787, size: 0x8, addend: 0x0, symName: __Z11write_arrayRNSt3__113basic_ostreamIcNS_11char_traitsIcEEEERKNS_6vectorIdNS_9allocatorIdEEEE, symObjAddr: 0x71EC, symBinAddr: 0x100009A84, symSize: 0xD0 }
  - { offset: 0x487DF, size: 0x8, addend: 0x0, symName: __Z12write_matrixRNSt3__113basic_ostreamIcNS_11char_traitsIcEEEERKNS_6vectorINS5_IdNS_9allocatorIdEEEENS6_IS8_EEEE, symObjAddr: 0x72BC, symBinAddr: 0x100009B54, symSize: 0xCC }
  - { offset: 0x48837, size: 0x8, addend: 0x0, symName: __ZNKSt3__16vectorINS0_IdNS_9allocatorIdEEEENS1_IS3_EEEixB8ne180100Em, symObjAddr: 0x7388, symBinAddr: 0x100009C20, symSize: 0x2C }
  - { offset: 0x4886E, size: 0x8, addend: 0x0, symName: __ZNKSt3__16vectorINS0_IdNS_9allocatorIdEEEENS1_IS3_EEE4sizeB8ne180100Ev, symObjAddr: 0x73B4, symBinAddr: 0x100009C4C, symSize: 0x28 }
  - { offset: 0x48894, size: 0x8, addend: 0x0, symName: __Z4VBEARK9AdjMatrixRKNSt3__16vectorINS2_10shared_ptrI4NodeEENS2_9allocatorIS6_EEEERNS2_8functionIFdRKS6_SE_EEEmmNS2_12basic_stringIcNS2_11char_traitsIcEENS7_IcEEEEiiR3log, symObjAddr: 0x73DC, symBinAddr: 0x100009C74, symSize: 0x10A0 }
  - { offset: 0x48B02, size: 0x8, addend: 0x0, symName: __ZNK9AdjMatrix13get_obj_countEv, symObjAddr: 0x847C, symBinAddr: 0x10000AD14, symSize: 0x18 }
  - { offset: 0x48B28, size: 0x8, addend: 0x0, symName: __ZNSt3__16vectorINS0_IdNS_9allocatorIdEEEENS1_IS3_EEEC1B8ne180100Ev, symObjAddr: 0x8494, symBinAddr: 0x10000AD2C, symSize: 0x2C }
  - { offset: 0x48B52, size: 0x8, addend: 0x0, symName: __ZNSt3__16vectorINS0_IdNS_9allocatorIdEEEENS1_IS3_EEE9push_backB8ne180100ERKS3_, symObjAddr: 0x84C0, symBinAddr: 0x10000AD58, symSize: 0x8C }
  - { offset: 0x48B98, size: 0x8, addend: 0x0, symName: __ZNKSt3__110shared_ptrI4NodeEptB8ne180100Ev, symObjAddr: 0x854C, symBinAddr: 0x10000ADE4, symSize: 0x18 }
  - { offset: 0x48BBE, size: 0x8, addend: 0x0, symName: __ZNSt3__16vectorINS0_IdNS_9allocatorIdEEEENS1_IS3_EEEC1ERKS5_, symObjAddr: 0x8564, symBinAddr: 0x10000ADFC, symSize: 0x34 }
  - { offset: 0x48BF9, size: 0x8, addend: 0x0, symName: __ZNSt3__16vectorINS0_IdNS_9allocatorIdEEEENS1_IS3_EEEaSB8ne180100EOS5_, symObjAddr: 0x8598, symBinAddr: 0x10000AE30, symSize: 0x34 }
  - { offset: 0x48C30, size: 0x8, addend: 0x0, symName: __ZNSt3__16vectorINS0_IdNS_9allocatorIdEEEENS1_IS3_EEED1B8ne180100Ev, symObjAddr: 0x85CC, symBinAddr: 0x10000AE64, symSize: 0x2C }
  - { offset: 0x48C5A, size: 0x8, addend: 0x0, symName: __ZNSt3__16vectorIdNS_9allocatorIdEEEC1ERKS3_, symObjAddr: 0x85F8, symBinAddr: 0x10000AE90, symSize: 0x34 }
  - { offset: 0x48C95, size: 0x8, addend: 0x0, symName: __ZNSt3__16vectorIiNS_9allocatorIiEEE9push_backB8ne180100EOi, symObjAddr: 0x862C, symBinAddr: 0x10000AEC4, symSize: 0x8C }
  - { offset: 0x48CDB, size: 0x8, addend: 0x0, symName: __ZNKSt3__16chrono8durationIxNS_5ratioILl1ELl1000EEEE5countB8ne180100Ev, symObjAddr: 0x8740, symBinAddr: 0x10000AFD8, symSize: 0x18 }
  - { offset: 0x48D01, size: 0x8, addend: 0x0, symName: __ZNSt3__16vectorINS0_INS0_IdNS_9allocatorIdEEEENS1_IS3_EEEENS1_IS5_EEE9push_backB8ne180100ERKS5_, symObjAddr: 0x8758, symBinAddr: 0x10000AFF0, symSize: 0x8C }
  - { offset: 0x48D47, size: 0x8, addend: 0x0, symName: __ZNSt3__16vectorIdNS_9allocatorIdEEEixB8ne180100Em, symObjAddr: 0x87E4, symBinAddr: 0x10000B07C, symSize: 0x24 }
  - { offset: 0x48D7E, size: 0x8, addend: 0x0, symName: __ZNSt3__16vectorIiNS_9allocatorIiEEEixB8ne180100Em, symObjAddr: 0x8808, symBinAddr: 0x10000B0A0, symSize: 0x24 }
  - { offset: 0x48DB5, size: 0x8, addend: 0x0, symName: __ZNSt3__16vectorINS0_IdNS_9allocatorIdEEEENS1_IS3_EEEixB8ne180100Em, symObjAddr: 0x882C, symBinAddr: 0x10000B0C4, symSize: 0x2C }
  - { offset: 0x48DEC, size: 0x8, addend: 0x0, symName: __ZNSt3__16vectorINS0_IdNS_9allocatorIdEEEENS1_IS3_EEE9push_backB8ne180100EOS3_, symObjAddr: 0x8858, symBinAddr: 0x10000B0F0, symSize: 0x8C }
  - { offset: 0x48F06, size: 0x8, addend: 0x0, symName: __ZN14WEIGHTED_ASTARC1ERK9AdjMatrixRKNSt3__16vectorINS3_10shared_ptrI4NodeEENS3_9allocatorIS7_EEEERNS4_IdNS8_IdEEEE, symObjAddr: 0x8910, symBinAddr: 0x10000B1A8, symSize: 0x44 }
  - { offset: 0x48F5D, size: 0x8, addend: 0x0, symName: __ZNK14WEIGHTED_ASTARclEmmRNSt3__18functionIFdRKNS0_10shared_ptrI4NodeEES6_EEERNS1_IFbS6_S6_EEEi, symObjAddr: 0x8954, symBinAddr: 0x10000B1EC, symSize: 0x74C }
  - { offset: 0x490AE, size: 0x8, addend: 0x0, symName: __ZNKSt3__16vectorINS0_IdNS_9allocatorIdEEEENS1_IS3_EEE5emptyB8ne180100Ev, symObjAddr: 0x90A0, symBinAddr: 0x10000B938, symSize: 0x24 }
  - { offset: 0x490D4, size: 0x8, addend: 0x0, symName: __ZNSt3__16vectorIdNS_9allocatorIdEEEaSB8ne180100EOS3_, symObjAddr: 0x90C4, symBinAddr: 0x10000B95C, symSize: 0x34 }
  - { offset: 0x4910B, size: 0x8, addend: 0x0, symName: __ZNSt3__16vectorIiNS_9allocatorIiEEEaSB8ne180100EOS3_, symObjAddr: 0x90F8, symBinAddr: 0x10000B990, symSize: 0x34 }
  - { offset: 0x49142, size: 0x8, addend: 0x0, symName: __ZNSt3__16vectorIiNS_9allocatorIiEEED1B8ne180100Ev, symObjAddr: 0x912C, symBinAddr: 0x10000B9C4, symSize: 0x2C }
  - { offset: 0x4916C, size: 0x8, addend: 0x0, symName: __Z12write_recordRNSt3__113basic_ostreamIcNS_11char_traitsIcEEEERK3log, symObjAddr: 0x9158, symBinAddr: 0x10000B9F0, symSize: 0x338 }
  - { offset: 0x491C4, size: 0x8, addend: 0x0, symName: __ZNKSt3__16vectorINS0_INS0_IdNS_9allocatorIdEEEENS1_IS3_EEEENS1_IS5_EEEixB8ne180100Em, symObjAddr: 0x9490, symBinAddr: 0x10000BD28, symSize: 0x2C }
  - { offset: 0x491FB, size: 0x8, addend: 0x0, symName: __ZNKSt3__16vectorIiNS_9allocatorIiEEEixB8ne180100Em, symObjAddr: 0x94BC, symBinAddr: 0x10000BD54, symSize: 0x24 }
  - { offset: 0x49232, size: 0x8, addend: 0x0, symName: __ZNKSt3__16vectorINS0_INS0_IdNS_9allocatorIdEEEENS1_IS3_EEEENS1_IS5_EEE4sizeB8ne180100Ev, symObjAddr: 0x94E0, symBinAddr: 0x10000BD78, symSize: 0x28 }
  - { offset: 0x49258, size: 0x8, addend: 0x0, symName: __Z17write_all_recordsRKNSt3__16vectorI3logNS_9allocatorIS1_EEEENS_12basic_stringIcNS_11char_traitsIcEENS2_IcEEEE, symObjAddr: 0x9508, symBinAddr: 0x10000BDA0, symSize: 0x194 }
  - { offset: 0x492E0, size: 0x8, addend: 0x0, symName: __ZNSt3__114basic_ofstreamIcNS_11char_traitsIcEEEC1ERKNS_12basic_stringIcS2_NS_9allocatorIcEEEEj, symObjAddr: 0x97B8, symBinAddr: 0x10000C050, symSize: 0x15C }
  - { offset: 0x4932A, size: 0x8, addend: 0x0, symName: __ZNKSt3__16vectorI3logNS_9allocatorIS1_EEEixB8ne180100Em, symObjAddr: 0x9914, symBinAddr: 0x10000C1AC, symSize: 0x2C }
  - { offset: 0x49361, size: 0x8, addend: 0x0, symName: __ZNKSt3__16vectorI3logNS_9allocatorIS1_EEE4sizeB8ne180100Ev, symObjAddr: 0x9940, symBinAddr: 0x10000C1D8, symSize: 0x28 }
  - { offset: 0x49387, size: 0x8, addend: 0x0, symName: __ZNSt3__114basic_ofstreamIcNS_11char_traitsIcEEE5closeEv, symObjAddr: 0x9968, symBinAddr: 0x10000C200, symSize: 0x50 }
  - { offset: 0x493B5, size: 0x8, addend: 0x0, symName: __ZNSt3__114basic_ofstreamIcNS_11char_traitsIcEEED1Ev, symObjAddr: 0x99B8, symBinAddr: 0x10000C250, symSize: 0x40 }
  - { offset: 0x493E1, size: 0x8, addend: 0x0, symName: __Z20read_ASCII_instancesNSt3__112basic_stringIcNS_11char_traitsIcEENS_9allocatorIcEEEE, symObjAddr: 0x99F8, symBinAddr: 0x10000C290, symSize: 0x244 }
  - { offset: 0x49478, size: 0x8, addend: 0x0, symName: __Z21ASCII_instance_runnerNSt3__112basic_stringIcNS_11char_traitsIcEENS_9allocatorIcEEEERKNS_13unordered_mapIS5_NS_6vectorINS7_ImNS3_ImEEEENS3_IS9_EEEENS_4hashIS5_EENS_8equal_toIS5_EENS3_INS_4pairIKS5_SB_EEEEEE, symObjAddr: 0x9C3C, symBinAddr: 0x10000C4D4, symSize: 0x59C }
  - { offset: 0x49609, size: 0x8, addend: 0x0, symName: __ZNSt3__16vectorI3logNS_9allocatorIS1_EEEC1B8ne180100Ev, symObjAddr: 0xA1D8, symBinAddr: 0x10000CA70, symSize: 0x2C }
  - { offset: 0x49633, size: 0x8, addend: 0x0, symName: __ZNKSt3__113unordered_mapINS_12basic_stringIcNS_11char_traitsIcEENS_9allocatorIcEEEENS_6vectorINS7_ImNS4_ImEEEENS4_IS9_EEEENS_4hashIS6_EENS_8equal_toIS6_EENS4_INS_4pairIKS6_SB_EEEEE5beginB8ne180100Ev, symObjAddr: 0xA204, symBinAddr: 0x10000CA9C, symSize: 0x38 }
  - { offset: 0x49659, size: 0x8, addend: 0x0, symName: __ZNKSt3__113unordered_mapINS_12basic_stringIcNS_11char_traitsIcEENS_9allocatorIcEEEENS_6vectorINS7_ImNS4_ImEEEENS4_IS9_EEEENS_4hashIS6_EENS_8equal_toIS6_EENS4_INS_4pairIKS6_SB_EEEEE3endB8ne180100Ev, symObjAddr: 0xA23C, symBinAddr: 0x10000CAD4, symSize: 0x38 }
  - { offset: 0x4967F, size: 0x8, addend: 0x0, symName: __ZNKSt3__125__hash_map_const_iteratorINS_21__hash_const_iteratorIPNS_11__hash_nodeINS_17__hash_value_typeINS_12basic_stringIcNS_11char_traitsIcEENS_9allocatorIcEEEENS_6vectorINSA_ImNS7_ImEEEENS7_ISC_EEEEEEPvEEEEEdeB8ne180100Ev, symObjAddr: 0xA2A0, symBinAddr: 0x10000CB38, symSize: 0x28 }
  - { offset: 0x496A5, size: 0x8, addend: 0x0, symName: __ZNKSt3__16vectorINS0_ImNS_9allocatorImEEEENS1_IS3_EEE5beginB8ne180100Ev, symObjAddr: 0xA2C8, symBinAddr: 0x10000CB60, symSize: 0x30 }
  - { offset: 0x496CD, size: 0x8, addend: 0x0, symName: __ZNKSt3__16vectorINS0_ImNS_9allocatorImEEEENS1_IS3_EEE3endB8ne180100Ev, symObjAddr: 0xA2F8, symBinAddr: 0x10000CB90, symSize: 0x30 }
  - { offset: 0x496F5, size: 0x8, addend: 0x0, symName: __ZNKSt3__111__wrap_iterIPKNS_6vectorImNS_9allocatorImEEEEEdeB8ne180100Ev, symObjAddr: 0xA358, symBinAddr: 0x10000CBF0, symSize: 0x18 }
  - { offset: 0x4971B, size: 0x8, addend: 0x0, symName: __ZNSt3__16vectorImNS_9allocatorImEEEC1ERKS3_, symObjAddr: 0xA370, symBinAddr: 0x10000CC08, symSize: 0x34 }
  - { offset: 0x49756, size: 0x8, addend: 0x0, symName: __ZNSt3__16vectorImNS_9allocatorImEEEixB8ne180100Em, symObjAddr: 0xA3A4, symBinAddr: 0x10000CC3C, symSize: 0x24 }
  - { offset: 0x4978D, size: 0x8, addend: 0x0, symName: __ZN3logC1ENSt3__112basic_stringIcNS0_11char_traitsIcEENS0_9allocatorIcEEEEmmS6_, symObjAddr: 0xA3C8, symBinAddr: 0x10000CC60, symSize: 0x4C }
  - { offset: 0x497F5, size: 0x8, addend: 0x0, symName: __ZNSt3__16vectorI3logNS_9allocatorIS1_EEE9push_backB8ne180100ERKS1_, symObjAddr: 0xA414, symBinAddr: 0x10000CCAC, symSize: 0x8C }
  - { offset: 0x4983B, size: 0x8, addend: 0x0, symName: __ZN3logD1Ev, symObjAddr: 0xA4A0, symBinAddr: 0x10000CD38, symSize: 0x2C }
  - { offset: 0x49868, size: 0x8, addend: 0x0, symName: __ZNSt3__111__wrap_iterIPKNS_6vectorImNS_9allocatorImEEEEEppB8ne180100Ev, symObjAddr: 0xA4CC, symBinAddr: 0x10000CD64, symSize: 0x20 }
  - { offset: 0x4988E, size: 0x8, addend: 0x0, symName: __ZNSt3__125__hash_map_const_iteratorINS_21__hash_const_iteratorIPNS_11__hash_nodeINS_17__hash_value_typeINS_12basic_stringIcNS_11char_traitsIcEENS_9allocatorIcEEEENS_6vectorINSA_ImNS7_ImEEEENS7_ISC_EEEEEEPvEEEEEppB8ne180100Ev, symObjAddr: 0xA4EC, symBinAddr: 0x10000CD84, symSize: 0x2C }
  - { offset: 0x498B4, size: 0x8, addend: 0x0, symName: __ZNSt3__16vectorI3logNS_9allocatorIS1_EEED1B8ne180100Ev, symObjAddr: 0xA518, symBinAddr: 0x10000CDB0, symSize: 0x2C }
  - { offset: 0x498DE, size: 0x8, addend: 0x0, symName: __Z19add_third_objectiveRNSt3__16vectorI4EdgeNS_9allocatorIS1_EEEE, symObjAddr: 0xA544, symBinAddr: 0x10000CDDC, symSize: 0x10C }
  - { offset: 0x4997B, size: 0x8, addend: 0x0, symName: __ZNSt3__126linear_congruential_engineIjLj48271ELj0ELj2147483647EEC1B8ne180100Ej, symObjAddr: 0xA650, symBinAddr: 0x10000CEE8, symSize: 0x34 }
  - { offset: 0x499DB, size: 0x8, addend: 0x0, symName: __ZNSt3__125uniform_real_distributionIdEC1B8ne180100Edd, symObjAddr: 0xA684, symBinAddr: 0x10000CF1C, symSize: 0x3C }
  - { offset: 0x49A21, size: 0x8, addend: 0x0, symName: __ZNSt3__125uniform_real_distributionIdEclB8ne180100INS_26linear_congruential_engineIjLj48271ELj0ELj2147483647EEEEEdRT_, symObjAddr: 0xA6C0, symBinAddr: 0x10000CF58, symSize: 0x30 }
  - { offset: 0x49A5E, size: 0x8, addend: 0x0, symName: __ZNSt3__111__wrap_iterIP4EdgeEppB8ne180100Ev, symObjAddr: 0xA6F0, symBinAddr: 0x10000CF88, symSize: 0x20 }
  - { offset: 0x49A84, size: 0x8, addend: 0x0, symName: _main, symObjAddr: 0xA710, symBinAddr: 0x10000CFA8, symSize: 0x144 }
  - { offset: 0x49ABF, size: 0x8, addend: 0x0, symName: __ZNKSt3__111__wrap_iterIPNS_12basic_stringIcNS_11char_traitsIcEENS_9allocatorIcEEEEE4baseB8ne180100Ev, symObjAddr: 0xA898, symBinAddr: 0x10000D130, symSize: 0x18 }
  - { offset: 0x49AE5, size: 0x8, addend: 0x0, symName: __ZN4EdgeC2EmmNSt3__16vectorIdNS0_9allocatorIdEEEE, symObjAddr: 0xA8B0, symBinAddr: 0x10000D148, symSize: 0x58 }
  - { offset: 0x49B3A, size: 0x8, addend: 0x0, symName: __ZNKSt16initializer_listImE5beginB8ne180100Ev, symObjAddr: 0xA938, symBinAddr: 0x10000D1D0, symSize: 0x18 }
  - { offset: 0x49B60, size: 0x8, addend: 0x0, symName: __ZNKSt16initializer_listImE3endB8ne180100Ev, symObjAddr: 0xA950, symBinAddr: 0x10000D1E8, symSize: 0x20 }
  - { offset: 0x49B91, size: 0x8, addend: 0x0, symName: __ZNKSt3__16__lessIvvEclB8ne180100ImmEEbRKT_RKT0_, symObjAddr: 0xAA04, symBinAddr: 0x10000D29C, symSize: 0x30 }
  - { offset: 0x49BE5, size: 0x8, addend: 0x0, symName: __ZN4EdgeD2Ev, symObjAddr: 0xAA34, symBinAddr: 0x10000D2CC, symSize: 0x30 }
  - { offset: 0x49C11, size: 0x8, addend: 0x0, symName: __ZNSt3__114basic_ifstreamIcNS_11char_traitsIcEEED2Ev, symObjAddr: 0xAA64, symBinAddr: 0x10000D2FC, symSize: 0x64 }
  - { offset: 0x49C4B, size: 0x8, addend: 0x0, symName: __ZTv0_n24_NSt3__114basic_ifstreamIcNS_11char_traitsIcEEED1Ev, symObjAddr: 0xAAC8, symBinAddr: 0x10000D360, symSize: 0x28 }
  - { offset: 0x49C62, size: 0x8, addend: 0x0, symName: __ZNSt3__110shared_ptrI4NodeEC2B8ne180100EDn, symObjAddr: 0xAAF0, symBinAddr: 0x10000D388, symSize: 0x20 }
  - { offset: 0x49C98, size: 0x8, addend: 0x0, symName: __ZNSt3__123__libcpp_numeric_limitsIlLb1EE3maxB8ne180100Ev, symObjAddr: 0xAB10, symBinAddr: 0x10000D3A8, symSize: 0x8 }
  - { offset: 0x49CAC, size: 0x8, addend: 0x0, symName: __ZNSt3__113basic_fstreamIcNS_11char_traitsIcEEED2Ev, symObjAddr: 0xAB18, symBinAddr: 0x10000D3B0, symSize: 0x6C }
  - { offset: 0x49CE5, size: 0x8, addend: 0x0, symName: __ZThn16_NSt3__113basic_fstreamIcNS_11char_traitsIcEEED1Ev, symObjAddr: 0xAB84, symBinAddr: 0x10000D41C, symSize: 0x1C }
  - { offset: 0x49CFB, size: 0x8, addend: 0x0, symName: __ZTv0_n24_NSt3__113basic_fstreamIcNS_11char_traitsIcEEED1Ev, symObjAddr: 0xABA0, symBinAddr: 0x10000D438, symSize: 0x28 }
  - { offset: 0x49D11, size: 0x8, addend: 0x0, symName: __ZNSt3__113basic_fstreamIcNS_11char_traitsIcEEED0Ev, symObjAddr: 0xABC8, symBinAddr: 0x10000D460, symSize: 0x30 }
  - { offset: 0x49D3D, size: 0x8, addend: 0x0, symName: __ZThn16_NSt3__113basic_fstreamIcNS_11char_traitsIcEEED0Ev, symObjAddr: 0xABF8, symBinAddr: 0x10000D490, symSize: 0x18 }
  - { offset: 0x49D53, size: 0x8, addend: 0x0, symName: __ZTv0_n24_NSt3__113basic_fstreamIcNS_11char_traitsIcEEED0Ev, symObjAddr: 0xAC10, symBinAddr: 0x10000D4A8, symSize: 0x20 }
  - { offset: 0x49D69, size: 0x8, addend: 0x0, symName: __ZNSt3__14pairIiiEC1B8ne180100IRiS3_TnNS_9enable_ifIXclsr10_CheckArgsE17__enable_implicitIT_T0_EEEiE4typeELi0EEEOS5_OS6_, symObjAddr: 0xAC30, symBinAddr: 0x10000D4C8, symSize: 0x3C }
  - { offset: 0x49DC7, size: 0x8, addend: 0x0, symName: __ZNSt3__14pairIiiEC2B8ne180100IRiS3_TnNS_9enable_ifIXclsr10_CheckArgsE17__enable_implicitIT_T0_EEEiE4typeELi0EEEOS5_OS6_, symObjAddr: 0xAC6C, symBinAddr: 0x10000D504, symSize: 0x34 }
  - { offset: 0x49E25, size: 0x8, addend: 0x0, symName: __ZNSt3__14pairIddEC2B8ne180100IiiTnNS_9enable_ifIXclsr10_CheckArgsE17__enable_implicitIT_T0_EEEiE4typeELi0EEEONS0_IS4_S5_EE, symObjAddr: 0xACA0, symBinAddr: 0x10000D538, symSize: 0x48 }
  - { offset: 0x49E75, size: 0x8, addend: 0x0, symName: __ZNSt3__14pairIddEC2B8ne180100IRdS3_TnNS_9enable_ifIXclsr10_CheckArgsE17__enable_implicitIT_T0_EEEiE4typeELi0EEEOS5_OS6_, symObjAddr: 0xACE8, symBinAddr: 0x10000D580, symSize: 0x34 }
  - { offset: 0x49ED3, size: 0x8, addend: 0x0, symName: __ZNSt3__14pairIddEC2B8ne180100IdRdTnNS_9enable_ifIXclsr10_CheckArgsE17__enable_implicitIT_T0_EEEiE4typeELi0EEEOS5_OS6_, symObjAddr: 0xAD1C, symBinAddr: 0x10000D5B4, symSize: 0x34 }
  - { offset: 0x49F31, size: 0x8, addend: 0x0, symName: __ZNSt3__14pairIddEC2B8ne180100IddTnNS_9enable_ifIXclsr10_CheckArgsE17__enable_implicitIT_T0_EEEiE4typeELi0EEEOS4_OS5_, symObjAddr: 0xAD50, symBinAddr: 0x10000D5E8, symSize: 0x34 }
  - { offset: 0x49F8F, size: 0x8, addend: 0x0, symName: __ZNSt3__14pairIddEC2B8ne180100IRddTnNS_9enable_ifIXclsr10_CheckArgsE17__enable_implicitIT_T0_EEEiE4typeELi0EEEOS5_OS6_, symObjAddr: 0xAD84, symBinAddr: 0x10000D61C, symSize: 0x34 }
  - { offset: 0x49FED, size: 0x8, addend: 0x0, symName: __ZNKSt3__111__wrap_iterIP4EdgeE4baseB8ne180100Ev, symObjAddr: 0xADFC, symBinAddr: 0x10000D694, symSize: 0x18 }
  - { offset: 0x4A013, size: 0x8, addend: 0x0, symName: __ZNKSt3__111__wrap_iterIPNS_6vectorI4EdgeNS_9allocatorIS2_EEEEE4baseB8ne180100Ev, symObjAddr: 0xAE6C, symBinAddr: 0x10000D704, symSize: 0x18 }
  - { offset: 0x4A039, size: 0x8, addend: 0x0, symName: __ZNSt3__111__wrap_iterIPNS_6vectorI4EdgeNS_9allocatorIS2_EEEEEppB8ne180100Ev, symObjAddr: 0xAE98, symBinAddr: 0x10000D730, symSize: 0x20 }
  - { offset: 0x4A05F, size: 0x8, addend: 0x0, symName: __ZNSt3__111__wrap_iterIPK4EdgeEC2B8ne180100IPS1_TnNS_9enable_ifIXsr14is_convertibleIT_S3_EE5valueEiE4typeELi0EEERKNS0_IS8_EE, symObjAddr: 0xAEB8, symBinAddr: 0x10000D750, symSize: 0x3C }
  - { offset: 0x4A0A6, size: 0x8, addend: 0x0, symName: __ZN9AdjMatrixC2EmRNSt3__16vectorI4EdgeNS0_9allocatorIS2_EEEEb, symObjAddr: 0xAEF4, symBinAddr: 0x10000D78C, symSize: 0x1B4 }
  - { offset: 0x4A10F, size: 0x8, addend: 0x0, symName: __ZN9AdjMatrix3addE4Edge, symObjAddr: 0xB0A8, symBinAddr: 0x10000D940, symSize: 0x3C }
  - { offset: 0x4A144, size: 0x8, addend: 0x0, symName: __ZN4Edge7inverseEv, symObjAddr: 0xB0E4, symBinAddr: 0x10000D97C, symSize: 0x88 }
  - { offset: 0x4A16A, size: 0x8, addend: 0x0, symName: __ZN4EdgeC1ERKS_, symObjAddr: 0xB16C, symBinAddr: 0x10000DA04, symSize: 0x34 }
  - { offset: 0x4A19F, size: 0x8, addend: 0x0, symName: __ZN4EdgeC2ERKS_, symObjAddr: 0xB1A0, symBinAddr: 0x10000DA38, symSize: 0x48 }
  - { offset: 0x4A1D4, size: 0x8, addend: 0x0, symName: __ZN9AdjMatrixD2Ev, symObjAddr: 0xB1E8, symBinAddr: 0x10000DA80, symSize: 0x2C }
  - { offset: 0x4A200, size: 0x8, addend: 0x0, symName: __ZN9AdjMatrixC2Ev, symObjAddr: 0xB214, symBinAddr: 0x10000DAAC, symSize: 0x30 }
  - { offset: 0x4A22A, size: 0x8, addend: 0x0, symName: __ZNSt3__16vectorINS0_I4EdgeNS_9allocatorIS1_EEEENS2_IS4_EEEC1B8ne180100Ev, symObjAddr: 0xB244, symBinAddr: 0x10000DADC, symSize: 0x2C }
  - { offset: 0x4A254, size: 0x8, addend: 0x0, symName: __ZNSt3__16vectorINS0_I4EdgeNS_9allocatorIS1_EEEENS2_IS4_EEEC2B8ne180100Ev, symObjAddr: 0xB270, symBinAddr: 0x10000DB08, symSize: 0x4C }
  - { offset: 0x4A28A, size: 0x8, addend: 0x0, symName: __ZNSt3__117__compressed_pairIPNS_6vectorI4EdgeNS_9allocatorIS2_EEEENS3_IS5_EEEC1B8ne180100IDnNS_18__default_init_tagEEEOT_OT0_, symObjAddr: 0xB2BC, symBinAddr: 0x10000DB54, symSize: 0x3C }
  - { offset: 0x4A2E2, size: 0x8, addend: 0x0, symName: __ZNSt3__117__compressed_pairIPNS_6vectorI4EdgeNS_9allocatorIS2_EEEENS3_IS5_EEEC2B8ne180100IDnNS_18__default_init_tagEEEOT_OT0_, symObjAddr: 0xB308, symBinAddr: 0x10000DBA0, symSize: 0x40 }
  - { offset: 0x4A33A, size: 0x8, addend: 0x0, symName: __ZNSt3__122__compressed_pair_elemIPNS_6vectorI4EdgeNS_9allocatorIS2_EEEELi0ELb0EEC2B8ne180100IDnvEEOT_, symObjAddr: 0xB348, symBinAddr: 0x10000DBE0, symSize: 0x1C }
  - { offset: 0x4A37C, size: 0x8, addend: 0x0, symName: __ZNSt3__122__compressed_pair_elemINS_9allocatorINS_6vectorI4EdgeNS1_IS3_EEEEEELi1ELb1EEC2B8ne180100ENS_18__default_init_tagE, symObjAddr: 0xB364, symBinAddr: 0x10000DBFC, symSize: 0x2C }
  - { offset: 0x4A3B0, size: 0x8, addend: 0x0, symName: __ZNSt3__19allocatorINS_6vectorI4EdgeNS0_IS2_EEEEEC2B8ne180100Ev, symObjAddr: 0xB390, symBinAddr: 0x10000DC28, symSize: 0x2C }
  - { offset: 0x4A3DA, size: 0x8, addend: 0x0, symName: __ZNSt3__116__non_trivial_ifILb1ENS_9allocatorINS_6vectorI4EdgeNS1_IS3_EEEEEEEC2B8ne180100Ev, symObjAddr: 0xB3BC, symBinAddr: 0x10000DC54, symSize: 0x14 }
  - { offset: 0x4A404, size: 0x8, addend: 0x0, symName: __ZN9h_functorC2Em, symObjAddr: 0xB3D0, symBinAddr: 0x10000DC68, symSize: 0x20 }
  - { offset: 0x4A43D, size: 0x8, addend: 0x0, symName: __ZNSt3__14__fs10filesystem4pathD2B8ne180100Ev, symObjAddr: 0xB3F0, symBinAddr: 0x10000DC88, symSize: 0x2C }
  - { offset: 0x4A467, size: 0x8, addend: 0x0, symName: __ZNSt3__14__fs10filesystem18directory_iteratorC1B8ne180100EOS2_, symObjAddr: 0xB41C, symBinAddr: 0x10000DCB4, symSize: 0x34 }
  - { offset: 0x4A49B, size: 0x8, addend: 0x0, symName: __ZNSt3__14__fs10filesystem18directory_iteratorC2B8ne180100EOS2_, symObjAddr: 0xB450, symBinAddr: 0x10000DCE8, symSize: 0x34 }
  - { offset: 0x4A4CF, size: 0x8, addend: 0x0, symName: __ZNSt3__110shared_ptrINS_4__fs10filesystem12__dir_streamEEC1B8ne180100EOS4_, symObjAddr: 0xB484, symBinAddr: 0x10000DD1C, symSize: 0x34 }
  - { offset: 0x4A508, size: 0x8, addend: 0x0, symName: __ZNSt3__110shared_ptrINS_4__fs10filesystem12__dir_streamEEC2B8ne180100EOS4_, symObjAddr: 0xB4B8, symBinAddr: 0x10000DD50, symSize: 0x40 }
  - { offset: 0x4A541, size: 0x8, addend: 0x0, symName: __ZNSt3__14__fs10filesystem18directory_iteratorC2B8ne180100ERKS2_, symObjAddr: 0xB4F8, symBinAddr: 0x10000DD90, symSize: 0x34 }
  - { offset: 0x4A575, size: 0x8, addend: 0x0, symName: __ZNSt3__110shared_ptrINS_4__fs10filesystem12__dir_streamEEC1B8ne180100ERKS4_, symObjAddr: 0xB52C, symBinAddr: 0x10000DDC4, symSize: 0x34 }
  - { offset: 0x4A5AE, size: 0x8, addend: 0x0, symName: __ZNSt3__110shared_ptrINS_4__fs10filesystem12__dir_streamEEC2B8ne180100ERKS4_, symObjAddr: 0xB560, symBinAddr: 0x10000DDF8, symSize: 0x68 }
  - { offset: 0x4A5E7, size: 0x8, addend: 0x0, symName: __ZNSt3__119__shared_weak_count12__add_sharedB8ne180100Ev, symObjAddr: 0xB5C8, symBinAddr: 0x10000DE60, symSize: 0x24 }
  - { offset: 0x4A60D, size: 0x8, addend: 0x0, symName: __ZNSt3__114__shared_count12__add_sharedB8ne180100Ev, symObjAddr: 0xB5EC, symBinAddr: 0x10000DE84, symSize: 0x28 }
  - { offset: 0x4A633, size: 0x8, addend: 0x0, symName: __ZNSt3__14__fs10filesystem18directory_iteratorD2B8ne180100Ev, symObjAddr: 0xB644, symBinAddr: 0x10000DEDC, symSize: 0x2C }
  - { offset: 0x4A65D, size: 0x8, addend: 0x0, symName: __ZNSt3__110shared_ptrINS_4__fs10filesystem12__dir_streamEED1B8ne180100Ev, symObjAddr: 0xB670, symBinAddr: 0x10000DF08, symSize: 0x2C }
  - { offset: 0x4A687, size: 0x8, addend: 0x0, symName: __ZNSt3__110shared_ptrINS_4__fs10filesystem12__dir_streamEED2B8ne180100Ev, symObjAddr: 0xB69C, symBinAddr: 0x10000DF34, symSize: 0x4C }
  - { offset: 0x4A6B1, size: 0x8, addend: 0x0, symName: __ZNSt3__119__shared_weak_count16__release_sharedB8ne180100Ev, symObjAddr: 0xB6E8, symBinAddr: 0x10000DF80, symSize: 0x3C }
  - { offset: 0x4A6D7, size: 0x8, addend: 0x0, symName: __ZNSt3__114__shared_count16__release_sharedB8ne180100Ev, symObjAddr: 0xB724, symBinAddr: 0x10000DFBC, symSize: 0x78 }
  - { offset: 0x4A6FD, size: 0x8, addend: 0x0, symName: __ZNSt3__14__fs10filesystem18directory_iteratorC1B8ne180100Ev, symObjAddr: 0xB7CC, symBinAddr: 0x10000E064, symSize: 0x2C }
  - { offset: 0x4A727, size: 0x8, addend: 0x0, symName: __ZNSt3__14__fs10filesystem18directory_iteratorC2B8ne180100Ev, symObjAddr: 0xB7F8, symBinAddr: 0x10000E090, symSize: 0x2C }
  - { offset: 0x4A751, size: 0x8, addend: 0x0, symName: __ZNSt3__110shared_ptrINS_4__fs10filesystem12__dir_streamEEC1B8ne180100Ev, symObjAddr: 0xB824, symBinAddr: 0x10000E0BC, symSize: 0x2C }
  - { offset: 0x4A77B, size: 0x8, addend: 0x0, symName: __ZNSt3__110shared_ptrINS_4__fs10filesystem12__dir_streamEEC2B8ne180100Ev, symObjAddr: 0xB850, symBinAddr: 0x10000E0E8, symSize: 0x1C }
  - { offset: 0x4A7A5, size: 0x8, addend: 0x0, symName: __ZNKSt3__110shared_ptrINS_4__fs10filesystem12__dir_streamEE3getB8ne180100Ev, symObjAddr: 0xB8DC, symBinAddr: 0x10000E174, symSize: 0x18 }
  - { offset: 0x4A7CB, size: 0x8, addend: 0x0, symName: __ZNSt3__14__fs10filesystem15directory_entryC2B8ne180100ERKS2_, symObjAddr: 0xB8F4, symBinAddr: 0x10000E18C, symSize: 0x4C }
  - { offset: 0x4A7FF, size: 0x8, addend: 0x0, symName: __ZNSt3__14__fs10filesystem4pathC1B8ne180100ERKS2_, symObjAddr: 0xB940, symBinAddr: 0x10000E1D8, symSize: 0x34 }
  - { offset: 0x4A838, size: 0x8, addend: 0x0, symName: __ZNSt3__14__fs10filesystem4pathC2B8ne180100ERKS2_, symObjAddr: 0xB974, symBinAddr: 0x10000E20C, symSize: 0x34 }
  - { offset: 0x4A871, size: 0x8, addend: 0x0, symName: __ZNSt3__14__fs10filesystem15directory_entryD2B8ne180100Ev, symObjAddr: 0xB9A8, symBinAddr: 0x10000E240, symSize: 0x2C }
  - { offset: 0x4A89B, size: 0x8, addend: 0x0, symName: __ZNSt3__111__wrap_iterIPKNS_12basic_stringIcNS_11char_traitsIcEENS_9allocatorIcEEEEEC2B8ne180100IPS6_TnNS_9enable_ifIXsr14is_convertibleIT_S8_EE5valueEiE4typeELi0EEERKNS0_ISD_EE, symObjAddr: 0xB9E8, symBinAddr: 0x10000E280, symSize: 0x3C }
  - { offset: 0x4A8E2, size: 0x8, addend: 0x0, symName: __ZN5ASTARC2ERK9AdjMatrixRKNSt3__16vectorINS3_10shared_ptrI4NodeEENS3_9allocatorIS7_EEEE, symObjAddr: 0xBA24, symBinAddr: 0x10000E2BC, symSize: 0x2C }
  - { offset: 0x4A92A, size: 0x8, addend: 0x0, symName: __ZN18more_than_specificC2Em, symObjAddr: 0xBA50, symBinAddr: 0x10000E2E8, symSize: 0x20 }
  - { offset: 0x4AAAA, size: 0x8, addend: 0x0, symName: __ZNSt3__113unordered_setImNS_4hashImEENS_8equal_toImEENS_9allocatorImEEEC1B8ne180100Ev, symObjAddr: 0xBA70, symBinAddr: 0x10000E308, symSize: 0x2C }
  - { offset: 0x4AAD4, size: 0x8, addend: 0x0, symName: __ZNSt3__16vectorINS_10shared_ptrI4NodeEENS_9allocatorIS3_EEE5beginB8ne180100Ev, symObjAddr: 0xBAE0, symBinAddr: 0x10000E378, symSize: 0x30 }
  - { offset: 0x4AAFC, size: 0x8, addend: 0x0, symName: __ZNSt3__16vectorINS_10shared_ptrI4NodeEENS_9allocatorIS3_EEE3endB8ne180100Ev, symObjAddr: 0xBB10, symBinAddr: 0x10000E3A8, symSize: 0x30 }
  - { offset: 0x4AB24, size: 0x8, addend: 0x0, symName: __ZNSt3__18functionIFbRKNS_10shared_ptrI4NodeEES5_EEC1ERKS7_, symObjAddr: 0xBB40, symBinAddr: 0x10000E3D8, symSize: 0x34 }
  - { offset: 0x4AB5F, size: 0x8, addend: 0x0, symName: __ZNKSt3__16vectorINS_10shared_ptrI4NodeEENS_9allocatorIS3_EEEixB8ne180100Em, symObjAddr: 0xBBD4, symBinAddr: 0x10000E46C, symSize: 0x24 }
  - { offset: 0x4AB96, size: 0x8, addend: 0x0, symName: __ZNSt3__16vectorIdNS_9allocatorIdEEEC1EmRKd, symObjAddr: 0xBBF8, symBinAddr: 0x10000E490, symSize: 0x3C }
  - { offset: 0x4ABE0, size: 0x8, addend: 0x0, symName: __ZNKSt3__18functionIFdRKNS_10shared_ptrI4NodeEES5_EEclES5_S5_, symObjAddr: 0xBC34, symBinAddr: 0x10000E4CC, symSize: 0x34 }
  - { offset: 0x4AC26, size: 0x8, addend: 0x0, symName: __ZNSt3__16vectorINS_10shared_ptrI4NodeEENS_9allocatorIS3_EEE9push_backB8ne180100ERKS3_, symObjAddr: 0xBC68, symBinAddr: 0x10000E500, symSize: 0x8C }
  - { offset: 0x4AC6C, size: 0x8, addend: 0x0, symName: __ZNKSt3__16vectorINS_10shared_ptrI4NodeEENS_9allocatorIS3_EEE5emptyB8ne180100Ev, symObjAddr: 0xBD38, symBinAddr: 0x10000E5D0, symSize: 0x24 }
  - { offset: 0x4AC92, size: 0x8, addend: 0x0, symName: __ZNSt3__16vectorINS_10shared_ptrI4NodeEENS_9allocatorIS3_EEE4backB8ne180100Ev, symObjAddr: 0xBDBC, symBinAddr: 0x10000E654, symSize: 0x1C }
  - { offset: 0x4ACB8, size: 0x8, addend: 0x0, symName: __ZNSt3__110shared_ptrI4NodeEaSB8ne180100ERKS2_, symObjAddr: 0xBDD8, symBinAddr: 0x10000E670, symSize: 0x50 }
  - { offset: 0x4ACED, size: 0x8, addend: 0x0, symName: __ZNSt3__16vectorINS_10shared_ptrI4NodeEENS_9allocatorIS3_EEE8pop_backEv, symObjAddr: 0xBE28, symBinAddr: 0x10000E6C0, symSize: 0x2C }
  - { offset: 0x4AD15, size: 0x8, addend: 0x0, symName: __ZNSt3__113unordered_setImNS_4hashImEENS_8equal_toImEENS_9allocatorImEEE4findB8ne180100ERKm, symObjAddr: 0xBE84, symBinAddr: 0x10000E71C, symSize: 0x40 }
  - { offset: 0x4AD4A, size: 0x8, addend: 0x0, symName: __ZNSt3__113unordered_setImNS_4hashImEENS_8equal_toImEENS_9allocatorImEEE3endB8ne180100Ev, symObjAddr: 0xBEC4, symBinAddr: 0x10000E75C, symSize: 0x38 }
  - { offset: 0x4AD70, size: 0x8, addend: 0x0, symName: __ZNSt3__113unordered_setImNS_4hashImEENS_8equal_toImEENS_9allocatorImEEE6insertB8ne180100ERKm, symObjAddr: 0xBEFC, symBinAddr: 0x10000E794, symSize: 0x4C }
  - { offset: 0x4ADA5, size: 0x8, addend: 0x0, symName: __ZNSt3__110shared_ptrI4NodeEC1B8ne180100EOS2_, symObjAddr: 0xBF48, symBinAddr: 0x10000E7E0, symSize: 0x34 }
  - { offset: 0x4ADDE, size: 0x8, addend: 0x0, symName: __ZNK9AdjMatrixixEm, symObjAddr: 0xBF7C, symBinAddr: 0x10000E814, symSize: 0x2C }
  - { offset: 0x4AE12, size: 0x8, addend: 0x0, symName: __ZNKSt3__16vectorI4EdgeNS_9allocatorIS1_EEE5beginB8ne180100Ev, symObjAddr: 0xBFA8, symBinAddr: 0x10000E840, symSize: 0x30 }
  - { offset: 0x4AE3A, size: 0x8, addend: 0x0, symName: __ZNKSt3__16vectorI4EdgeNS_9allocatorIS1_EEE3endB8ne180100Ev, symObjAddr: 0xC008, symBinAddr: 0x10000E8A0, symSize: 0x30 }
  - { offset: 0x4AE62, size: 0x8, addend: 0x0, symName: __ZNKSt3__111__wrap_iterIPK4EdgeEptB8ne180100Ev, symObjAddr: 0xC038, symBinAddr: 0x10000E8D0, symSize: 0x28 }
  - { offset: 0x4AE88, size: 0x8, addend: 0x0, symName: __ZNSt3__111__wrap_iterIPK4EdgeEppB8ne180100Ei, symObjAddr: 0xC0C8, symBinAddr: 0x10000E960, symSize: 0x34 }
  - { offset: 0x4AEC6, size: 0x8, addend: 0x0, symName: __ZNSt3__113unordered_setImNS_4hashImEENS_8equal_toImEENS_9allocatorImEEED1B8ne180100Ev, symObjAddr: 0xC0FC, symBinAddr: 0x10000E994, symSize: 0x2C }
  - { offset: 0x4AEF0, size: 0x8, addend: 0x0, symName: __ZNSt3__113unordered_setImNS_4hashImEENS_8equal_toImEENS_9allocatorImEEEC2B8ne180100Ev, symObjAddr: 0xC128, symBinAddr: 0x10000E9C0, symSize: 0x2C }
  - { offset: 0x4AF1A, size: 0x8, addend: 0x0, symName: __ZNSt3__112__hash_tableImNS_4hashImEENS_8equal_toImEENS_9allocatorImEEEC1Ev, symObjAddr: 0xC154, symBinAddr: 0x10000E9EC, symSize: 0x2C }
  - { offset: 0x4AF44, size: 0x8, addend: 0x0, symName: __ZNSt3__112__hash_tableImNS_4hashImEENS_8equal_toImEENS_9allocatorImEEEC2Ev, symObjAddr: 0xC180, symBinAddr: 0x10000EA18, symSize: 0x7C }
  - { offset: 0x4AF6E, size: 0x8, addend: 0x0, symName: __ZNSt3__110unique_ptrIA_PNS_16__hash_node_baseIPNS_11__hash_nodeImPvEEEENS_25__bucket_list_deallocatorINS_9allocatorIS7_EEEEEC1B8ne180100ILb1EvEEv, symObjAddr: 0xC1FC, symBinAddr: 0x10000EA94, symSize: 0x2C }
  - { offset: 0x4AFA3, size: 0x8, addend: 0x0, symName: __ZNSt3__117__compressed_pairINS_16__hash_node_baseIPNS_11__hash_nodeImPvEEEENS_9allocatorIS4_EEEC1B8ne180100ILb1EvEEv, symObjAddr: 0xC228, symBinAddr: 0x10000EAC0, symSize: 0x2C }
  - { offset: 0x4AFDE, size: 0x8, addend: 0x0, symName: __ZNSt3__117__compressed_pairImNS_4hashImEEEC1B8ne180100IiNS_18__default_init_tagEEEOT_OT0_, symObjAddr: 0xC254, symBinAddr: 0x10000EAEC, symSize: 0x3C }
  - { offset: 0x4B03C, size: 0x8, addend: 0x0, symName: __ZNSt3__117__compressed_pairIfNS_8equal_toImEEEC1B8ne180100IfNS_18__default_init_tagEEEOT_OT0_, symObjAddr: 0xC290, symBinAddr: 0x10000EB28, symSize: 0x3C }
  - { offset: 0x4B094, size: 0x8, addend: 0x0, symName: __ZNSt3__110unique_ptrIA_PNS_16__hash_node_baseIPNS_11__hash_nodeImPvEEEENS_25__bucket_list_deallocatorINS_9allocatorIS7_EEEEEC2B8ne180100ILb1EvEEv, symObjAddr: 0xC2CC, symBinAddr: 0x10000EB64, symSize: 0x3C }
  - { offset: 0x4B0CF, size: 0x8, addend: 0x0, symName: __ZNSt3__117__compressed_pairIPPNS_16__hash_node_baseIPNS_11__hash_nodeImPvEEEENS_25__bucket_list_deallocatorINS_9allocatorIS7_EEEEEC1B8ne180100INS_16__value_init_tagESF_EEOT_OT0_, symObjAddr: 0xC308, symBinAddr: 0x10000EBA0, symSize: 0x3C }
  - { offset: 0x4B127, size: 0x8, addend: 0x0, symName: __ZNSt3__117__compressed_pairIPPNS_16__hash_node_baseIPNS_11__hash_nodeImPvEEEENS_25__bucket_list_deallocatorINS_9allocatorIS7_EEEEEC2B8ne180100INS_16__value_init_tagESF_EEOT_OT0_, symObjAddr: 0xC344, symBinAddr: 0x10000EBDC, symSize: 0x40 }
  - { offset: 0x4B17F, size: 0x8, addend: 0x0, symName: __ZNSt3__122__compressed_pair_elemIPPNS_16__hash_node_baseIPNS_11__hash_nodeImPvEEEELi0ELb0EEC2B8ne180100ENS_16__value_init_tagE, symObjAddr: 0xC384, symBinAddr: 0x10000EC1C, symSize: 0x18 }
  - { offset: 0x4B1B3, size: 0x8, addend: 0x0, symName: __ZNSt3__122__compressed_pair_elemINS_25__bucket_list_deallocatorINS_9allocatorIPNS_16__hash_node_baseIPNS_11__hash_nodeImPvEEEEEEEELi1ELb0EEC2B8ne180100ENS_16__value_init_tagE, symObjAddr: 0xC39C, symBinAddr: 0x10000EC34, symSize: 0x2C }
  - { offset: 0x4B1E7, size: 0x8, addend: 0x0, symName: __ZNSt3__125__bucket_list_deallocatorINS_9allocatorIPNS_16__hash_node_baseIPNS_11__hash_nodeImPvEEEEEEEC1B8ne180100Ev, symObjAddr: 0xC3C8, symBinAddr: 0x10000EC60, symSize: 0x2C }
  - { offset: 0x4B211, size: 0x8, addend: 0x0, symName: __ZNSt3__125__bucket_list_deallocatorINS_9allocatorIPNS_16__hash_node_baseIPNS_11__hash_nodeImPvEEEEEEEC2B8ne180100Ev, symObjAddr: 0xC3F4, symBinAddr: 0x10000EC8C, symSize: 0x40 }
  - { offset: 0x4B23B, size: 0x8, addend: 0x0, symName: __ZNSt3__117__compressed_pairImNS_9allocatorIPNS_16__hash_node_baseIPNS_11__hash_nodeImPvEEEEEEEC1B8ne180100IiNS_18__default_init_tagEEEOT_OT0_, symObjAddr: 0xC434, symBinAddr: 0x10000ECCC, symSize: 0x3C }
  - { offset: 0x4B293, size: 0x8, addend: 0x0, symName: __ZNSt3__117__compressed_pairImNS_9allocatorIPNS_16__hash_node_baseIPNS_11__hash_nodeImPvEEEEEEEC2B8ne180100IiNS_18__default_init_tagEEEOT_OT0_, symObjAddr: 0xC470, symBinAddr: 0x10000ED08, symSize: 0x40 }
  - { offset: 0x4B2EB, size: 0x8, addend: 0x0, symName: __ZNSt3__122__compressed_pair_elemImLi0ELb0EEC2B8ne180100IivEEOT_, symObjAddr: 0xC4B0, symBinAddr: 0x10000ED48, symSize: 0x24 }
  - { offset: 0x4B32D, size: 0x8, addend: 0x0, symName: __ZNSt3__122__compressed_pair_elemINS_9allocatorIPNS_16__hash_node_baseIPNS_11__hash_nodeImPvEEEEEELi1ELb1EEC2B8ne180100ENS_18__default_init_tagE, symObjAddr: 0xC4D4, symBinAddr: 0x10000ED6C, symSize: 0x2C }
  - { offset: 0x4B361, size: 0x8, addend: 0x0, symName: __ZNSt3__19allocatorIPNS_16__hash_node_baseIPNS_11__hash_nodeImPvEEEEEC2B8ne180100Ev, symObjAddr: 0xC500, symBinAddr: 0x10000ED98, symSize: 0x2C }
  - { offset: 0x4B38B, size: 0x8, addend: 0x0, symName: __ZNSt3__116__non_trivial_ifILb1ENS_9allocatorIPNS_16__hash_node_baseIPNS_11__hash_nodeImPvEEEEEEEC2B8ne180100Ev, symObjAddr: 0xC52C, symBinAddr: 0x10000EDC4, symSize: 0x14 }
  - { offset: 0x4B3B5, size: 0x8, addend: 0x0, symName: __ZNSt3__117__compressed_pairINS_16__hash_node_baseIPNS_11__hash_nodeImPvEEEENS_9allocatorIS4_EEEC2B8ne180100ILb1EvEEv, symObjAddr: 0xC540, symBinAddr: 0x10000EDD8, symSize: 0x34 }
  - { offset: 0x4B3EA, size: 0x8, addend: 0x0, symName: __ZNSt3__122__compressed_pair_elemINS_16__hash_node_baseIPNS_11__hash_nodeImPvEEEELi0ELb0EEC2B8ne180100ENS_16__value_init_tagE, symObjAddr: 0xC574, symBinAddr: 0x10000EE0C, symSize: 0x2C }
  - { offset: 0x4B41E, size: 0x8, addend: 0x0, symName: __ZNSt3__122__compressed_pair_elemINS_9allocatorINS_11__hash_nodeImPvEEEELi1ELb1EEC2B8ne180100ENS_16__value_init_tagE, symObjAddr: 0xC5A0, symBinAddr: 0x10000EE38, symSize: 0x2C }
  - { offset: 0x4B452, size: 0x8, addend: 0x0, symName: __ZNSt3__116__hash_node_baseIPNS_11__hash_nodeImPvEEEC1B8ne180100Ev, symObjAddr: 0xC5CC, symBinAddr: 0x10000EE64, symSize: 0x2C }
  - { offset: 0x4B47C, size: 0x8, addend: 0x0, symName: __ZNSt3__116__hash_node_baseIPNS_11__hash_nodeImPvEEEC2B8ne180100Ev, symObjAddr: 0xC5F8, symBinAddr: 0x10000EE90, symSize: 0x18 }
  - { offset: 0x4B4A6, size: 0x8, addend: 0x0, symName: __ZNSt3__19allocatorINS_11__hash_nodeImPvEEEC2B8ne180100Ev, symObjAddr: 0xC610, symBinAddr: 0x10000EEA8, symSize: 0x2C }
  - { offset: 0x4B4D0, size: 0x8, addend: 0x0, symName: __ZNSt3__116__non_trivial_ifILb1ENS_9allocatorINS_11__hash_nodeImPvEEEEEC2B8ne180100Ev, symObjAddr: 0xC63C, symBinAddr: 0x10000EED4, symSize: 0x14 }
  - { offset: 0x4B4FA, size: 0x8, addend: 0x0, symName: __ZNSt3__117__compressed_pairImNS_4hashImEEEC2B8ne180100IiNS_18__default_init_tagEEEOT_OT0_, symObjAddr: 0xC650, symBinAddr: 0x10000EEE8, symSize: 0x40 }
  - { offset: 0x4B552, size: 0x8, addend: 0x0, symName: __ZNSt3__122__compressed_pair_elemINS_4hashImEELi1ELb1EEC2B8ne180100ENS_18__default_init_tagE, symObjAddr: 0xC690, symBinAddr: 0x10000EF28, symSize: 0x14 }
  - { offset: 0x4B586, size: 0x8, addend: 0x0, symName: __ZNSt3__117__compressed_pairIfNS_8equal_toImEEEC2B8ne180100IfNS_18__default_init_tagEEEOT_OT0_, symObjAddr: 0xC6A4, symBinAddr: 0x10000EF3C, symSize: 0x40 }
  - { offset: 0x4B5DE, size: 0x8, addend: 0x0, symName: __ZNSt3__122__compressed_pair_elemIfLi0ELb0EEC2B8ne180100IfvEEOT_, symObjAddr: 0xC6E4, symBinAddr: 0x10000EF7C, symSize: 0x24 }
  - { offset: 0x4B620, size: 0x8, addend: 0x0, symName: __ZNSt3__122__compressed_pair_elemINS_8equal_toImEELi1ELb1EEC2B8ne180100ENS_18__default_init_tagE, symObjAddr: 0xC708, symBinAddr: 0x10000EFA0, symSize: 0x14 }
  - { offset: 0x4B654, size: 0x8, addend: 0x0, symName: __ZNKSt3__111__wrap_iterIPNS_10shared_ptrI4NodeEEEplB8ne180100El, symObjAddr: 0xCB34, symBinAddr: 0x10000F3CC, symSize: 0x3C }
  - { offset: 0x4B696, size: 0x8, addend: 0x0, symName: __ZNKSt3__111__wrap_iterIPNS_10shared_ptrI4NodeEEE4baseB8ne180100Ev, symObjAddr: 0xCB70, symBinAddr: 0x10000F408, symSize: 0x18 }
  - { offset: 0x4B6BC, size: 0x8, addend: 0x0, symName: __ZNKSt3__18functionIFbRKNS_10shared_ptrI4NodeEES5_EEclES5_S5_, symObjAddr: 0xCB88, symBinAddr: 0x10000F420, symSize: 0x34 }
  - { offset: 0x4B702, size: 0x8, addend: 0x0, symName: __ZNKSt3__111__wrap_iterIPNS_10shared_ptrI4NodeEEEdeB8ne180100Ev, symObjAddr: 0xCBBC, symBinAddr: 0x10000F454, symSize: 0x18 }
  - { offset: 0x4B728, size: 0x8, addend: 0x0, symName: __ZNSt3__111__wrap_iterIPNS_10shared_ptrI4NodeEEEppB8ne180100Ev, symObjAddr: 0xCBD4, symBinAddr: 0x10000F46C, symSize: 0x20 }
  - { offset: 0x4B754, size: 0x8, addend: 0x0, symName: __ZNSt3__18_IterOpsINS_17_ClassicAlgPolicyEE11__iter_moveB8ne180100IRNS_11__wrap_iterIPNS_10shared_ptrI4NodeEEEETnNS_9enable_ifIXsr12is_referenceIDTdeclsr3stdE7declvalIRT_EEEEE5valueEiE4typeELi0EEEDTclsr3stdE4movedeclsr3stdE7declvalISD_EEEEOSC_, symObjAddr: 0xCBF4, symBinAddr: 0x10000F48C, symSize: 0x28 }
  - { offset: 0x4B786, size: 0x8, addend: 0x0, symName: __ZNSt3__110shared_ptrI4NodeEaSB8ne180100EOS2_, symObjAddr: 0xCC1C, symBinAddr: 0x10000F4B4, symSize: 0x50 }
  - { offset: 0x4B7BB, size: 0x8, addend: 0x0, symName: __ZNKSt3__110__function12__value_funcIFbRKNS_10shared_ptrI4NodeEES6_EEclB8ne180100ES6_S6_, symObjAddr: 0xCC6C, symBinAddr: 0x10000F504, symSize: 0x58 }
  - { offset: 0x4B816, size: 0x8, addend: 0x0, symName: __ZNSt3__117bad_function_callC1B8ne180100Ev, symObjAddr: 0xCCFC, symBinAddr: 0x10000F594, symSize: 0x2C }
  - { offset: 0x4B840, size: 0x8, addend: 0x0, symName: __ZNSt3__117bad_function_callD1Ev, symObjAddr: 0xCD28, symBinAddr: 0x10000F5C0, symSize: 0x2C }
  - { offset: 0x4B86A, size: 0x8, addend: 0x0, symName: __ZNSt3__117bad_function_callC2B8ne180100Ev, symObjAddr: 0xCD54, symBinAddr: 0x10000F5EC, symSize: 0x3C }
  - { offset: 0x4B894, size: 0x8, addend: 0x0, symName: __ZNSt9exceptionC2B8ne180100Ev, symObjAddr: 0xCD90, symBinAddr: 0x10000F628, symSize: 0x24 }
  - { offset: 0x4B8BE, size: 0x8, addend: 0x0, symName: __ZNSt3__117bad_function_callD0Ev, symObjAddr: 0xCDB4, symBinAddr: 0x10000F64C, symSize: 0x30 }
  - { offset: 0x4B8E8, size: 0x8, addend: 0x0, symName: __ZNSt3__117bad_function_callD2Ev, symObjAddr: 0xCDE4, symBinAddr: 0x10000F67C, symSize: 0x2C }
  - { offset: 0x4B912, size: 0x8, addend: 0x0, symName: __ZNSt3__18_IterOpsINS_17_ClassicAlgPolicyEE25__validate_iter_referenceB8ne180100IRNS_11__wrap_iterIPNS_10shared_ptrI4NodeEEEEEEvv, symObjAddr: 0xCE10, symBinAddr: 0x10000F6A8, symSize: 0x4 }
  - { offset: 0x4B930, size: 0x8, addend: 0x0, symName: __ZNSt3__110shared_ptrI4NodeE4swapB8ne180100ERS2_, symObjAddr: 0xCE14, symBinAddr: 0x10000F6AC, symSize: 0x44 }
  - { offset: 0x4B965, size: 0x8, addend: 0x0, symName: __ZNSt3__111__wrap_iterIPNS_10shared_ptrI4NodeEEEpLB8ne180100El, symObjAddr: 0xCED0, symBinAddr: 0x10000F768, symSize: 0x28 }
  - { offset: 0x4B999, size: 0x8, addend: 0x0, symName: __ZNSt3__16vectorINS_10shared_ptrI4NodeEENS_9allocatorIS3_EEE11__make_iterB8ne180100EPS3_, symObjAddr: 0xCEF8, symBinAddr: 0x10000F790, symSize: 0x30 }
  - { offset: 0x4B9CE, size: 0x8, addend: 0x0, symName: __ZNSt3__111__wrap_iterIPNS_10shared_ptrI4NodeEEEC1B8ne180100ES4_, symObjAddr: 0xCF28, symBinAddr: 0x10000F7C0, symSize: 0x34 }
  - { offset: 0x4BA06, size: 0x8, addend: 0x0, symName: __ZNSt3__111__wrap_iterIPNS_10shared_ptrI4NodeEEEC2B8ne180100ES4_, symObjAddr: 0xCF5C, symBinAddr: 0x10000F7F4, symSize: 0x20 }
  - { offset: 0x4BA3E, size: 0x8, addend: 0x0, symName: __ZNSt3__18functionIFbRKNS_10shared_ptrI4NodeEES5_EEC2ERKS7_, symObjAddr: 0xCF7C, symBinAddr: 0x10000F814, symSize: 0x34 }
  - { offset: 0x4BA79, size: 0x8, addend: 0x0, symName: __ZNSt3__110__function12__value_funcIFbRKNS_10shared_ptrI4NodeEES6_EEC1B8ne180100ERKS8_, symObjAddr: 0xCFB0, symBinAddr: 0x10000F848, symSize: 0x34 }
  - { offset: 0x4BAB2, size: 0x8, addend: 0x0, symName: __ZNSt3__110__function12__value_funcIFbRKNS_10shared_ptrI4NodeEES6_EEC2B8ne180100ERKS8_, symObjAddr: 0xCFE4, symBinAddr: 0x10000F87C, symSize: 0xB4 }
  - { offset: 0x4BAEB, size: 0x8, addend: 0x0, symName: __ZNSt3__110__function12__value_funcIFbRKNS_10shared_ptrI4NodeEES6_EE9__as_baseB8ne180100EPv, symObjAddr: 0xD098, symBinAddr: 0x10000F930, symSize: 0x14 }
  - { offset: 0x4BB0F, size: 0x8, addend: 0x0, symName: __ZNSt3__19allocatorI4NodeEC1B8ne180100Ev, symObjAddr: 0xD164, symBinAddr: 0x10000F9FC, symSize: 0x2C }
  - { offset: 0x4BB90, size: 0x8, addend: 0x0, symName: __ZNSt3__118__allocation_guardINS_9allocatorINS_20__shared_ptr_emplaceI4NodeNS1_IS3_EEEEEEEC1B8ne180100IS4_EET_m, symObjAddr: 0xD190, symBinAddr: 0x10000FA28, symSize: 0x34 }
  - { offset: 0x4BBDF, size: 0x8, addend: 0x0, symName: __ZNKSt3__118__allocation_guardINS_9allocatorINS_20__shared_ptr_emplaceI4NodeNS1_IS3_EEEEEEE5__getB8ne180100Ev, symObjAddr: 0xD1C4, symBinAddr: 0x10000FA5C, symSize: 0x18 }
  - { offset: 0x4BC05, size: 0x8, addend: 0x0, symName: __ZNSt3__120__shared_ptr_emplaceI4NodeNS_9allocatorIS1_EEEC1B8ne180100IJRdS6_RmNS_6vectorIdNS2_IdEEEEdES3_TnNS_9enable_ifIXntsr7is_sameINT0_10value_typeENS_19__for_overwrite_tagEEE5valueEiE4typeELi0EEES3_DpOT_, symObjAddr: 0xD1DC, symBinAddr: 0x10000FA74, symSize: 0x54 }
  - { offset: 0x4BCB7, size: 0x8, addend: 0x0, symName: __ZNSt3__118__allocation_guardINS_9allocatorINS_20__shared_ptr_emplaceI4NodeNS1_IS3_EEEEEEE13__release_ptrB8ne180100Ev, symObjAddr: 0xD230, symBinAddr: 0x10000FAC8, symSize: 0x24 }
  - { offset: 0x4BCEB, size: 0x8, addend: 0x0, symName: __ZNSt3__110shared_ptrI4NodeE27__create_with_control_blockB8ne180100IS1_NS_20__shared_ptr_emplaceIS1_NS_9allocatorIS1_EEEEEES2_PT_PT0_, symObjAddr: 0xD254, symBinAddr: 0x10000FAEC, symSize: 0xA4 }
  - { offset: 0x4BD40, size: 0x8, addend: 0x0, symName: __ZNSt3__120__shared_ptr_emplaceI4NodeNS_9allocatorIS1_EEE10__get_elemB8ne180100Ev, symObjAddr: 0xD2F8, symBinAddr: 0x10000FB90, symSize: 0x28 }
  - { offset: 0x4BD66, size: 0x8, addend: 0x0, symName: __ZNSt3__118__allocation_guardINS_9allocatorINS_20__shared_ptr_emplaceI4NodeNS1_IS3_EEEEEEED1B8ne180100Ev, symObjAddr: 0xD320, symBinAddr: 0x10000FBB8, symSize: 0x2C }
  - { offset: 0x4BD90, size: 0x8, addend: 0x0, symName: __ZNSt3__118__allocation_guardINS_9allocatorINS_20__shared_ptr_emplaceI4NodeNS1_IS3_EEEEEEEC2B8ne180100IS4_EET_m, symObjAddr: 0xD34C, symBinAddr: 0x10000FBE4, symSize: 0x50 }
  - { offset: 0x4BDDF, size: 0x8, addend: 0x0, symName: __ZNSt3__19allocatorINS_20__shared_ptr_emplaceI4NodeNS0_IS2_EEEEEC1B8ne180100IS2_EERKNS0_IT_EE, symObjAddr: 0xD39C, symBinAddr: 0x10000FC34, symSize: 0x34 }
  - { offset: 0x4BE1C, size: 0x8, addend: 0x0, symName: __ZNSt3__116allocator_traitsINS_9allocatorINS_20__shared_ptr_emplaceI4NodeNS1_IS3_EEEEEEE8allocateB8ne180100ERS6_m, symObjAddr: 0xD3D0, symBinAddr: 0x10000FC68, symSize: 0x2C }
  - { offset: 0x4BE4F, size: 0x8, addend: 0x0, symName: __ZNSt3__19allocatorINS_20__shared_ptr_emplaceI4NodeNS0_IS2_EEEEEC2B8ne180100IS2_EERKNS0_IT_EE, symObjAddr: 0xD3FC, symBinAddr: 0x10000FC94, symSize: 0x30 }
  - { offset: 0x4BE8C, size: 0x8, addend: 0x0, symName: __ZNSt3__116__non_trivial_ifILb1ENS_9allocatorINS_20__shared_ptr_emplaceI4NodeNS1_IS3_EEEEEEEC2B8ne180100Ev, symObjAddr: 0xD42C, symBinAddr: 0x10000FCC4, symSize: 0x14 }
  - { offset: 0x4BEB6, size: 0x8, addend: 0x0, symName: __ZNSt3__19allocatorINS_20__shared_ptr_emplaceI4NodeNS0_IS2_EEEEE8allocateB8ne180100Em, symObjAddr: 0xD440, symBinAddr: 0x10000FCD8, symSize: 0x58 }
  - { offset: 0x4BEF5, size: 0x8, addend: 0x0, symName: __ZNSt3__116allocator_traitsINS_9allocatorINS_20__shared_ptr_emplaceI4NodeNS1_IS3_EEEEEEE8max_sizeB8ne180100IS6_vEEmRKS6_, symObjAddr: 0xD498, symBinAddr: 0x10000FD30, symSize: 0x24 }
  - { offset: 0x4BF23, size: 0x8, addend: 0x0, symName: __ZNKSt3__19allocatorINS_20__shared_ptr_emplaceI4NodeNS0_IS2_EEEEE8max_sizeB8ne180100Ev, symObjAddr: 0xD550, symBinAddr: 0x10000FDE8, symSize: 0x18 }
  - { offset: 0x4BF49, size: 0x8, addend: 0x0, symName: __ZNSt3__120__shared_ptr_emplaceI4NodeNS_9allocatorIS1_EEEC2B8ne180100IJRdS6_RmNS_6vectorIdNS2_IdEEEEdES3_TnNS_9enable_ifIXntsr7is_sameINT0_10value_typeENS_19__for_overwrite_tagEEE5valueEiE4typeELi0EEES3_DpOT_, symObjAddr: 0xD5D4, symBinAddr: 0x10000FE6C, symSize: 0xDC }
  - { offset: 0x4C01C, size: 0x8, addend: 0x0, symName: __ZNSt3__119__shared_weak_countC2B8ne180100El, symObjAddr: 0xD6B0, symBinAddr: 0x10000FF48, symSize: 0x4C }
  - { offset: 0x4C054, size: 0x8, addend: 0x0, symName: __ZNSt3__120__shared_ptr_emplaceI4NodeNS_9allocatorIS1_EEE8_StorageC1B8ne180100EOS3_, symObjAddr: 0xD6FC, symBinAddr: 0x10000FF94, symSize: 0x34 }
  - { offset: 0x4C08D, size: 0x8, addend: 0x0, symName: __ZNSt3__120__shared_ptr_emplaceI4NodeNS_9allocatorIS1_EEE11__get_allocB8ne180100Ev, symObjAddr: 0xD730, symBinAddr: 0x10000FFC8, symSize: 0x28 }
  - { offset: 0x4C0B9, size: 0x8, addend: 0x0, symName: __ZNSt3__116allocator_traitsINS_9allocatorI4NodeEEE9constructB8ne180100IS2_JRdS6_RmNS_6vectorIdNS1_IdEEEEdEvEEvRS3_PT_DpOT0_, symObjAddr: 0xD758, symBinAddr: 0x10000FFF0, symSize: 0x54 }
  - { offset: 0x4C160, size: 0x8, addend: 0x0, symName: __ZNSt3__120__shared_ptr_emplaceI4NodeNS_9allocatorIS1_EEE8_StorageD1B8ne180100Ev, symObjAddr: 0xD7AC, symBinAddr: 0x100010044, symSize: 0x2C }
  - { offset: 0x4C18A, size: 0x8, addend: 0x0, symName: __ZNSt3__120__shared_ptr_emplaceI4NodeNS_9allocatorIS1_EEED1Ev, symObjAddr: 0xD7D8, symBinAddr: 0x100010070, symSize: 0x2C }
  - { offset: 0x4C1B6, size: 0x8, addend: 0x0, symName: __ZNSt3__120__shared_ptr_emplaceI4NodeNS_9allocatorIS1_EEED0Ev, symObjAddr: 0xD804, symBinAddr: 0x10001009C, symSize: 0x30 }
  - { offset: 0x4C1E2, size: 0x8, addend: 0x0, symName: __ZNSt3__120__shared_ptr_emplaceI4NodeNS_9allocatorIS1_EEE16__on_zero_sharedEv, symObjAddr: 0xD834, symBinAddr: 0x1000100CC, symSize: 0x24 }
  - { offset: 0x4C208, size: 0x8, addend: 0x0, symName: __ZNSt3__120__shared_ptr_emplaceI4NodeNS_9allocatorIS1_EEE21__on_zero_shared_weakEv, symObjAddr: 0xD858, symBinAddr: 0x1000100F0, symSize: 0x5C }
  - { offset: 0x4C249, size: 0x8, addend: 0x0, symName: __ZNSt3__114__shared_countC2B8ne180100El, symObjAddr: 0xD8B4, symBinAddr: 0x10001014C, symSize: 0x30 }
  - { offset: 0x4C281, size: 0x8, addend: 0x0, symName: __ZNSt3__120__shared_ptr_emplaceI4NodeNS_9allocatorIS1_EEE8_StorageC2B8ne180100EOS3_, symObjAddr: 0xD8E4, symBinAddr: 0x10001017C, symSize: 0x30 }
  - { offset: 0x4C2BA, size: 0x8, addend: 0x0, symName: __ZNSt3__120__shared_ptr_emplaceI4NodeNS_9allocatorIS1_EEE8_Storage11__get_allocB8ne180100Ev, symObjAddr: 0xD914, symBinAddr: 0x1000101AC, symSize: 0x3C }
  - { offset: 0x4C30D, size: 0x8, addend: 0x0, symName: __ZNSt3__117__compressed_pairINS_9allocatorI4NodeEES2_E16__get_first_baseB8ne180100EPS4_, symObjAddr: 0xD950, symBinAddr: 0x1000101E8, symSize: 0x14 }
  - { offset: 0x4C330, size: 0x8, addend: 0x0, symName: __ZNSt3__19allocatorI4NodeE9constructB8ne180100IS1_JRdS4_RmNS_6vectorIdNS0_IdEEEEdEEEvPT_DpOT0_, symObjAddr: 0xD964, symBinAddr: 0x1000101FC, symSize: 0xE8 }
  - { offset: 0x4C3D2, size: 0x8, addend: 0x0, symName: __ZNSt3__16vectorIdNS_9allocatorIdEEEC1B8ne180100EOS3_, symObjAddr: 0xDA4C, symBinAddr: 0x1000102E4, symSize: 0x34 }
  - { offset: 0x4C40D, size: 0x8, addend: 0x0, symName: __ZN4NodeC1EddmNSt3__16vectorIdNS0_9allocatorIdEEEEdNS0_10shared_ptrIS_EE, symObjAddr: 0xDA80, symBinAddr: 0x100010318, symSize: 0x5C }
  - { offset: 0x4C48D, size: 0x8, addend: 0x0, symName: __ZNSt3__16vectorIdNS_9allocatorIdEEEC2B8ne180100EOS3_, symObjAddr: 0xDADC, symBinAddr: 0x100010374, symSize: 0xC4 }
  - { offset: 0x4C4C8, size: 0x8, addend: 0x0, symName: __ZNSt3__16vectorIdNS_9allocatorIdEEE7__allocB8ne180100Ev, symObjAddr: 0xDBA0, symBinAddr: 0x100010438, symSize: 0x28 }
  - { offset: 0x4C4F4, size: 0x8, addend: 0x0, symName: __ZNSt3__117__compressed_pairIPdNS_9allocatorIdEEEC1B8ne180100IDnS3_EEOT_OT0_, symObjAddr: 0xDBC8, symBinAddr: 0x100010460, symSize: 0x3C }
  - { offset: 0x4C54C, size: 0x8, addend: 0x0, symName: __ZNSt3__16vectorIdNS_9allocatorIdEEE9__end_capB8ne180100Ev, symObjAddr: 0xDC04, symBinAddr: 0x10001049C, symSize: 0x28 }
  - { offset: 0x4C572, size: 0x8, addend: 0x0, symName: __ZNSt3__117__compressed_pairIPdNS_9allocatorIdEEE6secondB8ne180100Ev, symObjAddr: 0xDC2C, symBinAddr: 0x1000104C4, symSize: 0x24 }
  - { offset: 0x4C598, size: 0x8, addend: 0x0, symName: __ZNSt3__122__compressed_pair_elemINS_9allocatorIdEELi1ELb1EE5__getB8ne180100Ev, symObjAddr: 0xDC50, symBinAddr: 0x1000104E8, symSize: 0x14 }
  - { offset: 0x4C5BE, size: 0x8, addend: 0x0, symName: __ZNSt3__117__compressed_pairIPdNS_9allocatorIdEEEC2B8ne180100IDnS3_EEOT_OT0_, symObjAddr: 0xDC64, symBinAddr: 0x1000104FC, symSize: 0x44 }
  - { offset: 0x4C616, size: 0x8, addend: 0x0, symName: __ZNSt3__122__compressed_pair_elemIPdLi0ELb0EEC2B8ne180100IDnvEEOT_, symObjAddr: 0xDCA8, symBinAddr: 0x100010540, symSize: 0x1C }
  - { offset: 0x4C658, size: 0x8, addend: 0x0, symName: __ZNSt3__122__compressed_pair_elemINS_9allocatorIdEELi1ELb1EEC2B8ne180100IS2_vEEOT_, symObjAddr: 0xDCC4, symBinAddr: 0x10001055C, symSize: 0x18 }
  - { offset: 0x4C69A, size: 0x8, addend: 0x0, symName: __ZNSt3__117__compressed_pairIPdNS_9allocatorIdEEE5firstB8ne180100Ev, symObjAddr: 0xDCDC, symBinAddr: 0x100010574, symSize: 0x24 }
  - { offset: 0x4C6C0, size: 0x8, addend: 0x0, symName: __ZNSt3__122__compressed_pair_elemIPdLi0ELb0EE5__getB8ne180100Ev, symObjAddr: 0xDD00, symBinAddr: 0x100010598, symSize: 0x14 }
  - { offset: 0x4C6E6, size: 0x8, addend: 0x0, symName: __ZN4NodeC2EddmNSt3__16vectorIdNS0_9allocatorIdEEEEdNS0_10shared_ptrIS_EE, symObjAddr: 0xDD14, symBinAddr: 0x1000105AC, symSize: 0x18C }
  - { offset: 0x4C77A, size: 0x8, addend: 0x0, symName: __ZNSt16initializer_listIdEC1B8ne180100Ev, symObjAddr: 0xDEA0, symBinAddr: 0x100010738, symSize: 0x2C }
  - { offset: 0x4C7A4, size: 0x8, addend: 0x0, symName: __ZNSt3__110shared_ptrI4NodeEC1B8ne180100ERKS2_, symObjAddr: 0xDECC, symBinAddr: 0x100010764, symSize: 0x34 }
  - { offset: 0x4C7DD, size: 0x8, addend: 0x0, symName: __ZNSt16initializer_listIdEC2B8ne180100Ev, symObjAddr: 0xDF00, symBinAddr: 0x100010798, symSize: 0x1C }
  - { offset: 0x4C807, size: 0x8, addend: 0x0, symName: __ZNSt3__110shared_ptrI4NodeEC2B8ne180100ERKS2_, symObjAddr: 0xDF1C, symBinAddr: 0x1000107B4, symSize: 0x68 }
  - { offset: 0x4C840, size: 0x8, addend: 0x0, symName: __ZNSt3__120__shared_ptr_emplaceI4NodeNS_9allocatorIS1_EEE8_StorageD2B8ne180100Ev, symObjAddr: 0xDF84, symBinAddr: 0x10001081C, symSize: 0x2C }
  - { offset: 0x4C86A, size: 0x8, addend: 0x0, symName: __ZNSt3__120__shared_ptr_emplaceI4NodeNS_9allocatorIS1_EEED2Ev, symObjAddr: 0xDFB0, symBinAddr: 0x100010848, symSize: 0x48 }
  - { offset: 0x4C896, size: 0x8, addend: 0x0, symName: __ZNSt3__120__shared_ptr_emplaceI4NodeNS_9allocatorIS1_EEE21__on_zero_shared_implB8ne180100IS3_TnNS_9enable_ifIXntsr7is_sameINT_10value_typeENS_19__for_overwrite_tagEEE5valueEiE4typeELi0EEEvv, symObjAddr: 0xDFF8, symBinAddr: 0x100010890, symSize: 0x44 }
  - { offset: 0x4C8E6, size: 0x8, addend: 0x0, symName: __ZNSt3__116allocator_traitsINS_9allocatorI4NodeEEE7destroyB8ne180100IS2_vEEvRS3_PT_, symObjAddr: 0xE03C, symBinAddr: 0x1000108D4, symSize: 0x2C }
  - { offset: 0x4C923, size: 0x8, addend: 0x0, symName: __ZNSt3__19allocatorI4NodeE7destroyB8ne180100EPS1_, symObjAddr: 0xE068, symBinAddr: 0x100010900, symSize: 0x28 }
  - { offset: 0x4C957, size: 0x8, addend: 0x0, symName: __ZN4NodeD1Ev, symObjAddr: 0xE090, symBinAddr: 0x100010928, symSize: 0x2C }
  - { offset: 0x4C981, size: 0x8, addend: 0x0, symName: __ZN4NodeD2Ev, symObjAddr: 0xE0BC, symBinAddr: 0x100010954, symSize: 0x48 }
  - { offset: 0x4C9AB, size: 0x8, addend: 0x0, symName: __ZNSt3__116allocator_traitsINS_9allocatorINS_20__shared_ptr_emplaceI4NodeNS1_IS3_EEEEEEE10deallocateB8ne180100ERS6_PS5_m, symObjAddr: 0xE104, symBinAddr: 0x10001099C, symSize: 0x34 }
  - { offset: 0x4C9ED, size: 0x8, addend: 0x0, symName: __ZNSt3__114pointer_traitsIPNS_20__shared_ptr_emplaceI4NodeNS_9allocatorIS2_EEEEE10pointer_toB8ne180100ERS5_, symObjAddr: 0xE138, symBinAddr: 0x1000109D0, symSize: 0x14 }
  - { offset: 0x4CA10, size: 0x8, addend: 0x0, symName: __ZNSt3__19allocatorINS_20__shared_ptr_emplaceI4NodeNS0_IS2_EEEEE10deallocateB8ne180100EPS4_m, symObjAddr: 0xE14C, symBinAddr: 0x1000109E4, symSize: 0x44 }
  - { offset: 0x4CA52, size: 0x8, addend: 0x0, symName: __ZNSt3__110shared_ptrI4NodeEC1B8ne180100Ev, symObjAddr: 0xE298, symBinAddr: 0x100010B30, symSize: 0x2C }
  - { offset: 0x4CA7C, size: 0x8, addend: 0x0, symName: __ZNSt3__110shared_ptrI4NodeE18__enable_weak_thisB8ne180100Ez, symObjAddr: 0xE2C4, symBinAddr: 0x100010B5C, symSize: 0x10 }
  - { offset: 0x4CAA3, size: 0x8, addend: 0x0, symName: __ZNSt3__110shared_ptrI4NodeEC2B8ne180100Ev, symObjAddr: 0xE2D4, symBinAddr: 0x100010B6C, symSize: 0x1C }
  - { offset: 0x4CACD, size: 0x8, addend: 0x0, symName: __ZNSt3__120__shared_ptr_emplaceI4NodeNS_9allocatorIS1_EEE8_Storage10__get_elemB8ne180100Ev, symObjAddr: 0xE2F0, symBinAddr: 0x100010B88, symSize: 0x3C }
  - { offset: 0x4CB20, size: 0x8, addend: 0x0, symName: __ZNSt3__117__compressed_pairINS_9allocatorI4NodeEES2_E17__get_second_baseB8ne180100EPS4_, symObjAddr: 0xE32C, symBinAddr: 0x100010BC4, symSize: 0x14 }
  - { offset: 0x4CB43, size: 0x8, addend: 0x0, symName: __ZNSt3__118__allocation_guardINS_9allocatorINS_20__shared_ptr_emplaceI4NodeNS1_IS3_EEEEEEED2B8ne180100Ev, symObjAddr: 0xE340, symBinAddr: 0x100010BD8, symSize: 0x2C }
  - { offset: 0x4CB6D, size: 0x8, addend: 0x0, symName: __ZNSt3__118__allocation_guardINS_9allocatorINS_20__shared_ptr_emplaceI4NodeNS1_IS3_EEEEEEE9__destroyB8ne180100Ev, symObjAddr: 0xE36C, symBinAddr: 0x100010C04, symSize: 0x44 }
  - { offset: 0x4CB93, size: 0x8, addend: 0x0, symName: __ZNSt3__19allocatorI4NodeEC2B8ne180100Ev, symObjAddr: 0xE3B0, symBinAddr: 0x100010C48, symSize: 0x2C }
  - { offset: 0x4CBBD, size: 0x8, addend: 0x0, symName: __ZNSt3__116__non_trivial_ifILb1ENS_9allocatorI4NodeEEEC2B8ne180100Ev, symObjAddr: 0xE3DC, symBinAddr: 0x100010C74, symSize: 0x14 }
  - { offset: 0x4CBE7, size: 0x8, addend: 0x0, symName: __ZNSt3__16vectorIdNS_9allocatorIdEEEC2EmRKd, symObjAddr: 0xE3F0, symBinAddr: 0x100010C88, symSize: 0xD8 }
  - { offset: 0x4CC46, size: 0x8, addend: 0x0, symName: __ZNSt3__117__compressed_pairIPdNS_9allocatorIdEEEC1B8ne180100IDnNS_18__default_init_tagEEEOT_OT0_, symObjAddr: 0xE4C8, symBinAddr: 0x100010D60, symSize: 0x3C }
  - { offset: 0x4CC9E, size: 0x8, addend: 0x0, symName: __ZNSt3__16vectorIdNS_9allocatorIdEEE16__destroy_vectorC1B8ne180100ERS3_, symObjAddr: 0xE544, symBinAddr: 0x100010DDC, symSize: 0x34 }
  - { offset: 0x4CCD7, size: 0x8, addend: 0x0, symName: __ZNSt3__16vectorIdNS_9allocatorIdEEE11__vallocateB8ne180100Em, symObjAddr: 0xE578, symBinAddr: 0x100010E10, symSize: 0xA8 }
  - { offset: 0x4CD1B, size: 0x8, addend: 0x0, symName: __ZNSt3__16vectorIdNS_9allocatorIdEEE18__construct_at_endEmRKd, symObjAddr: 0xE620, symBinAddr: 0x100010EB8, symSize: 0xCC }
  - { offset: 0x4CD9D, size: 0x8, addend: 0x0, symName: __ZNSt3__128__exception_guard_exceptionsINS_6vectorIdNS_9allocatorIdEEE16__destroy_vectorEE10__completeB8ne180100Ev, symObjAddr: 0xE6EC, symBinAddr: 0x100010F84, symSize: 0x1C }
  - { offset: 0x4CDC3, size: 0x8, addend: 0x0, symName: __ZNSt3__128__exception_guard_exceptionsINS_6vectorIdNS_9allocatorIdEEE16__destroy_vectorEED1B8ne180100Ev, symObjAddr: 0xE708, symBinAddr: 0x100010FA0, symSize: 0x2C }
  - { offset: 0x4CDED, size: 0x8, addend: 0x0, symName: __ZNSt3__117__compressed_pairIPdNS_9allocatorIdEEEC2B8ne180100IDnNS_18__default_init_tagEEEOT_OT0_, symObjAddr: 0xE734, symBinAddr: 0x100010FCC, symSize: 0x40 }
  - { offset: 0x4CE45, size: 0x8, addend: 0x0, symName: __ZNSt3__122__compressed_pair_elemINS_9allocatorIdEELi1ELb1EEC2B8ne180100ENS_18__default_init_tagE, symObjAddr: 0xE774, symBinAddr: 0x10001100C, symSize: 0x2C }
  - { offset: 0x4CE79, size: 0x8, addend: 0x0, symName: __ZNSt3__19allocatorIdEC2B8ne180100Ev, symObjAddr: 0xE7A0, symBinAddr: 0x100011038, symSize: 0x2C }
  - { offset: 0x4CEA3, size: 0x8, addend: 0x0, symName: __ZNSt3__116__non_trivial_ifILb1ENS_9allocatorIdEEEC2B8ne180100Ev, symObjAddr: 0xE7CC, symBinAddr: 0x100011064, symSize: 0x14 }
  - { offset: 0x4CECD, size: 0x8, addend: 0x0, symName: __ZNSt3__128__exception_guard_exceptionsINS_6vectorIdNS_9allocatorIdEEE16__destroy_vectorEEC1B8ne180100ES5_, symObjAddr: 0xE7E0, symBinAddr: 0x100011078, symSize: 0x34 }
  - { offset: 0x4CF05, size: 0x8, addend: 0x0, symName: __ZNSt3__128__exception_guard_exceptionsINS_6vectorIdNS_9allocatorIdEEE16__destroy_vectorEEC2B8ne180100ES5_, symObjAddr: 0xE814, symBinAddr: 0x1000110AC, symSize: 0x24 }
  - { offset: 0x4CF3D, size: 0x8, addend: 0x0, symName: __ZNSt3__16vectorIdNS_9allocatorIdEEE16__destroy_vectorC2B8ne180100ERS3_, symObjAddr: 0xE838, symBinAddr: 0x1000110D0, symSize: 0x20 }
  - { offset: 0x4CF76, size: 0x8, addend: 0x0, symName: __ZNKSt3__16vectorIdNS_9allocatorIdEEE8max_sizeEv, symObjAddr: 0xE858, symBinAddr: 0x1000110F0, symSize: 0x60 }
  - { offset: 0x4CF9E, size: 0x8, addend: 0x0, symName: __ZNKSt3__16vectorIdNS_9allocatorIdEEE20__throw_length_errorB8ne180100Ev, symObjAddr: 0xE8B8, symBinAddr: 0x100011150, symSize: 0x1C }
  - { offset: 0x4CFC4, size: 0x8, addend: 0x0, symName: __ZNKSt3__16vectorIdNS_9allocatorIdEEE14__annotate_newB8ne180100Em, symObjAddr: 0xE914, symBinAddr: 0x1000111AC, symSize: 0x14 }
  - { offset: 0x4D004, size: 0x8, addend: 0x0, symName: __ZNSt3__116allocator_traitsINS_9allocatorIdEEE8max_sizeB8ne180100IS2_vEEmRKS2_, symObjAddr: 0xE954, symBinAddr: 0x1000111EC, symSize: 0x24 }
  - { offset: 0x4D032, size: 0x8, addend: 0x0, symName: __ZNKSt3__16vectorIdNS_9allocatorIdEEE7__allocB8ne180100Ev, symObjAddr: 0xE978, symBinAddr: 0x100011210, symSize: 0x28 }
  - { offset: 0x4D058, size: 0x8, addend: 0x0, symName: __ZNKSt3__19allocatorIdE8max_sizeB8ne180100Ev, symObjAddr: 0xE9F4, symBinAddr: 0x10001128C, symSize: 0x14 }
  - { offset: 0x4D07E, size: 0x8, addend: 0x0, symName: __ZNKSt3__117__compressed_pairIPdNS_9allocatorIdEEE6secondB8ne180100Ev, symObjAddr: 0xEA08, symBinAddr: 0x1000112A0, symSize: 0x24 }
  - { offset: 0x4D0A4, size: 0x8, addend: 0x0, symName: __ZNKSt3__122__compressed_pair_elemINS_9allocatorIdEELi1ELb1EE5__getB8ne180100Ev, symObjAddr: 0xEA2C, symBinAddr: 0x1000112C4, symSize: 0x14 }
  - { offset: 0x4D0CA, size: 0x8, addend: 0x0, symName: __ZNSt12length_errorC1B8ne180100EPKc, symObjAddr: 0xEAA4, symBinAddr: 0x10001133C, symSize: 0x34 }
  - { offset: 0x4D102, size: 0x8, addend: 0x0, symName: __ZNSt12length_errorC2B8ne180100EPKc, symObjAddr: 0xEAD8, symBinAddr: 0x100011370, symSize: 0x44 }
  - { offset: 0x4D13A, size: 0x8, addend: 0x0, symName: __ZNSt3__19allocatorIdE8allocateB8ne180100Em, symObjAddr: 0xEB1C, symBinAddr: 0x1000113B4, symSize: 0x54 }
  - { offset: 0x4D18A, size: 0x8, addend: 0x0, symName: __ZNSt3__16vectorIdNS_9allocatorIdEEE21_ConstructTransactionC1B8ne180100ERS3_m, symObjAddr: 0xEB70, symBinAddr: 0x100011408, symSize: 0x3C }
  - { offset: 0x4D1D2, size: 0x8, addend: 0x0, symName: __ZNSt3__116allocator_traitsINS_9allocatorIdEEE9constructB8ne180100IdJRKdEvEEvRS2_PT_DpOT0_, symObjAddr: 0xEBAC, symBinAddr: 0x100011444, symSize: 0x34 }
  - { offset: 0x4D229, size: 0x8, addend: 0x0, symName: __ZNSt3__16vectorIdNS_9allocatorIdEEE21_ConstructTransactionD1B8ne180100Ev, symObjAddr: 0xEBF4, symBinAddr: 0x10001148C, symSize: 0x2C }
  - { offset: 0x4D253, size: 0x8, addend: 0x0, symName: __ZNSt3__16vectorIdNS_9allocatorIdEEE21_ConstructTransactionC2B8ne180100ERS3_m, symObjAddr: 0xEC20, symBinAddr: 0x1000114B8, symSize: 0x44 }
  - { offset: 0x4D29B, size: 0x8, addend: 0x0, symName: __ZNSt3__19allocatorIdE9constructB8ne180100IdJRKdEEEvPT_DpOT0_, symObjAddr: 0xEC64, symBinAddr: 0x1000114FC, symSize: 0x28 }
  - { offset: 0x4D2F1, size: 0x8, addend: 0x0, symName: __ZNSt3__16vectorIdNS_9allocatorIdEEE21_ConstructTransactionD2B8ne180100Ev, symObjAddr: 0xEC8C, symBinAddr: 0x100011524, symSize: 0x20 }
  - { offset: 0x4D31B, size: 0x8, addend: 0x0, symName: __ZNSt3__128__exception_guard_exceptionsINS_6vectorIdNS_9allocatorIdEEE16__destroy_vectorEED2B8ne180100Ev, symObjAddr: 0xECAC, symBinAddr: 0x100011544, symSize: 0x50 }
  - { offset: 0x4D345, size: 0x8, addend: 0x0, symName: __ZNSt3__16vectorIdNS_9allocatorIdEEE16__destroy_vectorclB8ne180100Ev, symObjAddr: 0xECFC, symBinAddr: 0x100011594, symSize: 0x88 }
  - { offset: 0x4D36B, size: 0x8, addend: 0x0, symName: __ZNSt3__16vectorIdNS_9allocatorIdEEE7__clearB8ne180100Ev, symObjAddr: 0xED84, symBinAddr: 0x10001161C, symSize: 0x28 }
  - { offset: 0x4D391, size: 0x8, addend: 0x0, symName: __ZNKSt3__16vectorIdNS_9allocatorIdEEE17__annotate_deleteB8ne180100Ev, symObjAddr: 0xEDAC, symBinAddr: 0x100011644, symSize: 0x10 }
  - { offset: 0x4D3B7, size: 0x8, addend: 0x0, symName: __ZNSt3__116allocator_traitsINS_9allocatorIdEEE10deallocateB8ne180100ERS2_Pdm, symObjAddr: 0xEDBC, symBinAddr: 0x100011654, symSize: 0x34 }
  - { offset: 0x4D3F9, size: 0x8, addend: 0x0, symName: __ZNKSt3__16vectorIdNS_9allocatorIdEEE8capacityB8ne180100Ev, symObjAddr: 0xEDF0, symBinAddr: 0x100011688, symSize: 0x40 }
  - { offset: 0x4D41F, size: 0x8, addend: 0x0, symName: __ZNSt3__16vectorIdNS_9allocatorIdEEE22__base_destruct_at_endB8ne180100EPd, symObjAddr: 0xEE30, symBinAddr: 0x1000116C8, symSize: 0x88 }
  - { offset: 0x4D463, size: 0x8, addend: 0x0, symName: __ZNSt3__116allocator_traitsINS_9allocatorIdEEE7destroyB8ne180100IdvEEvRS2_PT_, symObjAddr: 0xEEB8, symBinAddr: 0x100011750, symSize: 0x2C }
  - { offset: 0x4D4A0, size: 0x8, addend: 0x0, symName: __ZNSt3__19allocatorIdE7destroyB8ne180100EPd, symObjAddr: 0xEEE4, symBinAddr: 0x10001177C, symSize: 0x14 }
  - { offset: 0x4D4D4, size: 0x8, addend: 0x0, symName: __ZNSt3__19allocatorIdE10deallocateB8ne180100EPdm, symObjAddr: 0xEEF8, symBinAddr: 0x100011790, symSize: 0x40 }
  - { offset: 0x4D516, size: 0x8, addend: 0x0, symName: __ZNKSt3__16vectorIdNS_9allocatorIdEEE9__end_capB8ne180100Ev, symObjAddr: 0xEF38, symBinAddr: 0x1000117D0, symSize: 0x28 }
  - { offset: 0x4D53C, size: 0x8, addend: 0x0, symName: __ZNKSt3__117__compressed_pairIPdNS_9allocatorIdEEE5firstB8ne180100Ev, symObjAddr: 0xEF60, symBinAddr: 0x1000117F8, symSize: 0x24 }
  - { offset: 0x4D562, size: 0x8, addend: 0x0, symName: __ZNKSt3__122__compressed_pair_elemIPdLi0ELb0EE5__getB8ne180100Ev, symObjAddr: 0xEF84, symBinAddr: 0x10001181C, symSize: 0x14 }
  - { offset: 0x4D588, size: 0x8, addend: 0x0, symName: __ZNKSt3__110__function12__value_funcIFdRKNS_10shared_ptrI4NodeEES6_EEclB8ne180100ES6_S6_, symObjAddr: 0xEF98, symBinAddr: 0x100011830, symSize: 0x58 }
  - { offset: 0x4D5CC, size: 0x8, addend: 0x0, symName: __ZNSt3__16vectorINS_10shared_ptrI4NodeEENS_9allocatorIS3_EEE9__end_capB8ne180100Ev, symObjAddr: 0xEFF0, symBinAddr: 0x100011888, symSize: 0x28 }
  - { offset: 0x4D5F2, size: 0x8, addend: 0x0, symName: __ZNSt3__16vectorINS_10shared_ptrI4NodeEENS_9allocatorIS3_EEE22__construct_one_at_endB8ne180100IJRKS3_EEEvDpOT_, symObjAddr: 0xF018, symBinAddr: 0x1000118B0, symSize: 0x90 }
  - { offset: 0x4D641, size: 0x8, addend: 0x0, symName: __ZNSt3__16vectorINS_10shared_ptrI4NodeEENS_9allocatorIS3_EEE21__push_back_slow_pathIRKS3_EEPS3_OT_, symObjAddr: 0xF0A8, symBinAddr: 0x100011940, symSize: 0xE8 }
  - { offset: 0x4D69D, size: 0x8, addend: 0x0, symName: __ZNSt3__117__compressed_pairIPNS_10shared_ptrI4NodeEENS_9allocatorIS3_EEE5firstB8ne180100Ev, symObjAddr: 0xF190, symBinAddr: 0x100011A28, symSize: 0x24 }
  - { offset: 0x4D6C3, size: 0x8, addend: 0x0, symName: __ZNSt3__122__compressed_pair_elemIPNS_10shared_ptrI4NodeEELi0ELb0EE5__getB8ne180100Ev, symObjAddr: 0xF1B4, symBinAddr: 0x100011A4C, symSize: 0x14 }
  - { offset: 0x4D705, size: 0x8, addend: 0x0, symName: __ZNSt3__16vectorINS_10shared_ptrI4NodeEENS_9allocatorIS3_EEE21_ConstructTransactionC1B8ne180100ERS6_m, symObjAddr: 0xF1C8, symBinAddr: 0x100011A60, symSize: 0x3C }
  - { offset: 0x4D74D, size: 0x8, addend: 0x0, symName: __ZNSt3__116allocator_traitsINS_9allocatorINS_10shared_ptrI4NodeEEEEE9constructB8ne180100IS4_JRKS4_EvEEvRS5_PT_DpOT0_, symObjAddr: 0xF204, symBinAddr: 0x100011A9C, symSize: 0x34 }
  - { offset: 0x4D7A4, size: 0x8, addend: 0x0, symName: __ZNSt3__16vectorINS_10shared_ptrI4NodeEENS_9allocatorIS3_EEE7__allocB8ne180100Ev, symObjAddr: 0xF238, symBinAddr: 0x100011AD0, symSize: 0x28 }
  - { offset: 0x4D7CA, size: 0x8, addend: 0x0, symName: __ZNSt3__16vectorINS_10shared_ptrI4NodeEENS_9allocatorIS3_EEE21_ConstructTransactionD1B8ne180100Ev, symObjAddr: 0xF274, symBinAddr: 0x100011B0C, symSize: 0x2C }
  - { offset: 0x4D7F4, size: 0x8, addend: 0x0, symName: __ZNSt3__16vectorINS_10shared_ptrI4NodeEENS_9allocatorIS3_EEE21_ConstructTransactionC2B8ne180100ERS6_m, symObjAddr: 0xF2A0, symBinAddr: 0x100011B38, symSize: 0x44 }
  - { offset: 0x4D83C, size: 0x8, addend: 0x0, symName: __ZNSt3__19allocatorINS_10shared_ptrI4NodeEEE9constructB8ne180100IS3_JRKS3_EEEvPT_DpOT0_, symObjAddr: 0xF2E4, symBinAddr: 0x100011B7C, symSize: 0x30 }
  - { offset: 0x4D892, size: 0x8, addend: 0x0, symName: __ZNSt3__117__compressed_pairIPNS_10shared_ptrI4NodeEENS_9allocatorIS3_EEE6secondB8ne180100Ev, symObjAddr: 0xF314, symBinAddr: 0x100011BAC, symSize: 0x24 }
  - { offset: 0x4D8B8, size: 0x8, addend: 0x0, symName: __ZNSt3__122__compressed_pair_elemINS_9allocatorINS_10shared_ptrI4NodeEEEELi1ELb1EE5__getB8ne180100Ev, symObjAddr: 0xF338, symBinAddr: 0x100011BD0, symSize: 0x14 }
  - { offset: 0x4D8DE, size: 0x8, addend: 0x0, symName: __ZNSt3__16vectorINS_10shared_ptrI4NodeEENS_9allocatorIS3_EEE21_ConstructTransactionD2B8ne180100Ev, symObjAddr: 0xF34C, symBinAddr: 0x100011BE4, symSize: 0x20 }
  - { offset: 0x4D908, size: 0x8, addend: 0x0, symName: __ZNKSt3__16vectorINS_10shared_ptrI4NodeEENS_9allocatorIS3_EEE11__recommendB8ne180100Em, symObjAddr: 0xF36C, symBinAddr: 0x100011C04, symSize: 0xAC }
  - { offset: 0x4D95D, size: 0x8, addend: 0x0, symName: __ZNSt3__114__split_bufferINS_10shared_ptrI4NodeEERNS_9allocatorIS3_EEEC1EmmS6_, symObjAddr: 0xF418, symBinAddr: 0x100011CB0, symSize: 0x44 }
  - { offset: 0x4D9B3, size: 0x8, addend: 0x0, symName: __ZNSt3__114__split_bufferINS_10shared_ptrI4NodeEERNS_9allocatorIS3_EEED1Ev, symObjAddr: 0xF56C, symBinAddr: 0x100011E04, symSize: 0x2C }
  - { offset: 0x4D9DF, size: 0x8, addend: 0x0, symName: __ZNKSt3__16vectorINS_10shared_ptrI4NodeEENS_9allocatorIS3_EEE8max_sizeEv, symObjAddr: 0xF598, symBinAddr: 0x100011E30, symSize: 0x60 }
  - { offset: 0x4DA07, size: 0x8, addend: 0x0, symName: __ZNKSt3__16vectorINS_10shared_ptrI4NodeEENS_9allocatorIS3_EEE20__throw_length_errorB8ne180100Ev, symObjAddr: 0xF5F8, symBinAddr: 0x100011E90, symSize: 0x1C }
  - { offset: 0x4DA2D, size: 0x8, addend: 0x0, symName: __ZNKSt3__16vectorINS_10shared_ptrI4NodeEENS_9allocatorIS3_EEE8capacityB8ne180100Ev, symObjAddr: 0xF614, symBinAddr: 0x100011EAC, symSize: 0x40 }
  - { offset: 0x4DA5E, size: 0x8, addend: 0x0, symName: __ZNSt3__116allocator_traitsINS_9allocatorINS_10shared_ptrI4NodeEEEEE8max_sizeB8ne180100IS5_vEEmRKS5_, symObjAddr: 0xF680, symBinAddr: 0x100011F18, symSize: 0x24 }
  - { offset: 0x4DA8C, size: 0x8, addend: 0x0, symName: __ZNKSt3__16vectorINS_10shared_ptrI4NodeEENS_9allocatorIS3_EEE7__allocB8ne180100Ev, symObjAddr: 0xF6A4, symBinAddr: 0x100011F3C, symSize: 0x28 }
  - { offset: 0x4DAB2, size: 0x8, addend: 0x0, symName: __ZNKSt3__19allocatorINS_10shared_ptrI4NodeEEE8max_sizeB8ne180100Ev, symObjAddr: 0xF6CC, symBinAddr: 0x100011F64, symSize: 0x14 }
  - { offset: 0x4DAD8, size: 0x8, addend: 0x0, symName: __ZNKSt3__117__compressed_pairIPNS_10shared_ptrI4NodeEENS_9allocatorIS3_EEE6secondB8ne180100Ev, symObjAddr: 0xF6E0, symBinAddr: 0x100011F78, symSize: 0x24 }
  - { offset: 0x4DAFE, size: 0x8, addend: 0x0, symName: __ZNKSt3__122__compressed_pair_elemINS_9allocatorINS_10shared_ptrI4NodeEEEELi1ELb1EE5__getB8ne180100Ev, symObjAddr: 0xF704, symBinAddr: 0x100011F9C, symSize: 0x14 }
  - { offset: 0x4DB24, size: 0x8, addend: 0x0, symName: __ZNKSt3__16vectorINS_10shared_ptrI4NodeEENS_9allocatorIS3_EEE9__end_capB8ne180100Ev, symObjAddr: 0xF718, symBinAddr: 0x100011FB0, symSize: 0x28 }
  - { offset: 0x4DB4A, size: 0x8, addend: 0x0, symName: __ZNKSt3__117__compressed_pairIPNS_10shared_ptrI4NodeEENS_9allocatorIS3_EEE5firstB8ne180100Ev, symObjAddr: 0xF740, symBinAddr: 0x100011FD8, symSize: 0x24 }
  - { offset: 0x4DB70, size: 0x8, addend: 0x0, symName: __ZNKSt3__122__compressed_pair_elemIPNS_10shared_ptrI4NodeEELi0ELb0EE5__getB8ne180100Ev, symObjAddr: 0xF764, symBinAddr: 0x100011FFC, symSize: 0x14 }
  - { offset: 0x4DB96, size: 0x8, addend: 0x0, symName: __ZNSt3__114__split_bufferINS_10shared_ptrI4NodeEERNS_9allocatorIS3_EEEC2EmmS6_, symObjAddr: 0xF7CC, symBinAddr: 0x100012064, symSize: 0xCC }
  - { offset: 0x4DC0A, size: 0x8, addend: 0x0, symName: __ZNSt3__117__compressed_pairIPNS_10shared_ptrI4NodeEERNS_9allocatorIS3_EEEC1B8ne180100IDnS7_EEOT_OT0_, symObjAddr: 0xF898, symBinAddr: 0x100012130, symSize: 0x3C }
  - { offset: 0x4DC62, size: 0x8, addend: 0x0, symName: __ZNSt3__114__split_bufferINS_10shared_ptrI4NodeEERNS_9allocatorIS3_EEE7__allocB8ne180100Ev, symObjAddr: 0xF914, symBinAddr: 0x1000121AC, symSize: 0x28 }
  - { offset: 0x4DC88, size: 0x8, addend: 0x0, symName: __ZNSt3__114__split_bufferINS_10shared_ptrI4NodeEERNS_9allocatorIS3_EEE9__end_capB8ne180100Ev, symObjAddr: 0xF93C, symBinAddr: 0x1000121D4, symSize: 0x28 }
  - { offset: 0x4DCAE, size: 0x8, addend: 0x0, symName: __ZNSt3__117__compressed_pairIPNS_10shared_ptrI4NodeEERNS_9allocatorIS3_EEEC2B8ne180100IDnS7_EEOT_OT0_, symObjAddr: 0xF964, symBinAddr: 0x1000121FC, symSize: 0x48 }
  - { offset: 0x4DD06, size: 0x8, addend: 0x0, symName: __ZNSt3__122__compressed_pair_elemIPNS_10shared_ptrI4NodeEELi0ELb0EEC2B8ne180100IDnvEEOT_, symObjAddr: 0xF9AC, symBinAddr: 0x100012244, symSize: 0x1C }
  - { offset: 0x4DD48, size: 0x8, addend: 0x0, symName: __ZNSt3__122__compressed_pair_elemIRNS_9allocatorINS_10shared_ptrI4NodeEEEELi1ELb0EEC2B8ne180100IS6_vEEOT_, symObjAddr: 0xF9C8, symBinAddr: 0x100012260, symSize: 0x20 }
  - { offset: 0x4DD8A, size: 0x8, addend: 0x0, symName: __ZNSt3__19allocatorINS_10shared_ptrI4NodeEEE8allocateB8ne180100Em, symObjAddr: 0xF9E8, symBinAddr: 0x100012280, symSize: 0x54 }
  - { offset: 0x4DDBE, size: 0x8, addend: 0x0, symName: __ZNSt3__117__compressed_pairIPNS_10shared_ptrI4NodeEERNS_9allocatorIS3_EEE6secondB8ne180100Ev, symObjAddr: 0xFA3C, symBinAddr: 0x1000122D4, symSize: 0x28 }
  - { offset: 0x4DDE4, size: 0x8, addend: 0x0, symName: __ZNSt3__122__compressed_pair_elemIRNS_9allocatorINS_10shared_ptrI4NodeEEEELi1ELb0EE5__getB8ne180100Ev, symObjAddr: 0xFA64, symBinAddr: 0x1000122FC, symSize: 0x18 }
  - { offset: 0x4DE0A, size: 0x8, addend: 0x0, symName: __ZNSt3__117__compressed_pairIPNS_10shared_ptrI4NodeEERNS_9allocatorIS3_EEE5firstB8ne180100Ev, symObjAddr: 0xFA7C, symBinAddr: 0x100012314, symSize: 0x24 }
  - { offset: 0x4DE30, size: 0x8, addend: 0x0, symName: __ZNKSt3__16vectorINS_10shared_ptrI4NodeEENS_9allocatorIS3_EEE17__annotate_deleteB8ne180100Ev, symObjAddr: 0xFAA0, symBinAddr: 0x100012338, symSize: 0x10 }
  - { offset: 0x4DE56, size: 0x8, addend: 0x0, symName: __ZNSt3__116reverse_iteratorIPNS_10shared_ptrI4NodeEEEC1B8ne180100ES4_, symObjAddr: 0xFBDC, symBinAddr: 0x100012474, symSize: 0x34 }
  - { offset: 0x4DE8E, size: 0x8, addend: 0x0, symName: __ZNKSt3__116reverse_iteratorIPNS_10shared_ptrI4NodeEEE4baseB8ne180100Ev, symObjAddr: 0xFC10, symBinAddr: 0x1000124A8, symSize: 0x18 }
  - { offset: 0x4DEB4, size: 0x8, addend: 0x0, symName: __ZNKSt3__16vectorINS_10shared_ptrI4NodeEENS_9allocatorIS3_EEE14__annotate_newB8ne180100Em, symObjAddr: 0xFC64, symBinAddr: 0x1000124FC, symSize: 0x14 }
  - { offset: 0x4DEE9, size: 0x8, addend: 0x0, symName: __ZNSt3__129_AllocatorDestroyRangeReverseINS_9allocatorINS_10shared_ptrI4NodeEEEENS_16reverse_iteratorIPS4_EEEC1B8ne180100ERS5_RS8_SB_, symObjAddr: 0xFCC4, symBinAddr: 0x10001255C, symSize: 0x44 }
  - { offset: 0x4DF40, size: 0x8, addend: 0x0, symName: __ZNSt3__116allocator_traitsINS_9allocatorINS_10shared_ptrI4NodeEEEEE9constructB8ne180100IS4_JS4_EvEEvRS5_PT_DpOT0_, symObjAddr: 0xFD4C, symBinAddr: 0x1000125E4, symSize: 0x34 }
  - { offset: 0x4DF97, size: 0x8, addend: 0x0, symName: __ZNKSt3__116reverse_iteratorIPNS_10shared_ptrI4NodeEEEdeB8ne180100Ev, symObjAddr: 0xFDA4, symBinAddr: 0x10001263C, symSize: 0x28 }
  - { offset: 0x4DFCB, size: 0x8, addend: 0x0, symName: __ZNSt3__116reverse_iteratorIPNS_10shared_ptrI4NodeEEEppB8ne180100Ev, symObjAddr: 0xFDCC, symBinAddr: 0x100012664, symSize: 0x20 }
  - { offset: 0x4DFF1, size: 0x8, addend: 0x0, symName: __ZNSt3__128__exception_guard_exceptionsINS_29_AllocatorDestroyRangeReverseINS_9allocatorINS_10shared_ptrI4NodeEEEENS_16reverse_iteratorIPS5_EEEEE10__completeB8ne180100Ev, symObjAddr: 0xFDEC, symBinAddr: 0x100012684, symSize: 0x1C }
  - { offset: 0x4E017, size: 0x8, addend: 0x0, symName: __ZNSt3__128__exception_guard_exceptionsINS_29_AllocatorDestroyRangeReverseINS_9allocatorINS_10shared_ptrI4NodeEEEENS_16reverse_iteratorIPS5_EEEEED1B8ne180100Ev, symObjAddr: 0xFE08, symBinAddr: 0x1000126A0, symSize: 0x2C }
  - { offset: 0x4E041, size: 0x8, addend: 0x0, symName: __ZNSt3__128__exception_guard_exceptionsINS_29_AllocatorDestroyRangeReverseINS_9allocatorINS_10shared_ptrI4NodeEEEENS_16reverse_iteratorIPS5_EEEEEC1B8ne180100ESA_, symObjAddr: 0xFE34, symBinAddr: 0x1000126CC, symSize: 0x34 }
  - { offset: 0x4E07A, size: 0x8, addend: 0x0, symName: __ZNSt3__128__exception_guard_exceptionsINS_29_AllocatorDestroyRangeReverseINS_9allocatorINS_10shared_ptrI4NodeEEEENS_16reverse_iteratorIPS5_EEEEEC2B8ne180100ESA_, symObjAddr: 0xFE68, symBinAddr: 0x100012700, symSize: 0x30 }
  - { offset: 0x4E0B3, size: 0x8, addend: 0x0, symName: __ZNSt3__129_AllocatorDestroyRangeReverseINS_9allocatorINS_10shared_ptrI4NodeEEEENS_16reverse_iteratorIPS4_EEEC2B8ne180100ERS5_RS8_SB_, symObjAddr: 0xFE98, symBinAddr: 0x100012730, symSize: 0x38 }
  - { offset: 0x4E10A, size: 0x8, addend: 0x0, symName: __ZNSt3__19allocatorINS_10shared_ptrI4NodeEEE9constructB8ne180100IS3_JS3_EEEvPT_DpOT0_, symObjAddr: 0xFED0, symBinAddr: 0x100012768, symSize: 0x30 }
  - { offset: 0x4E166, size: 0x8, addend: 0x0, symName: __ZNSt3__119__to_address_helperINS_16reverse_iteratorIPNS_10shared_ptrI4NodeEEEEvE6__callB8ne180100ERKS6_, symObjAddr: 0xFF00, symBinAddr: 0x100012798, symSize: 0x38 }
  - { offset: 0x4E189, size: 0x8, addend: 0x0, symName: __ZNKSt3__116reverse_iteratorIPNS_10shared_ptrI4NodeEEEptB8ne180100Ev, symObjAddr: 0xFF38, symBinAddr: 0x1000127D0, symSize: 0x24 }
  - { offset: 0x4E1AF, size: 0x8, addend: 0x0, symName: __ZNSt3__128__exception_guard_exceptionsINS_29_AllocatorDestroyRangeReverseINS_9allocatorINS_10shared_ptrI4NodeEEEENS_16reverse_iteratorIPS5_EEEEED2B8ne180100Ev, symObjAddr: 0xFF5C, symBinAddr: 0x1000127F4, symSize: 0x50 }
  - { offset: 0x4E1D9, size: 0x8, addend: 0x0, symName: __ZNKSt3__129_AllocatorDestroyRangeReverseINS_9allocatorINS_10shared_ptrI4NodeEEEENS_16reverse_iteratorIPS4_EEEclB8ne180100Ev, symObjAddr: 0xFFAC, symBinAddr: 0x100012844, symSize: 0xB0 }
  - { offset: 0x4E200, size: 0x8, addend: 0x0, symName: __ZNSt3__116reverse_iteratorINS0_IPNS_10shared_ptrI4NodeEEEEEC1B8ne180100ES5_, symObjAddr: 0x100CC, symBinAddr: 0x100012964, symSize: 0x3C }
  - { offset: 0x4E238, size: 0x8, addend: 0x0, symName: __ZNSt3__116allocator_traitsINS_9allocatorINS_10shared_ptrI4NodeEEEEE7destroyB8ne180100IS4_vEEvRS5_PT_, symObjAddr: 0x10164, symBinAddr: 0x1000129FC, symSize: 0x2C }
  - { offset: 0x4E275, size: 0x8, addend: 0x0, symName: __ZNSt3__116reverse_iteratorINS0_IPNS_10shared_ptrI4NodeEEEEEppB8ne180100Ev, symObjAddr: 0x101B4, symBinAddr: 0x100012A4C, symSize: 0x30 }
  - { offset: 0x4E29B, size: 0x8, addend: 0x0, symName: __ZNKSt3__116reverse_iteratorINS0_IPNS_10shared_ptrI4NodeEEEEE4baseB8ne180100Ev, symObjAddr: 0x101E4, symBinAddr: 0x100012A7C, symSize: 0x24 }
  - { offset: 0x4E2C1, size: 0x8, addend: 0x0, symName: __ZNSt3__19allocatorINS_10shared_ptrI4NodeEEE7destroyB8ne180100EPS3_, symObjAddr: 0x10208, symBinAddr: 0x100012AA0, symSize: 0x28 }
  - { offset: 0x4E2FB, size: 0x8, addend: 0x0, symName: __ZNSt3__119__to_address_helperINS_16reverse_iteratorINS1_IPNS_10shared_ptrI4NodeEEEEEEvE6__callB8ne180100ERKS7_, symObjAddr: 0x10230, symBinAddr: 0x100012AC8, symSize: 0x38 }
  - { offset: 0x4E31E, size: 0x8, addend: 0x0, symName: __ZNKSt3__116reverse_iteratorINS0_IPNS_10shared_ptrI4NodeEEEEEptB8ne180100Ev, symObjAddr: 0x10268, symBinAddr: 0x100012B00, symSize: 0x24 }
  - { offset: 0x4E344, size: 0x8, addend: 0x0, symName: __ZNKSt3__116reverse_iteratorINS0_IPNS_10shared_ptrI4NodeEEEEEdeB8ne180100Ev, symObjAddr: 0x1028C, symBinAddr: 0x100012B24, symSize: 0x34 }
  - { offset: 0x4E378, size: 0x8, addend: 0x0, symName: __ZNSt3__116reverse_iteratorIPNS_10shared_ptrI4NodeEEEmmB8ne180100Ev, symObjAddr: 0x102C0, symBinAddr: 0x100012B58, symSize: 0x20 }
  - { offset: 0x4E39E, size: 0x8, addend: 0x0, symName: __ZNSt3__116reverse_iteratorINS0_IPNS_10shared_ptrI4NodeEEEEEC2B8ne180100ES5_, symObjAddr: 0x102E0, symBinAddr: 0x100012B78, symSize: 0x2C }
  - { offset: 0x4E3D6, size: 0x8, addend: 0x0, symName: __ZNSt3__116reverse_iteratorIPNS_10shared_ptrI4NodeEEEC2B8ne180100ES4_, symObjAddr: 0x1030C, symBinAddr: 0x100012BA4, symSize: 0x28 }
  - { offset: 0x4E40E, size: 0x8, addend: 0x0, symName: __ZNSt3__114__split_bufferINS_10shared_ptrI4NodeEERNS_9allocatorIS3_EEED2Ev, symObjAddr: 0x10334, symBinAddr: 0x100012BCC, symSize: 0x84 }
  - { offset: 0x4E43A, size: 0x8, addend: 0x0, symName: __ZNSt3__114__split_bufferINS_10shared_ptrI4NodeEERNS_9allocatorIS3_EEE5clearB8ne180100Ev, symObjAddr: 0x103B8, symBinAddr: 0x100012C50, symSize: 0x28 }
  - { offset: 0x4E460, size: 0x8, addend: 0x0, symName: __ZNSt3__116allocator_traitsINS_9allocatorINS_10shared_ptrI4NodeEEEEE10deallocateB8ne180100ERS5_PS4_m, symObjAddr: 0x103E0, symBinAddr: 0x100012C78, symSize: 0x34 }
  - { offset: 0x4E4A2, size: 0x8, addend: 0x0, symName: __ZNKSt3__114__split_bufferINS_10shared_ptrI4NodeEERNS_9allocatorIS3_EEE8capacityB8ne180100Ev, symObjAddr: 0x10414, symBinAddr: 0x100012CAC, symSize: 0x40 }
  - { offset: 0x4E4C8, size: 0x8, addend: 0x0, symName: __ZNSt3__114__split_bufferINS_10shared_ptrI4NodeEERNS_9allocatorIS3_EEE17__destruct_at_endB8ne180100EPS3_, symObjAddr: 0x10454, symBinAddr: 0x100012CEC, symSize: 0x2C }
  - { offset: 0x4E4FC, size: 0x8, addend: 0x0, symName: __ZNSt3__114__split_bufferINS_10shared_ptrI4NodeEERNS_9allocatorIS3_EEE17__destruct_at_endB8ne180100EPS3_NS_17integral_constantIbLb0EEE, symObjAddr: 0x10480, symBinAddr: 0x100012D18, symSize: 0x7C }
  - { offset: 0x4E53C, size: 0x8, addend: 0x0, symName: __ZNSt3__19allocatorINS_10shared_ptrI4NodeEEE10deallocateB8ne180100EPS3_m, symObjAddr: 0x104FC, symBinAddr: 0x100012D94, symSize: 0x40 }
  - { offset: 0x4E57E, size: 0x8, addend: 0x0, symName: __ZNKSt3__114__split_bufferINS_10shared_ptrI4NodeEERNS_9allocatorIS3_EEE9__end_capB8ne180100Ev, symObjAddr: 0x1053C, symBinAddr: 0x100012DD4, symSize: 0x28 }
  - { offset: 0x4E5A4, size: 0x8, addend: 0x0, symName: __ZNKSt3__117__compressed_pairIPNS_10shared_ptrI4NodeEERNS_9allocatorIS3_EEE5firstB8ne180100Ev, symObjAddr: 0x10564, symBinAddr: 0x100012DFC, symSize: 0x24 }
  - { offset: 0x4E5CA, size: 0x8, addend: 0x0, symName: __ZNSt3__111__wrap_iterIPNS_10shared_ptrI4NodeEEEmmB8ne180100Ev, symObjAddr: 0x10774, symBinAddr: 0x10001300C, symSize: 0x20 }
  - { offset: 0x4E5F0, size: 0x8, addend: 0x0, symName: __ZNSt3__16vectorINS_10shared_ptrI4NodeEENS_9allocatorIS3_EEE17__destruct_at_endB8ne180100EPS3_, symObjAddr: 0x10A78, symBinAddr: 0x100013310, symSize: 0x4C }
  - { offset: 0x4E634, size: 0x8, addend: 0x0, symName: __ZNSt3__16vectorINS_10shared_ptrI4NodeEENS_9allocatorIS3_EEE22__base_destruct_at_endB8ne180100EPS3_, symObjAddr: 0x10AC4, symBinAddr: 0x10001335C, symSize: 0x88 }
  - { offset: 0x4E678, size: 0x8, addend: 0x0, symName: __ZNKSt3__16vectorINS_10shared_ptrI4NodeEENS_9allocatorIS3_EEE17__annotate_shrinkB8ne180100Em, symObjAddr: 0x10B4C, symBinAddr: 0x1000133E4, symSize: 0x14 }
  - { offset: 0x4E6AD, size: 0x8, addend: 0x0, symName: __ZNSt3__112__hash_tableImNS_4hashImEENS_8equal_toImEENS_9allocatorImEEE4findImEENS_15__hash_iteratorIPNS_11__hash_nodeImPvEEEERKT_, symObjAddr: 0x10B8C, symBinAddr: 0x100013424, symSize: 0x194 }
  - { offset: 0x4E736, size: 0x8, addend: 0x0, symName: __ZNSt3__121__hash_const_iteratorIPNS_11__hash_nodeImPvEEEC1B8ne180100ERKNS_15__hash_iteratorIS4_EE, symObjAddr: 0x10D20, symBinAddr: 0x1000135B8, symSize: 0x34 }
  - { offset: 0x4E76F, size: 0x8, addend: 0x0, symName: __ZNSt3__112__hash_tableImNS_4hashImEENS_8equal_toImEENS_9allocatorImEEE13hash_functionB8ne180100Ev, symObjAddr: 0x10D54, symBinAddr: 0x1000135EC, symSize: 0x28 }
  - { offset: 0x4E795, size: 0x8, addend: 0x0, symName: __ZNKSt3__14hashImEclB8ne180100Em, symObjAddr: 0x10D7C, symBinAddr: 0x100013614, symSize: 0x18 }
  - { offset: 0x4E7CA, size: 0x8, addend: 0x0, symName: __ZNKSt3__112__hash_tableImNS_4hashImEENS_8equal_toImEENS_9allocatorImEEE12bucket_countB8ne180100Ev, symObjAddr: 0x10D94, symBinAddr: 0x10001362C, symSize: 0x28 }
  - { offset: 0x4E7F0, size: 0x8, addend: 0x0, symName: __ZNKSt3__110unique_ptrIA_PNS_16__hash_node_baseIPNS_11__hash_nodeImPvEEEENS_25__bucket_list_deallocatorINS_9allocatorIS7_EEEEEixB8ne180100Em, symObjAddr: 0x10E4C, symBinAddr: 0x1000136E4, symSize: 0x34 }
  - { offset: 0x4E825, size: 0x8, addend: 0x0, symName: __ZNKSt3__116__hash_node_baseIPNS_11__hash_nodeImPvEEE6__hashB8ne180100Ev, symObjAddr: 0x10E80, symBinAddr: 0x100013718, symSize: 0x18 }
  - { offset: 0x4E84B, size: 0x8, addend: 0x0, symName: __ZNSt3__112__hash_tableImNS_4hashImEENS_8equal_toImEENS_9allocatorImEEE6key_eqB8ne180100Ev, symObjAddr: 0x10E98, symBinAddr: 0x100013730, symSize: 0x28 }
  - { offset: 0x4E871, size: 0x8, addend: 0x0, symName: __ZNKSt3__18equal_toImEclB8ne180100ERKmS3_, symObjAddr: 0x10EC0, symBinAddr: 0x100013758, symSize: 0x30 }
  - { offset: 0x4E8B5, size: 0x8, addend: 0x0, symName: __ZNSt3__116__hash_node_baseIPNS_11__hash_nodeImPvEEE8__upcastB8ne180100Ev, symObjAddr: 0x10EF0, symBinAddr: 0x100013788, symSize: 0x24 }
  - { offset: 0x4E8DB, size: 0x8, addend: 0x0, symName: __ZNSt3__111__hash_nodeImPvE11__get_valueB8ne180100Ev, symObjAddr: 0x10F14, symBinAddr: 0x1000137AC, symSize: 0x18 }
  - { offset: 0x4E901, size: 0x8, addend: 0x0, symName: __ZNSt3__115__hash_iteratorIPNS_11__hash_nodeImPvEEEC1B8ne180100EPNS_16__hash_node_baseIS4_EE, symObjAddr: 0x10F2C, symBinAddr: 0x1000137C4, symSize: 0x34 }
  - { offset: 0x4E93A, size: 0x8, addend: 0x0, symName: __ZNSt3__112__hash_tableImNS_4hashImEENS_8equal_toImEENS_9allocatorImEEE3endEv, symObjAddr: 0x10F60, symBinAddr: 0x1000137F8, symSize: 0x2C }
  - { offset: 0x4E960, size: 0x8, addend: 0x0, symName: __ZNSt3__117__compressed_pairImNS_4hashImEEE6secondB8ne180100Ev, symObjAddr: 0x10F8C, symBinAddr: 0x100013824, symSize: 0x24 }
  - { offset: 0x4E986, size: 0x8, addend: 0x0, symName: __ZNSt3__122__compressed_pair_elemINS_4hashImEELi1ELb1EE5__getB8ne180100Ev, symObjAddr: 0x10FB0, symBinAddr: 0x100013848, symSize: 0x14 }
  - { offset: 0x4E9AC, size: 0x8, addend: 0x0, symName: __ZNKSt3__110unique_ptrIA_PNS_16__hash_node_baseIPNS_11__hash_nodeImPvEEEENS_25__bucket_list_deallocatorINS_9allocatorIS7_EEEEE11get_deleterB8ne180100Ev, symObjAddr: 0x10FC4, symBinAddr: 0x10001385C, symSize: 0x24 }
  - { offset: 0x4E9D2, size: 0x8, addend: 0x0, symName: __ZNKSt3__125__bucket_list_deallocatorINS_9allocatorIPNS_16__hash_node_baseIPNS_11__hash_nodeImPvEEEEEEE4sizeB8ne180100Ev, symObjAddr: 0x10FE8, symBinAddr: 0x100013880, symSize: 0x28 }
  - { offset: 0x4E9F8, size: 0x8, addend: 0x0, symName: __ZNKSt3__117__compressed_pairIPPNS_16__hash_node_baseIPNS_11__hash_nodeImPvEEEENS_25__bucket_list_deallocatorINS_9allocatorIS7_EEEEE6secondB8ne180100Ev, symObjAddr: 0x11010, symBinAddr: 0x1000138A8, symSize: 0x28 }
  - { offset: 0x4EA1E, size: 0x8, addend: 0x0, symName: __ZNKSt3__122__compressed_pair_elemINS_25__bucket_list_deallocatorINS_9allocatorIPNS_16__hash_node_baseIPNS_11__hash_nodeImPvEEEEEEEELi1ELb0EE5__getB8ne180100Ev, symObjAddr: 0x11038, symBinAddr: 0x1000138D0, symSize: 0x14 }
  - { offset: 0x4EA44, size: 0x8, addend: 0x0, symName: __ZNKSt3__117__compressed_pairImNS_9allocatorIPNS_16__hash_node_baseIPNS_11__hash_nodeImPvEEEEEEE5firstB8ne180100Ev, symObjAddr: 0x1104C, symBinAddr: 0x1000138E4, symSize: 0x24 }
  - { offset: 0x4EA6A, size: 0x8, addend: 0x0, symName: __ZNKSt3__122__compressed_pair_elemImLi0ELb0EE5__getB8ne180100Ev, symObjAddr: 0x11070, symBinAddr: 0x100013908, symSize: 0x14 }
  - { offset: 0x4EA90, size: 0x8, addend: 0x0, symName: __ZNKSt3__117__compressed_pairIPPNS_16__hash_node_baseIPNS_11__hash_nodeImPvEEEENS_25__bucket_list_deallocatorINS_9allocatorIS7_EEEEE5firstB8ne180100Ev, symObjAddr: 0x11084, symBinAddr: 0x10001391C, symSize: 0x24 }
  - { offset: 0x4EAB6, size: 0x8, addend: 0x0, symName: __ZNKSt3__122__compressed_pair_elemIPPNS_16__hash_node_baseIPNS_11__hash_nodeImPvEEEELi0ELb0EE5__getB8ne180100Ev, symObjAddr: 0x110A8, symBinAddr: 0x100013940, symSize: 0x14 }
  - { offset: 0x4EADC, size: 0x8, addend: 0x0, symName: __ZNSt3__117__compressed_pairIfNS_8equal_toImEEE6secondB8ne180100Ev, symObjAddr: 0x110BC, symBinAddr: 0x100013954, symSize: 0x24 }
  - { offset: 0x4EB02, size: 0x8, addend: 0x0, symName: __ZNSt3__122__compressed_pair_elemINS_8equal_toImEELi1ELb1EE5__getB8ne180100Ev, symObjAddr: 0x110E0, symBinAddr: 0x100013978, symSize: 0x14 }
  - { offset: 0x4EB28, size: 0x8, addend: 0x0, symName: __ZNSt3__114pointer_traitsIPNS_16__hash_node_baseIPNS_11__hash_nodeImPvEEEEE10pointer_toB8ne180100ERS6_, symObjAddr: 0x110F4, symBinAddr: 0x10001398C, symSize: 0x14 }
  - { offset: 0x4EB4B, size: 0x8, addend: 0x0, symName: __ZNSt3__115__hash_iteratorIPNS_11__hash_nodeImPvEEEC2B8ne180100EPNS_16__hash_node_baseIS4_EE, symObjAddr: 0x11108, symBinAddr: 0x1000139A0, symSize: 0x20 }
  - { offset: 0x4EB84, size: 0x8, addend: 0x0, symName: __ZNSt3__121__hash_const_iteratorIPNS_11__hash_nodeImPvEEEC2B8ne180100ERKNS_15__hash_iteratorIS4_EE, symObjAddr: 0x11128, symBinAddr: 0x1000139C0, symSize: 0x24 }
  - { offset: 0x4EBBD, size: 0x8, addend: 0x0, symName: __ZNSt3__112__hash_tableImNS_4hashImEENS_8equal_toImEENS_9allocatorImEEE15__insert_uniqueB8ne180100ERKm, symObjAddr: 0x1114C, symBinAddr: 0x1000139E4, symSize: 0x50 }
  - { offset: 0x4EBF2, size: 0x8, addend: 0x0, symName: __ZNSt3__14pairINS_21__hash_const_iteratorIPNS_11__hash_nodeImPvEEEEbEC1B8ne180100INS_15__hash_iteratorIS5_EEbTnNS_9enable_ifIXclsr10_CheckArgsE17__enable_implicitIT_T0_EEEiE4typeELi0EEEONS0_ISC_SD_EE, symObjAddr: 0x1119C, symBinAddr: 0x100013A34, symSize: 0x34 }
  - { offset: 0x4EC42, size: 0x8, addend: 0x0, symName: __ZNSt3__112__hash_tableImNS_4hashImEENS_8equal_toImEENS_9allocatorImEEE25__emplace_unique_key_argsImJRKmEEENS_4pairINS_15__hash_iteratorIPNS_11__hash_nodeImPvEEEEbEERKT_DpOT0_, symObjAddr: 0x111D0, symBinAddr: 0x100013A68, symSize: 0x470 }
  - { offset: 0x4ED20, size: 0x8, addend: 0x0, symName: __ZNSt3__122__hash_key_value_typesImE9__get_keyB8ne180100ERKm, symObjAddr: 0x11640, symBinAddr: 0x100013ED8, symSize: 0x14 }
  - { offset: 0x4ED43, size: 0x8, addend: 0x0, symName: __ZNSt3__112__hash_tableImNS_4hashImEENS_8equal_toImEENS_9allocatorImEEE21__construct_node_hashIRKmJEEENS_10unique_ptrINS_11__hash_nodeImPvEENS_22__hash_node_destructorINS5_ISE_EEEEEEmOT_DpOT0_, symObjAddr: 0x11654, symBinAddr: 0x100013EEC, symSize: 0x13C }
  - { offset: 0x4EDB4, size: 0x8, addend: 0x0, symName: __ZNSt3__112__hash_tableImNS_4hashImEENS_8equal_toImEENS_9allocatorImEEE4sizeB8ne180100Ev, symObjAddr: 0x11790, symBinAddr: 0x100014028, symSize: 0x28 }
  - { offset: 0x4EDDA, size: 0x8, addend: 0x0, symName: __ZNSt3__112__hash_tableImNS_4hashImEENS_8equal_toImEENS_9allocatorImEEE15max_load_factorB8ne180100Ev, symObjAddr: 0x117B8, symBinAddr: 0x100014050, symSize: 0x28 }
  - { offset: 0x4EE00, size: 0x8, addend: 0x0, symName: __ZNSt3__112__hash_tableImNS_4hashImEENS_8equal_toImEENS_9allocatorImEEE15__rehash_uniqueB8ne180100Em, symObjAddr: 0x117E0, symBinAddr: 0x100014078, symSize: 0x2C }
  - { offset: 0x4EE35, size: 0x8, addend: 0x0, symName: __ZNSt3__117__compressed_pairINS_16__hash_node_baseIPNS_11__hash_nodeImPvEEEENS_9allocatorIS4_EEE5firstB8ne180100Ev, symObjAddr: 0x11870, symBinAddr: 0x100014108, symSize: 0x24 }
  - { offset: 0x4EE5B, size: 0x8, addend: 0x0, symName: __ZNSt3__116__hash_node_baseIPNS_11__hash_nodeImPvEEE5__ptrB8ne180100Ev, symObjAddr: 0x11894, symBinAddr: 0x10001412C, symSize: 0x24 }
  - { offset: 0x4EE81, size: 0x8, addend: 0x0, symName: __ZNKSt3__110unique_ptrINS_11__hash_nodeImPvEENS_22__hash_node_destructorINS_9allocatorIS3_EEEEEptB8ne180100Ev, symObjAddr: 0x118B8, symBinAddr: 0x100014150, symSize: 0x28 }
  - { offset: 0x4EEA7, size: 0x8, addend: 0x0, symName: __ZNKSt3__110unique_ptrINS_11__hash_nodeImPvEENS_22__hash_node_destructorINS_9allocatorIS3_EEEEE3getB8ne180100Ev, symObjAddr: 0x118E0, symBinAddr: 0x100014178, symSize: 0x28 }
  - { offset: 0x4EECD, size: 0x8, addend: 0x0, symName: __ZNSt3__110unique_ptrINS_11__hash_nodeImPvEENS_22__hash_node_destructorINS_9allocatorIS3_EEEEE7releaseB8ne180100Ev, symObjAddr: 0x11908, symBinAddr: 0x1000141A0, symSize: 0x44 }
  - { offset: 0x4EF02, size: 0x8, addend: 0x0, symName: __ZNSt3__110unique_ptrINS_11__hash_nodeImPvEENS_22__hash_node_destructorINS_9allocatorIS3_EEEEED1B8ne180100Ev, symObjAddr: 0x1194C, symBinAddr: 0x1000141E4, symSize: 0x2C }
  - { offset: 0x4EF32, size: 0x8, addend: 0x0, symName: __ZNSt3__14pairINS_15__hash_iteratorIPNS_11__hash_nodeImPvEEEEbEC1B8ne180100IS6_RbTnNS_9enable_ifIXclsr10_CheckArgsE17__enable_implicitIT_T0_EEEiE4typeELi0EEEOSB_OSC_, symObjAddr: 0x11978, symBinAddr: 0x100014210, symSize: 0x3C }
  - { offset: 0x4EF90, size: 0x8, addend: 0x0, symName: __ZNSt3__112__hash_tableImNS_4hashImEENS_8equal_toImEENS_9allocatorImEEE12__node_allocB8ne180100Ev, symObjAddr: 0x119B4, symBinAddr: 0x10001424C, symSize: 0x28 }
  - { offset: 0x4EFB6, size: 0x8, addend: 0x0, symName: __ZNSt3__116allocator_traitsINS_9allocatorINS_11__hash_nodeImPvEEEEE8allocateB8ne180100ERS5_m, symObjAddr: 0x119DC, symBinAddr: 0x100014274, symSize: 0x2C }
  - { offset: 0x4EFE9, size: 0x8, addend: 0x0, symName: __ZNSt3__122__hash_node_destructorINS_9allocatorINS_11__hash_nodeImPvEEEEEC1B8ne180100ERS5_b, symObjAddr: 0x11A08, symBinAddr: 0x1000142A0, symSize: 0x40 }
  - { offset: 0x4F037, size: 0x8, addend: 0x0, symName: __ZNSt3__110unique_ptrINS_11__hash_nodeImPvEENS_22__hash_node_destructorINS_9allocatorIS3_EEEEEC1B8ne180100ILb1EvEEPS3_NS_16__dependent_typeINS_27__unique_ptr_deleter_sfinaeIS7_EEXT_EE20__good_rval_ref_typeE, symObjAddr: 0x11A48, symBinAddr: 0x1000142E0, symSize: 0x3C }
  - { offset: 0x4F088, size: 0x8, addend: 0x0, symName: __ZNKSt3__110unique_ptrINS_11__hash_nodeImPvEENS_22__hash_node_destructorINS_9allocatorIS3_EEEEEdeB8ne180100Ev, symObjAddr: 0x11ACC, symBinAddr: 0x100014364, symSize: 0x28 }
  - { offset: 0x4F0AE, size: 0x8, addend: 0x0, symName: __ZNSt3__116allocator_traitsINS_9allocatorINS_11__hash_nodeImPvEEEEE9constructB8ne180100ImJRKmEvEEvRS5_PT_DpOT0_, symObjAddr: 0x11AF4, symBinAddr: 0x10001438C, symSize: 0x34 }
  - { offset: 0x4F105, size: 0x8, addend: 0x0, symName: __ZNSt3__122__hash_key_value_typesImE9__get_ptrB8ne180100ERm, symObjAddr: 0x11B28, symBinAddr: 0x1000143C0, symSize: 0x14 }
  - { offset: 0x4F128, size: 0x8, addend: 0x0, symName: __ZNSt3__110unique_ptrINS_11__hash_nodeImPvEENS_22__hash_node_destructorINS_9allocatorIS3_EEEEE11get_deleterB8ne180100Ev, symObjAddr: 0x11B3C, symBinAddr: 0x1000143D4, symSize: 0x24 }
  - { offset: 0x4F14E, size: 0x8, addend: 0x0, symName: __ZNSt3__117__compressed_pairINS_16__hash_node_baseIPNS_11__hash_nodeImPvEEEENS_9allocatorIS4_EEE6secondB8ne180100Ev, symObjAddr: 0x11B60, symBinAddr: 0x1000143F8, symSize: 0x24 }
  - { offset: 0x4F174, size: 0x8, addend: 0x0, symName: __ZNSt3__122__compressed_pair_elemINS_9allocatorINS_11__hash_nodeImPvEEEELi1ELb1EE5__getB8ne180100Ev, symObjAddr: 0x11B84, symBinAddr: 0x10001441C, symSize: 0x14 }
  - { offset: 0x4F19A, size: 0x8, addend: 0x0, symName: __ZNSt3__19allocatorINS_11__hash_nodeImPvEEE8allocateB8ne180100Em, symObjAddr: 0x11B98, symBinAddr: 0x100014430, symSize: 0x58 }
  - { offset: 0x4F1D9, size: 0x8, addend: 0x0, symName: __ZNSt3__116allocator_traitsINS_9allocatorINS_11__hash_nodeImPvEEEEE8max_sizeB8ne180100IS5_vEEmRKS5_, symObjAddr: 0x11BF0, symBinAddr: 0x100014488, symSize: 0x24 }
  - { offset: 0x4F207, size: 0x8, addend: 0x0, symName: __ZNKSt3__19allocatorINS_11__hash_nodeImPvEEE8max_sizeB8ne180100Ev, symObjAddr: 0x11C14, symBinAddr: 0x1000144AC, symSize: 0x18 }
  - { offset: 0x4F22D, size: 0x8, addend: 0x0, symName: __ZNSt3__122__hash_node_destructorINS_9allocatorINS_11__hash_nodeImPvEEEEEC2B8ne180100ERS5_b, symObjAddr: 0x11C2C, symBinAddr: 0x1000144C4, symSize: 0x30 }
  - { offset: 0x4F275, size: 0x8, addend: 0x0, symName: __ZNSt3__110unique_ptrINS_11__hash_nodeImPvEENS_22__hash_node_destructorINS_9allocatorIS3_EEEEEC2B8ne180100ILb1EvEEPS3_NS_16__dependent_typeINS_27__unique_ptr_deleter_sfinaeIS7_EEXT_EE20__good_rval_ref_typeE, symObjAddr: 0x11C5C, symBinAddr: 0x1000144F4, symSize: 0x48 }
  - { offset: 0x4F2C6, size: 0x8, addend: 0x0, symName: __ZNSt3__117__compressed_pairIPNS_11__hash_nodeImPvEENS_22__hash_node_destructorINS_9allocatorIS3_EEEEEC1B8ne180100IRS4_S8_EEOT_OT0_, symObjAddr: 0x11CA4, symBinAddr: 0x10001453C, symSize: 0x3C }
  - { offset: 0x4F31E, size: 0x8, addend: 0x0, symName: __ZNSt3__117__compressed_pairIPNS_11__hash_nodeImPvEENS_22__hash_node_destructorINS_9allocatorIS3_EEEEEC2B8ne180100IRS4_S8_EEOT_OT0_, symObjAddr: 0x11CE0, symBinAddr: 0x100014578, symSize: 0x48 }
  - { offset: 0x4F376, size: 0x8, addend: 0x0, symName: __ZNSt3__122__compressed_pair_elemIPNS_11__hash_nodeImPvEELi0ELb0EEC2B8ne180100IRS4_vEEOT_, symObjAddr: 0x11D28, symBinAddr: 0x1000145C0, symSize: 0x24 }
  - { offset: 0x4F3B8, size: 0x8, addend: 0x0, symName: __ZNSt3__122__compressed_pair_elemINS_22__hash_node_destructorINS_9allocatorINS_11__hash_nodeImPvEEEEEELi1ELb0EEC2B8ne180100IS7_vEEOT_, symObjAddr: 0x11D4C, symBinAddr: 0x1000145E4, symSize: 0x24 }
  - { offset: 0x4F3FA, size: 0x8, addend: 0x0, symName: __ZNSt3__111__hash_nodeImPvEC1B8ne180100EPNS_16__hash_node_baseIPS2_EEm, symObjAddr: 0x11D70, symBinAddr: 0x100014608, symSize: 0x3C }
  - { offset: 0x4F440, size: 0x8, addend: 0x0, symName: __ZNSt3__111__hash_nodeImPvEC2B8ne180100EPNS_16__hash_node_baseIPS2_EEm, symObjAddr: 0x11DAC, symBinAddr: 0x100014644, symSize: 0x40 }
  - { offset: 0x4F486, size: 0x8, addend: 0x0, symName: __ZNSt3__116__hash_node_baseIPNS_11__hash_nodeImPvEEEC2B8ne180100EPS5_, symObjAddr: 0x11DEC, symBinAddr: 0x100014684, symSize: 0x20 }
  - { offset: 0x4F4BE, size: 0x8, addend: 0x0, symName: __ZNKSt3__117__compressed_pairIPNS_11__hash_nodeImPvEENS_22__hash_node_destructorINS_9allocatorIS3_EEEEE5firstB8ne180100Ev, symObjAddr: 0x11E0C, symBinAddr: 0x1000146A4, symSize: 0x24 }
  - { offset: 0x4F4E4, size: 0x8, addend: 0x0, symName: __ZNKSt3__122__compressed_pair_elemIPNS_11__hash_nodeImPvEELi0ELb0EE5__getB8ne180100Ev, symObjAddr: 0x11E30, symBinAddr: 0x1000146C8, symSize: 0x14 }
  - { offset: 0x4F50A, size: 0x8, addend: 0x0, symName: __ZNSt3__19allocatorINS_11__hash_nodeImPvEEE9constructB8ne180100ImJRKmEEEvPT_DpOT0_, symObjAddr: 0x11E44, symBinAddr: 0x1000146DC, symSize: 0x28 }
  - { offset: 0x4F560, size: 0x8, addend: 0x0, symName: __ZNSt3__117__compressed_pairIPNS_11__hash_nodeImPvEENS_22__hash_node_destructorINS_9allocatorIS3_EEEEE6secondB8ne180100Ev, symObjAddr: 0x11E6C, symBinAddr: 0x100014704, symSize: 0x28 }
  - { offset: 0x4F586, size: 0x8, addend: 0x0, symName: __ZNSt3__122__compressed_pair_elemINS_22__hash_node_destructorINS_9allocatorINS_11__hash_nodeImPvEEEEEELi1ELb0EE5__getB8ne180100Ev, symObjAddr: 0x11E94, symBinAddr: 0x10001472C, symSize: 0x14 }
  - { offset: 0x4F5AC, size: 0x8, addend: 0x0, symName: __ZNSt3__117__compressed_pairImNS_4hashImEEE5firstB8ne180100Ev, symObjAddr: 0x11EA8, symBinAddr: 0x100014740, symSize: 0x24 }
  - { offset: 0x4F5D2, size: 0x8, addend: 0x0, symName: __ZNSt3__122__compressed_pair_elemImLi0ELb0EE5__getB8ne180100Ev, symObjAddr: 0x11ECC, symBinAddr: 0x100014764, symSize: 0x14 }
  - { offset: 0x4F5F8, size: 0x8, addend: 0x0, symName: __ZNSt3__117__compressed_pairIfNS_8equal_toImEEE5firstB8ne180100Ev, symObjAddr: 0x11EE0, symBinAddr: 0x100014778, symSize: 0x24 }
  - { offset: 0x4F61E, size: 0x8, addend: 0x0, symName: __ZNSt3__122__compressed_pair_elemIfLi0ELb0EE5__getB8ne180100Ev, symObjAddr: 0x11F04, symBinAddr: 0x10001479C, symSize: 0x14 }
  - { offset: 0x4F644, size: 0x8, addend: 0x0, symName: __ZNSt3__112__hash_tableImNS_4hashImEENS_8equal_toImEENS_9allocatorImEEE8__rehashILb1EEEvm, symObjAddr: 0x11F18, symBinAddr: 0x1000147B0, symSize: 0x194 }
  - { offset: 0x4F692, size: 0x8, addend: 0x0, symName: __ZNSt3__112__hash_tableImNS_4hashImEENS_8equal_toImEENS_9allocatorImEEE11__do_rehashILb1EEEvm, symObjAddr: 0x120AC, symBinAddr: 0x100014944, symSize: 0x260 }
  - { offset: 0x4F777, size: 0x8, addend: 0x0, symName: __ZNSt3__110unique_ptrIA_PNS_16__hash_node_baseIPNS_11__hash_nodeImPvEEEENS_25__bucket_list_deallocatorINS_9allocatorIS7_EEEEE11get_deleterB8ne180100Ev, symObjAddr: 0x12374, symBinAddr: 0x100014C0C, symSize: 0x24 }
  - { offset: 0x4F79D, size: 0x8, addend: 0x0, symName: __ZNSt3__125__bucket_list_deallocatorINS_9allocatorIPNS_16__hash_node_baseIPNS_11__hash_nodeImPvEEEEEEE7__allocB8ne180100Ev, symObjAddr: 0x12398, symBinAddr: 0x100014C30, symSize: 0x24 }
  - { offset: 0x4F7C3, size: 0x8, addend: 0x0, symName: __ZNSt3__110unique_ptrIA_PNS_16__hash_node_baseIPNS_11__hash_nodeImPvEEEENS_25__bucket_list_deallocatorINS_9allocatorIS7_EEEEE5resetB8ne180100IPS7_TnNS_9enable_ifIXsr28_CheckArrayPointerConversionIT_EE5valueEiE4typeELi0EEEvSH_, symObjAddr: 0x123BC, symBinAddr: 0x100014C54, symSize: 0x70 }
  - { offset: 0x4F816, size: 0x8, addend: 0x0, symName: __ZNSt3__116allocator_traitsINS_9allocatorIPNS_16__hash_node_baseIPNS_11__hash_nodeImPvEEEEEEE8allocateB8ne180100ERS9_m, symObjAddr: 0x1242C, symBinAddr: 0x100014CC4, symSize: 0x2C }
  - { offset: 0x4F849, size: 0x8, addend: 0x0, symName: __ZNSt3__125__bucket_list_deallocatorINS_9allocatorIPNS_16__hash_node_baseIPNS_11__hash_nodeImPvEEEEEEE4sizeB8ne180100Ev, symObjAddr: 0x12458, symBinAddr: 0x100014CF0, symSize: 0x24 }
  - { offset: 0x4F86F, size: 0x8, addend: 0x0, symName: __ZNSt3__117__compressed_pairIPPNS_16__hash_node_baseIPNS_11__hash_nodeImPvEEEENS_25__bucket_list_deallocatorINS_9allocatorIS7_EEEEE6secondB8ne180100Ev, symObjAddr: 0x1247C, symBinAddr: 0x100014D14, symSize: 0x28 }
  - { offset: 0x4F895, size: 0x8, addend: 0x0, symName: __ZNSt3__122__compressed_pair_elemINS_25__bucket_list_deallocatorINS_9allocatorIPNS_16__hash_node_baseIPNS_11__hash_nodeImPvEEEEEEEELi1ELb0EE5__getB8ne180100Ev, symObjAddr: 0x124A4, symBinAddr: 0x100014D3C, symSize: 0x14 }
  - { offset: 0x4F8BB, size: 0x8, addend: 0x0, symName: __ZNSt3__117__compressed_pairImNS_9allocatorIPNS_16__hash_node_baseIPNS_11__hash_nodeImPvEEEEEEE6secondB8ne180100Ev, symObjAddr: 0x124B8, symBinAddr: 0x100014D50, symSize: 0x24 }
  - { offset: 0x4F8E1, size: 0x8, addend: 0x0, symName: __ZNSt3__122__compressed_pair_elemINS_9allocatorIPNS_16__hash_node_baseIPNS_11__hash_nodeImPvEEEEEELi1ELb1EE5__getB8ne180100Ev, symObjAddr: 0x124DC, symBinAddr: 0x100014D74, symSize: 0x14 }
  - { offset: 0x4F907, size: 0x8, addend: 0x0, symName: __ZNSt3__117__compressed_pairIPPNS_16__hash_node_baseIPNS_11__hash_nodeImPvEEEENS_25__bucket_list_deallocatorINS_9allocatorIS7_EEEEE5firstB8ne180100Ev, symObjAddr: 0x124F0, symBinAddr: 0x100014D88, symSize: 0x24 }
  - { offset: 0x4F92D, size: 0x8, addend: 0x0, symName: __ZNSt3__125__bucket_list_deallocatorINS_9allocatorIPNS_16__hash_node_baseIPNS_11__hash_nodeImPvEEEEEEEclB8ne180100EPS8_, symObjAddr: 0x12514, symBinAddr: 0x100014DAC, symSize: 0x58 }
  - { offset: 0x4F962, size: 0x8, addend: 0x0, symName: __ZNSt3__122__compressed_pair_elemIPPNS_16__hash_node_baseIPNS_11__hash_nodeImPvEEEELi0ELb0EE5__getB8ne180100Ev, symObjAddr: 0x1256C, symBinAddr: 0x100014E04, symSize: 0x14 }
  - { offset: 0x4F988, size: 0x8, addend: 0x0, symName: __ZNSt3__116allocator_traitsINS_9allocatorIPNS_16__hash_node_baseIPNS_11__hash_nodeImPvEEEEEEE10deallocateB8ne180100ERS9_PS8_m, symObjAddr: 0x12580, symBinAddr: 0x100014E18, symSize: 0x34 }
  - { offset: 0x4F9CA, size: 0x8, addend: 0x0, symName: __ZNSt3__19allocatorIPNS_16__hash_node_baseIPNS_11__hash_nodeImPvEEEEE10deallocateB8ne180100EPS7_m, symObjAddr: 0x125B4, symBinAddr: 0x100014E4C, symSize: 0x40 }
  - { offset: 0x4FA0C, size: 0x8, addend: 0x0, symName: __ZNSt3__19allocatorIPNS_16__hash_node_baseIPNS_11__hash_nodeImPvEEEEE8allocateB8ne180100Em, symObjAddr: 0x125F4, symBinAddr: 0x100014E8C, symSize: 0x54 }
  - { offset: 0x4FA4B, size: 0x8, addend: 0x0, symName: __ZNSt3__116allocator_traitsINS_9allocatorIPNS_16__hash_node_baseIPNS_11__hash_nodeImPvEEEEEEE8max_sizeB8ne180100IS9_vEEmRKS9_, symObjAddr: 0x12648, symBinAddr: 0x100014EE0, symSize: 0x24 }
  - { offset: 0x4FA79, size: 0x8, addend: 0x0, symName: __ZNKSt3__19allocatorIPNS_16__hash_node_baseIPNS_11__hash_nodeImPvEEEEE8max_sizeB8ne180100Ev, symObjAddr: 0x1266C, symBinAddr: 0x100014F04, symSize: 0x14 }
  - { offset: 0x4FA9F, size: 0x8, addend: 0x0, symName: __ZNSt3__117__compressed_pairImNS_9allocatorIPNS_16__hash_node_baseIPNS_11__hash_nodeImPvEEEEEEE5firstB8ne180100Ev, symObjAddr: 0x12680, symBinAddr: 0x100014F18, symSize: 0x24 }
  - { offset: 0x4FAC5, size: 0x8, addend: 0x0, symName: __ZNSt3__122__compressed_pair_elemINS_16__hash_node_baseIPNS_11__hash_nodeImPvEEEELi0ELb0EE5__getB8ne180100Ev, symObjAddr: 0x126C0, symBinAddr: 0x100014F58, symSize: 0x14 }
  - { offset: 0x4FAEB, size: 0x8, addend: 0x0, symName: __ZNSt3__117__compressed_pairIPNS_11__hash_nodeImPvEENS_22__hash_node_destructorINS_9allocatorIS3_EEEEE5firstB8ne180100Ev, symObjAddr: 0x126D4, symBinAddr: 0x100014F6C, symSize: 0x24 }
  - { offset: 0x4FB11, size: 0x8, addend: 0x0, symName: __ZNSt3__122__compressed_pair_elemIPNS_11__hash_nodeImPvEELi0ELb0EE5__getB8ne180100Ev, symObjAddr: 0x126F8, symBinAddr: 0x100014F90, symSize: 0x14 }
  - { offset: 0x4FB37, size: 0x8, addend: 0x0, symName: __ZNSt3__110unique_ptrINS_11__hash_nodeImPvEENS_22__hash_node_destructorINS_9allocatorIS3_EEEEED2B8ne180100Ev, symObjAddr: 0x1270C, symBinAddr: 0x100014FA4, symSize: 0x30 }
  - { offset: 0x4FB61, size: 0x8, addend: 0x0, symName: __ZNSt3__110unique_ptrINS_11__hash_nodeImPvEENS_22__hash_node_destructorINS_9allocatorIS3_EEEEE5resetB8ne180100EPS3_, symObjAddr: 0x1273C, symBinAddr: 0x100014FD4, symSize: 0x70 }
  - { offset: 0x4FBA5, size: 0x8, addend: 0x0, symName: __ZNSt3__122__hash_node_destructorINS_9allocatorINS_11__hash_nodeImPvEEEEEclB8ne180100EPS4_, symObjAddr: 0x127AC, symBinAddr: 0x100015044, symSize: 0x94 }
  - { offset: 0x4FBDA, size: 0x8, addend: 0x0, symName: __ZNSt3__116allocator_traitsINS_9allocatorINS_11__hash_nodeImPvEEEEE7destroyB8ne180100ImvvEEvRS5_PT_, symObjAddr: 0x12840, symBinAddr: 0x1000150D8, symSize: 0x28 }
  - { offset: 0x4FC15, size: 0x8, addend: 0x0, symName: __ZNSt3__116allocator_traitsINS_9allocatorINS_11__hash_nodeImPvEEEEE10deallocateB8ne180100ERS5_PS4_m, symObjAddr: 0x1288C, symBinAddr: 0x100015124, symSize: 0x34 }
  - { offset: 0x4FC57, size: 0x8, addend: 0x0, symName: __ZNSt3__111__hash_nodeImPvED1B8ne180100Ev, symObjAddr: 0x128D0, symBinAddr: 0x100015168, symSize: 0x2C }
  - { offset: 0x4FC81, size: 0x8, addend: 0x0, symName: __ZNSt3__111__hash_nodeImPvED2B8ne180100Ev, symObjAddr: 0x128FC, symBinAddr: 0x100015194, symSize: 0x14 }
  - { offset: 0x4FCAB, size: 0x8, addend: 0x0, symName: __ZNSt3__19allocatorINS_11__hash_nodeImPvEEE10deallocateB8ne180100EPS3_m, symObjAddr: 0x12910, symBinAddr: 0x1000151A8, symSize: 0x44 }
  - { offset: 0x4FCED, size: 0x8, addend: 0x0, symName: __ZNSt3__14pairINS_15__hash_iteratorIPNS_11__hash_nodeImPvEEEEbEC2B8ne180100IS6_RbTnNS_9enable_ifIXclsr10_CheckArgsE17__enable_implicitIT_T0_EEEiE4typeELi0EEEOSB_OSC_, symObjAddr: 0x12954, symBinAddr: 0x1000151EC, symSize: 0x38 }
  - { offset: 0x4FD4B, size: 0x8, addend: 0x0, symName: __ZNSt3__14pairINS_21__hash_const_iteratorIPNS_11__hash_nodeImPvEEEEbEC2B8ne180100INS_15__hash_iteratorIS5_EEbTnNS_9enable_ifIXclsr10_CheckArgsE17__enable_implicitIT_T0_EEEiE4typeELi0EEEONS0_ISC_SD_EE, symObjAddr: 0x1298C, symBinAddr: 0x100015224, symSize: 0x44 }
  - { offset: 0x4FD9B, size: 0x8, addend: 0x0, symName: __ZNSt3__110shared_ptrI4NodeEC2B8ne180100EOS2_, symObjAddr: 0x129D0, symBinAddr: 0x100015268, symSize: 0x40 }
  - { offset: 0x4FDD4, size: 0x8, addend: 0x0, symName: __ZNKSt3__16vectorINS0_I4EdgeNS_9allocatorIS1_EEEENS2_IS4_EEE2atEm, symObjAddr: 0x12A10, symBinAddr: 0x1000152A8, symSize: 0x64 }
  - { offset: 0x4FE0B, size: 0x8, addend: 0x0, symName: __ZNKSt3__16vectorINS0_I4EdgeNS_9allocatorIS1_EEEENS2_IS4_EEE20__throw_out_of_rangeB8ne180100Ev, symObjAddr: 0x12A74, symBinAddr: 0x10001530C, symSize: 0x1C }
  - { offset: 0x4FE31, size: 0x8, addend: 0x0, symName: __ZNSt12out_of_rangeC1B8ne180100EPKc, symObjAddr: 0x12AF4, symBinAddr: 0x10001538C, symSize: 0x34 }
  - { offset: 0x4FE69, size: 0x8, addend: 0x0, symName: __ZNSt12out_of_rangeC2B8ne180100EPKc, symObjAddr: 0x12B28, symBinAddr: 0x1000153C0, symSize: 0x44 }
  - { offset: 0x4FEA1, size: 0x8, addend: 0x0, symName: __ZNKSt3__16vectorI4EdgeNS_9allocatorIS1_EEE11__make_iterB8ne180100EPKS1_, symObjAddr: 0x12B6C, symBinAddr: 0x100015404, symSize: 0x30 }
  - { offset: 0x4FED6, size: 0x8, addend: 0x0, symName: __ZNSt3__111__wrap_iterIPK4EdgeEC1B8ne180100ES3_, symObjAddr: 0x12B9C, symBinAddr: 0x100015434, symSize: 0x34 }
  - { offset: 0x4FF0E, size: 0x8, addend: 0x0, symName: __ZNSt3__111__wrap_iterIPK4EdgeEC2B8ne180100ES3_, symObjAddr: 0x12BD0, symBinAddr: 0x100015468, symSize: 0x20 }
  - { offset: 0x4FF46, size: 0x8, addend: 0x0, symName: __ZNKSt3__111__wrap_iterIPK4EdgeE4baseB8ne180100Ev, symObjAddr: 0x12C34, symBinAddr: 0x1000154CC, symSize: 0x18 }
  - { offset: 0x4FF6C, size: 0x8, addend: 0x0, symName: __ZNSt3__120__shared_ptr_emplaceI4NodeNS_9allocatorIS1_EEEC1B8ne180100IJRdS6_RmRNS_6vectorIdNS2_IdEEEES6_RNS_10shared_ptrIS1_EEES3_TnNS_9enable_ifIXntsr7is_sameINT0_10value_typeENS_19__for_overwrite_tagEEE5valueEiE4typeELi0EEES3_DpOT_, symObjAddr: 0x12D20, symBinAddr: 0x1000155B8, symSize: 0x5C }
  - { offset: 0x50032, size: 0x8, addend: 0x0, symName: __ZNSt3__120__shared_ptr_emplaceI4NodeNS_9allocatorIS1_EEEC2B8ne180100IJRdS6_RmRNS_6vectorIdNS2_IdEEEES6_RNS_10shared_ptrIS1_EEES3_TnNS_9enable_ifIXntsr7is_sameINT0_10value_typeENS_19__for_overwrite_tagEEE5valueEiE4typeELi0EEES3_DpOT_, symObjAddr: 0x12D7C, symBinAddr: 0x100015614, symSize: 0xE4 }
  - { offset: 0x50119, size: 0x8, addend: 0x0, symName: __ZNSt3__116allocator_traitsINS_9allocatorI4NodeEEE9constructB8ne180100IS2_JRdS6_RmRNS_6vectorIdNS1_IdEEEES6_RNS_10shared_ptrIS2_EEEvEEvRS3_PT_DpOT0_, symObjAddr: 0x12E60, symBinAddr: 0x1000156F8, symSize: 0x5C }
  - { offset: 0x501D4, size: 0x8, addend: 0x0, symName: __ZNSt3__19allocatorI4NodeE9constructB8ne180100IS1_JRdS4_RmRNS_6vectorIdNS0_IdEEEES4_RNS_10shared_ptrIS1_EEEEEvPT_DpOT0_, symObjAddr: 0x12EBC, symBinAddr: 0x100015754, symSize: 0xEC }
  - { offset: 0x50289, size: 0x8, addend: 0x0, symName: __ZNSt3__111__wrap_iterIPK4EdgeEppB8ne180100Ev, symObjAddr: 0x12FA8, symBinAddr: 0x100015840, symSize: 0x20 }
  - { offset: 0x502AF, size: 0x8, addend: 0x0, symName: __ZNSt3__113unordered_setImNS_4hashImEENS_8equal_toImEENS_9allocatorImEEED2B8ne180100Ev, symObjAddr: 0x12FC8, symBinAddr: 0x100015860, symSize: 0x2C }
  - { offset: 0x502D9, size: 0x8, addend: 0x0, symName: __ZNSt3__112__hash_tableImNS_4hashImEENS_8equal_toImEENS_9allocatorImEEED1Ev, symObjAddr: 0x12FF4, symBinAddr: 0x10001588C, symSize: 0x2C }
  - { offset: 0x50303, size: 0x8, addend: 0x0, symName: __ZNSt3__112__hash_tableImNS_4hashImEENS_8equal_toImEENS_9allocatorImEEED2Ev, symObjAddr: 0x13020, symBinAddr: 0x1000158B8, symSize: 0x48 }
  - { offset: 0x5032D, size: 0x8, addend: 0x0, symName: __ZNSt3__112__hash_tableImNS_4hashImEENS_8equal_toImEENS_9allocatorImEEE17__deallocate_nodeEPNS_16__hash_node_baseIPNS_11__hash_nodeImPvEEEE, symObjAddr: 0x13068, symBinAddr: 0x100015900, symSize: 0xA0 }
  - { offset: 0x50395, size: 0x8, addend: 0x0, symName: __ZNSt3__110unique_ptrIA_PNS_16__hash_node_baseIPNS_11__hash_nodeImPvEEEENS_25__bucket_list_deallocatorINS_9allocatorIS7_EEEEED1B8ne180100Ev, symObjAddr: 0x13108, symBinAddr: 0x1000159A0, symSize: 0x2C }
  - { offset: 0x503BF, size: 0x8, addend: 0x0, symName: __ZNSt3__110unique_ptrIA_PNS_16__hash_node_baseIPNS_11__hash_nodeImPvEEEENS_25__bucket_list_deallocatorINS_9allocatorIS7_EEEEED2B8ne180100Ev, symObjAddr: 0x13134, symBinAddr: 0x1000159CC, symSize: 0x30 }
  - { offset: 0x503E9, size: 0x8, addend: 0x0, symName: __ZNSt3__110unique_ptrIA_PNS_16__hash_node_baseIPNS_11__hash_nodeImPvEEEENS_25__bucket_list_deallocatorINS_9allocatorIS7_EEEEE5resetB8ne180100EDn, symObjAddr: 0x13164, symBinAddr: 0x1000159FC, symSize: 0x64 }
  - { offset: 0x5042A, size: 0x8, addend: 0x0, symName: __ZNSt3__112basic_stringIcNS_11char_traitsIcEENS_9allocatorIcEEEC1INS_17basic_string_viewIcS2_EETnNS_9enable_ifIXaasr33__can_be_converted_to_string_viewIcS2_T_EE5valuentsr17__is_same_uncvrefISA_S5_EE5valueEiE4typeELi0EEERKSA_, symObjAddr: 0x131C8, symBinAddr: 0x100015A60, symSize: 0x34 }
  - { offset: 0x50472, size: 0x8, addend: 0x0, symName: __ZNSt3__14__fs10filesystem4pathC1B8ne180100EONS_12basic_stringIcNS_11char_traitsIcEENS_9allocatorIcEEEENS2_6formatE, symObjAddr: 0x131FC, symBinAddr: 0x100015A94, symSize: 0x3C }
  - { offset: 0x504B7, size: 0x8, addend: 0x0, symName: __ZNSt3__112basic_stringIcNS_11char_traitsIcEENS_9allocatorIcEEEC2INS_17basic_string_viewIcS2_EETnNS_9enable_ifIXaasr33__can_be_converted_to_string_viewIcS2_T_EE5valuentsr17__is_same_uncvrefISA_S5_EE5valueEiE4typeELi0EEERKSA_, symObjAddr: 0x13238, symBinAddr: 0x100015AD0, symSize: 0x70 }
  - { offset: 0x5051D, size: 0x8, addend: 0x0, symName: __ZNSt3__117__compressed_pairINS_12basic_stringIcNS_11char_traitsIcEENS_9allocatorIcEEE5__repES5_EC1B8ne180100INS_18__default_init_tagESA_EEOT_OT0_, symObjAddr: 0x132A8, symBinAddr: 0x100015B40, symSize: 0x3C }
  - { offset: 0x50575, size: 0x8, addend: 0x0, symName: __ZNKSt3__117basic_string_viewIcNS_11char_traitsIcEEE4dataB8ne180100Ev, symObjAddr: 0x132E4, symBinAddr: 0x100015B7C, symSize: 0x18 }
  - { offset: 0x5059B, size: 0x8, addend: 0x0, symName: __ZNKSt3__117basic_string_viewIcNS_11char_traitsIcEEE4sizeB8ne180100Ev, symObjAddr: 0x132FC, symBinAddr: 0x100015B94, symSize: 0x18 }
  - { offset: 0x505C1, size: 0x8, addend: 0x0, symName: __ZNSt3__117__compressed_pairINS_12basic_stringIcNS_11char_traitsIcEENS_9allocatorIcEEE5__repES5_EC2B8ne180100INS_18__default_init_tagESA_EEOT_OT0_, symObjAddr: 0x13314, symBinAddr: 0x100015BAC, symSize: 0x3C }
  - { offset: 0x50619, size: 0x8, addend: 0x0, symName: __ZNSt3__122__compressed_pair_elemINS_12basic_stringIcNS_11char_traitsIcEENS_9allocatorIcEEE5__repELi0ELb0EEC2B8ne180100ENS_18__default_init_tagE, symObjAddr: 0x13350, symBinAddr: 0x100015BE8, symSize: 0x14 }
  - { offset: 0x5064D, size: 0x8, addend: 0x0, symName: __ZNSt3__122__compressed_pair_elemINS_9allocatorIcEELi1ELb1EEC2B8ne180100ENS_18__default_init_tagE, symObjAddr: 0x13364, symBinAddr: 0x100015BFC, symSize: 0x2C }
  - { offset: 0x50681, size: 0x8, addend: 0x0, symName: __ZNSt3__19allocatorIcEC2B8ne180100Ev, symObjAddr: 0x13390, symBinAddr: 0x100015C28, symSize: 0x2C }
  - { offset: 0x506AB, size: 0x8, addend: 0x0, symName: __ZNSt3__116__non_trivial_ifILb1ENS_9allocatorIcEEEC2B8ne180100Ev, symObjAddr: 0x133BC, symBinAddr: 0x100015C54, symSize: 0x14 }
  - { offset: 0x506D5, size: 0x8, addend: 0x0, symName: __ZNSt3__14__fs10filesystem4pathC2B8ne180100EONS_12basic_stringIcNS_11char_traitsIcEENS_9allocatorIcEEEENS2_6formatE, symObjAddr: 0x133D0, symBinAddr: 0x100015C68, symSize: 0x38 }
  - { offset: 0x5071A, size: 0x8, addend: 0x0, symName: __ZNSt3__112basic_stringIcNS_11char_traitsIcEENS_9allocatorIcEEEC1B8ne180100EOS5_, symObjAddr: 0x13408, symBinAddr: 0x100015CA0, symSize: 0x34 }
  - { offset: 0x50753, size: 0x8, addend: 0x0, symName: __ZNSt3__112basic_stringIcNS_11char_traitsIcEENS_9allocatorIcEEEC2B8ne180100EOS5_, symObjAddr: 0x1343C, symBinAddr: 0x100015CD4, symSize: 0xB8 }
  - { offset: 0x507BE, size: 0x8, addend: 0x0, symName: __ZZNSt3__112basic_stringIcNS_11char_traitsIcEENS_9allocatorIcEEEC1B8ne180100EOS5_ENKUlRS5_E_clES7_, symObjAddr: 0x134F4, symBinAddr: 0x100015D8C, symSize: 0x40 }
  - { offset: 0x507F7, size: 0x8, addend: 0x0, symName: __ZNSt3__117__compressed_pairINS_12basic_stringIcNS_11char_traitsIcEENS_9allocatorIcEEE5__repES5_E5firstB8ne180100Ev, symObjAddr: 0x13534, symBinAddr: 0x100015DCC, symSize: 0x24 }
  - { offset: 0x5081D, size: 0x8, addend: 0x0, symName: __ZNKSt3__112basic_stringIcNS_11char_traitsIcEENS_9allocatorIcEEE14__annotate_newB8ne180100Em, symObjAddr: 0x13558, symBinAddr: 0x100015DF0, symSize: 0x14 }
  - { offset: 0x50852, size: 0x8, addend: 0x0, symName: __ZNKSt3__112basic_stringIcNS_11char_traitsIcEENS_9allocatorIcEEE9__is_longB8ne180100Ev, symObjAddr: 0x1356C, symBinAddr: 0x100015E04, symSize: 0x34 }
  - { offset: 0x50878, size: 0x8, addend: 0x0, symName: __ZNKSt3__112basic_stringIcNS_11char_traitsIcEENS_9allocatorIcEEE17__annotate_deleteB8ne180100Ev, symObjAddr: 0x135A0, symBinAddr: 0x100015E38, symSize: 0x10 }
  - { offset: 0x5089E, size: 0x8, addend: 0x0, symName: __ZNSt3__122__compressed_pair_elemINS_12basic_stringIcNS_11char_traitsIcEENS_9allocatorIcEEE5__repELi0ELb0EE5__getB8ne180100Ev, symObjAddr: 0x135B0, symBinAddr: 0x100015E48, symSize: 0x14 }
  - { offset: 0x508C4, size: 0x8, addend: 0x0, symName: __ZNKSt3__117__compressed_pairINS_12basic_stringIcNS_11char_traitsIcEENS_9allocatorIcEEE5__repES5_E5firstB8ne180100Ev, symObjAddr: 0x135C4, symBinAddr: 0x100015E5C, symSize: 0x24 }
  - { offset: 0x508EA, size: 0x8, addend: 0x0, symName: __ZNKSt3__122__compressed_pair_elemINS_12basic_stringIcNS_11char_traitsIcEENS_9allocatorIcEEE5__repELi0ELb0EE5__getB8ne180100Ev, symObjAddr: 0x135E8, symBinAddr: 0x100015E80, symSize: 0x14 }
  - { offset: 0x50910, size: 0x8, addend: 0x0, symName: __ZNKSt3__16chrono8durationIxNS_5ratioILl1ELl1000000000EEEE5countB8ne180100Ev, symObjAddr: 0x13644, symBinAddr: 0x100015EDC, symSize: 0x18 }
  - { offset: 0x50941, size: 0x8, addend: 0x0, symName: __ZNSt3__16chrono8durationIxNS_5ratioILl1ELl1000EEEEC1B8ne180100IxTnNS_9enable_ifIXaasr14is_convertibleIRKT_xEE5valueooL_ZNS_17integral_constantIbLb0EE5valueEEntsr23treat_as_floating_pointIS7_EE5valueEiE4typeELi0EEES9_, symObjAddr: 0x1365C, symBinAddr: 0x100015EF4, symSize: 0x34 }
  - { offset: 0x50988, size: 0x8, addend: 0x0, symName: __ZNSt3__16chrono8durationIxNS_5ratioILl1ELl1000EEEEC2B8ne180100IxTnNS_9enable_ifIXaasr14is_convertibleIRKT_xEE5valueooL_ZNS_17integral_constantIbLb0EE5valueEEntsr23treat_as_floating_pointIS7_EE5valueEiE4typeELi0EEES9_, symObjAddr: 0x13690, symBinAddr: 0x100015F28, symSize: 0x24 }
  - { offset: 0x509F1, size: 0x8, addend: 0x0, symName: __ZNKSt3__16chrono10time_pointINS0_12steady_clockENS0_8durationIxNS_5ratioILl1ELl1000000000EEEEEE16time_since_epochB8ne180100Ev, symObjAddr: 0x13720, symBinAddr: 0x100015FB8, symSize: 0x20 }
  - { offset: 0x50A17, size: 0x8, addend: 0x0, symName: __ZNSt3__16chrono8durationIxNS_5ratioILl1ELl1000000000EEEEC1B8ne180100IxTnNS_9enable_ifIXaasr14is_convertibleIRKT_xEE5valueooL_ZNS_17integral_constantIbLb0EE5valueEEntsr23treat_as_floating_pointIS7_EE5valueEiE4typeELi0EEES9_, symObjAddr: 0x13740, symBinAddr: 0x100015FD8, symSize: 0x34 }
  - { offset: 0x50A5E, size: 0x8, addend: 0x0, symName: __ZNSt3__16chrono8durationIxNS_5ratioILl1ELl1000000000EEEEC2B8ne180100IxTnNS_9enable_ifIXaasr14is_convertibleIRKT_xEE5valueooL_ZNS_17integral_constantIbLb0EE5valueEEntsr23treat_as_floating_pointIS7_EE5valueEiE4typeELi0EEES9_, symObjAddr: 0x13774, symBinAddr: 0x10001600C, symSize: 0x24 }
  - { offset: 0x50AA5, size: 0x8, addend: 0x0, symName: __ZN14WEIGHTED_ASTARC2ERK9AdjMatrixRKNSt3__16vectorINS3_10shared_ptrI4NodeEENS3_9allocatorIS7_EEEERNS4_IdNS8_IdEEEE, symObjAddr: 0x13798, symBinAddr: 0x100016030, symSize: 0x38 }
  - { offset: 0x50AFC, size: 0x8, addend: 0x0, symName: __ZNSt3__120__shared_ptr_emplaceI4NodeNS_9allocatorIS1_EEEC1B8ne180100IJRdS6_RmRNS_6vectorIdNS2_IdEEEES6_SB_RKiRNS_10shared_ptrIS1_EEES3_TnNS_9enable_ifIXntsr7is_sameINT0_10value_typeENS_19__for_overwrite_tagEEE5valueEiE4typeELi0EEES3_DpOT_, symObjAddr: 0x13930, symBinAddr: 0x1000161C8, symSize: 0x78 }
  - { offset: 0x50BEA, size: 0x8, addend: 0x0, symName: __ZNSt3__120__shared_ptr_emplaceI4NodeNS_9allocatorIS1_EEEC2B8ne180100IJRdS6_RmRNS_6vectorIdNS2_IdEEEES6_SB_RKiRNS_10shared_ptrIS1_EEES3_TnNS_9enable_ifIXntsr7is_sameINT0_10value_typeENS_19__for_overwrite_tagEEE5valueEiE4typeELi0EEES3_DpOT_, symObjAddr: 0x139A8, symBinAddr: 0x100016240, symSize: 0x104 }
  - { offset: 0x50CFA, size: 0x8, addend: 0x0, symName: __ZNSt3__116allocator_traitsINS_9allocatorI4NodeEEE9constructB8ne180100IS2_JRdS6_RmRNS_6vectorIdNS1_IdEEEES6_SB_RKiRNS_10shared_ptrIS2_EEEvEEvRS3_PT_DpOT0_, symObjAddr: 0x13AAC, symBinAddr: 0x100016344, symSize: 0x80 }
  - { offset: 0x50DDD, size: 0x8, addend: 0x0, symName: __ZNSt3__19allocatorI4NodeE9constructB8ne180100IS1_JRdS4_RmRNS_6vectorIdNS0_IdEEEES4_S9_RKiRNS_10shared_ptrIS1_EEEEEvPT_DpOT0_, symObjAddr: 0x13B2C, symBinAddr: 0x1000163C4, symSize: 0x118 }
  - { offset: 0x50EBA, size: 0x8, addend: 0x0, symName: __ZN4NodeC1EddmNSt3__16vectorIdNS0_9allocatorIdEEEEdRKS4_iNS0_10shared_ptrIS_EE, symObjAddr: 0x13C44, symBinAddr: 0x1000164DC, symSize: 0x6C }
  - { offset: 0x50F56, size: 0x8, addend: 0x0, symName: __ZN4NodeC2EddmNSt3__16vectorIdNS0_9allocatorIdEEEEdRKS4_iNS0_10shared_ptrIS_EE, symObjAddr: 0x13CB0, symBinAddr: 0x100016548, symSize: 0x1F4 }
  - { offset: 0x5101C, size: 0x8, addend: 0x0, symName: __ZNSt3__114basic_ofstreamIcNS_11char_traitsIcEEED2Ev, symObjAddr: 0x13EA4, symBinAddr: 0x10001673C, symSize: 0x64 }
  - { offset: 0x51056, size: 0x8, addend: 0x0, symName: __ZTv0_n24_NSt3__114basic_ofstreamIcNS_11char_traitsIcEEED1Ev, symObjAddr: 0x13F08, symBinAddr: 0x1000167A0, symSize: 0x28 }
  - { offset: 0x5106D, size: 0x8, addend: 0x0, symName: __ZNKSt3__111__wrap_iterIPKNS_6vectorImNS_9allocatorImEEEEE4baseB8ne180100Ev, symObjAddr: 0x13F74, symBinAddr: 0x10001680C, symSize: 0x18 }
  - { offset: 0x51093, size: 0x8, addend: 0x0, symName: __ZN3logC2ENSt3__112basic_stringIcNS0_11char_traitsIcEENS0_9allocatorIcEEEEmmS6_, symObjAddr: 0x13F8C, symBinAddr: 0x100016824, symSize: 0x19C }
  - { offset: 0x510FB, size: 0x8, addend: 0x0, symName: __ZNSt16initializer_listINSt3__16vectorINS1_IdNS0_9allocatorIdEEEENS2_IS4_EEEEEC1B8ne180100Ev, symObjAddr: 0x14128, symBinAddr: 0x1000169C0, symSize: 0x2C }
  - { offset: 0x51125, size: 0x8, addend: 0x0, symName: __ZNSt3__16vectorINS0_INS0_IdNS_9allocatorIdEEEENS1_IS3_EEEENS1_IS5_EEEC1B8ne180100ESt16initializer_listIS5_E, symObjAddr: 0x14154, symBinAddr: 0x1000169EC, symSize: 0x3C }
  - { offset: 0x51160, size: 0x8, addend: 0x0, symName: __ZNSt3__16vectorIiNS_9allocatorIiEEEC1B8ne180100Ev, symObjAddr: 0x14190, symBinAddr: 0x100016A28, symSize: 0x2C }
  - { offset: 0x5118A, size: 0x8, addend: 0x0, symName: __ZNSt3__16vectorIdNS_9allocatorIdEEEC1B8ne180100Ev, symObjAddr: 0x141BC, symBinAddr: 0x100016A54, symSize: 0x2C }
  - { offset: 0x511B4, size: 0x8, addend: 0x0, symName: __ZNSt16initializer_listINSt3__16vectorINS1_IdNS0_9allocatorIdEEEENS2_IS4_EEEEEC2B8ne180100Ev, symObjAddr: 0x141E8, symBinAddr: 0x100016A80, symSize: 0x1C }
  - { offset: 0x511DE, size: 0x8, addend: 0x0, symName: __ZNSt3__16vectorINS0_INS0_IdNS_9allocatorIdEEEENS1_IS3_EEEENS1_IS5_EEEC2B8ne180100ESt16initializer_listIS5_E, symObjAddr: 0x14204, symBinAddr: 0x100016A9C, symSize: 0x11C }
  - { offset: 0x5122E, size: 0x8, addend: 0x0, symName: __ZNSt3__117__compressed_pairIPNS_6vectorINS1_IdNS_9allocatorIdEEEENS2_IS4_EEEENS2_IS6_EEEC1B8ne180100IDnNS_18__default_init_tagEEEOT_OT0_, symObjAddr: 0x14320, symBinAddr: 0x100016BB8, symSize: 0x3C }
  - { offset: 0x51286, size: 0x8, addend: 0x0, symName: __ZNSt3__16vectorINS0_INS0_IdNS_9allocatorIdEEEENS1_IS3_EEEENS1_IS5_EEE16__destroy_vectorC1B8ne180100ERS7_, symObjAddr: 0x1439C, symBinAddr: 0x100016C34, symSize: 0x34 }
  - { offset: 0x512BF, size: 0x8, addend: 0x0, symName: __ZNKSt16initializer_listINSt3__16vectorINS1_IdNS0_9allocatorIdEEEENS2_IS4_EEEEE4sizeB8ne180100Ev, symObjAddr: 0x143D0, symBinAddr: 0x100016C68, symSize: 0x18 }
  - { offset: 0x512E5, size: 0x8, addend: 0x0, symName: __ZNSt3__16vectorINS0_INS0_IdNS_9allocatorIdEEEENS1_IS3_EEEENS1_IS5_EEE11__vallocateB8ne180100Em, symObjAddr: 0x143E8, symBinAddr: 0x100016C80, symSize: 0xB0 }
  - { offset: 0x51329, size: 0x8, addend: 0x0, symName: __ZNSt3__16vectorINS0_INS0_IdNS_9allocatorIdEEEENS1_IS3_EEEENS1_IS5_EEE18__construct_at_endIPKS5_SA_EEvT_T0_m, symObjAddr: 0x14498, symBinAddr: 0x100016D30, symSize: 0x8C }
  - { offset: 0x5139D, size: 0x8, addend: 0x0, symName: __ZNKSt16initializer_listINSt3__16vectorINS1_IdNS0_9allocatorIdEEEENS2_IS4_EEEEE5beginB8ne180100Ev, symObjAddr: 0x14524, symBinAddr: 0x100016DBC, symSize: 0x18 }
  - { offset: 0x513C3, size: 0x8, addend: 0x0, symName: __ZNKSt16initializer_listINSt3__16vectorINS1_IdNS0_9allocatorIdEEEENS2_IS4_EEEEE3endB8ne180100Ev, symObjAddr: 0x1453C, symBinAddr: 0x100016DD4, symSize: 0x28 }
  - { offset: 0x513E9, size: 0x8, addend: 0x0, symName: __ZNSt3__128__exception_guard_exceptionsINS_6vectorINS1_INS1_IdNS_9allocatorIdEEEENS2_IS4_EEEENS2_IS6_EEE16__destroy_vectorEE10__completeB8ne180100Ev, symObjAddr: 0x14564, symBinAddr: 0x100016DFC, symSize: 0x1C }
  - { offset: 0x5140F, size: 0x8, addend: 0x0, symName: __ZNSt3__128__exception_guard_exceptionsINS_6vectorINS1_INS1_IdNS_9allocatorIdEEEENS2_IS4_EEEENS2_IS6_EEE16__destroy_vectorEED1B8ne180100Ev, symObjAddr: 0x14580, symBinAddr: 0x100016E18, symSize: 0x2C }
  - { offset: 0x51439, size: 0x8, addend: 0x0, symName: __ZNSt3__117__compressed_pairIPNS_6vectorINS1_IdNS_9allocatorIdEEEENS2_IS4_EEEENS2_IS6_EEEC2B8ne180100IDnNS_18__default_init_tagEEEOT_OT0_, symObjAddr: 0x145AC, symBinAddr: 0x100016E44, symSize: 0x40 }
  - { offset: 0x51491, size: 0x8, addend: 0x0, symName: __ZNSt3__122__compressed_pair_elemIPNS_6vectorINS1_IdNS_9allocatorIdEEEENS2_IS4_EEEELi0ELb0EEC2B8ne180100IDnvEEOT_, symObjAddr: 0x145EC, symBinAddr: 0x100016E84, symSize: 0x1C }
  - { offset: 0x514D3, size: 0x8, addend: 0x0, symName: __ZNSt3__122__compressed_pair_elemINS_9allocatorINS_6vectorINS2_IdNS1_IdEEEENS1_IS4_EEEEEELi1ELb1EEC2B8ne180100ENS_18__default_init_tagE, symObjAddr: 0x14608, symBinAddr: 0x100016EA0, symSize: 0x2C }
  - { offset: 0x51507, size: 0x8, addend: 0x0, symName: __ZNSt3__19allocatorINS_6vectorINS1_IdNS0_IdEEEENS0_IS3_EEEEEC2B8ne180100Ev, symObjAddr: 0x14634, symBinAddr: 0x100016ECC, symSize: 0x2C }
  - { offset: 0x51531, size: 0x8, addend: 0x0, symName: __ZNSt3__116__non_trivial_ifILb1ENS_9allocatorINS_6vectorINS2_IdNS1_IdEEEENS1_IS4_EEEEEEEC2B8ne180100Ev, symObjAddr: 0x14660, symBinAddr: 0x100016EF8, symSize: 0x14 }
  - { offset: 0x5155B, size: 0x8, addend: 0x0, symName: __ZNSt3__128__exception_guard_exceptionsINS_6vectorINS1_INS1_IdNS_9allocatorIdEEEENS2_IS4_EEEENS2_IS6_EEE16__destroy_vectorEEC1B8ne180100ES9_, symObjAddr: 0x14674, symBinAddr: 0x100016F0C, symSize: 0x34 }
  - { offset: 0x51593, size: 0x8, addend: 0x0, symName: __ZNSt3__128__exception_guard_exceptionsINS_6vectorINS1_INS1_IdNS_9allocatorIdEEEENS2_IS4_EEEENS2_IS6_EEE16__destroy_vectorEEC2B8ne180100ES9_, symObjAddr: 0x146A8, symBinAddr: 0x100016F40, symSize: 0x24 }
  - { offset: 0x515CB, size: 0x8, addend: 0x0, symName: __ZNSt3__16vectorINS0_INS0_IdNS_9allocatorIdEEEENS1_IS3_EEEENS1_IS5_EEE16__destroy_vectorC2B8ne180100ERS7_, symObjAddr: 0x146CC, symBinAddr: 0x100016F64, symSize: 0x20 }
  - { offset: 0x51604, size: 0x8, addend: 0x0, symName: __ZNKSt3__16vectorINS0_INS0_IdNS_9allocatorIdEEEENS1_IS3_EEEENS1_IS5_EEE8max_sizeEv, symObjAddr: 0x146EC, symBinAddr: 0x100016F84, symSize: 0x60 }
  - { offset: 0x5162C, size: 0x8, addend: 0x0, symName: __ZNKSt3__16vectorINS0_INS0_IdNS_9allocatorIdEEEENS1_IS3_EEEENS1_IS5_EEE20__throw_length_errorB8ne180100Ev, symObjAddr: 0x1474C, symBinAddr: 0x100016FE4, symSize: 0x1C }
  - { offset: 0x51652, size: 0x8, addend: 0x0, symName: __ZNSt3__16vectorINS0_INS0_IdNS_9allocatorIdEEEENS1_IS3_EEEENS1_IS5_EEE7__allocB8ne180100Ev, symObjAddr: 0x147A8, symBinAddr: 0x100017040, symSize: 0x28 }
  - { offset: 0x51678, size: 0x8, addend: 0x0, symName: __ZNSt3__16vectorINS0_INS0_IdNS_9allocatorIdEEEENS1_IS3_EEEENS1_IS5_EEE9__end_capB8ne180100Ev, symObjAddr: 0x147D0, symBinAddr: 0x100017068, symSize: 0x28 }
  - { offset: 0x5169E, size: 0x8, addend: 0x0, symName: __ZNKSt3__16vectorINS0_INS0_IdNS_9allocatorIdEEEENS1_IS3_EEEENS1_IS5_EEE14__annotate_newB8ne180100Em, symObjAddr: 0x147F8, symBinAddr: 0x100017090, symSize: 0x14 }
  - { offset: 0x516DE, size: 0x8, addend: 0x0, symName: __ZNSt3__116allocator_traitsINS_9allocatorINS_6vectorINS2_IdNS1_IdEEEENS1_IS4_EEEEEEE8max_sizeB8ne180100IS7_vEEmRKS7_, symObjAddr: 0x1480C, symBinAddr: 0x1000170A4, symSize: 0x24 }
  - { offset: 0x5170C, size: 0x8, addend: 0x0, symName: __ZNKSt3__16vectorINS0_INS0_IdNS_9allocatorIdEEEENS1_IS3_EEEENS1_IS5_EEE7__allocB8ne180100Ev, symObjAddr: 0x14830, symBinAddr: 0x1000170C8, symSize: 0x28 }
  - { offset: 0x51732, size: 0x8, addend: 0x0, symName: __ZNKSt3__19allocatorINS_6vectorINS1_IdNS0_IdEEEENS0_IS3_EEEEE8max_sizeB8ne180100Ev, symObjAddr: 0x14858, symBinAddr: 0x1000170F0, symSize: 0x18 }
  - { offset: 0x51758, size: 0x8, addend: 0x0, symName: __ZNKSt3__117__compressed_pairIPNS_6vectorINS1_IdNS_9allocatorIdEEEENS2_IS4_EEEENS2_IS6_EEE6secondB8ne180100Ev, symObjAddr: 0x14870, symBinAddr: 0x100017108, symSize: 0x24 }
  - { offset: 0x5177E, size: 0x8, addend: 0x0, symName: __ZNKSt3__122__compressed_pair_elemINS_9allocatorINS_6vectorINS2_IdNS1_IdEEEENS1_IS4_EEEEEELi1ELb1EE5__getB8ne180100Ev, symObjAddr: 0x14894, symBinAddr: 0x10001712C, symSize: 0x14 }
  - { offset: 0x517A4, size: 0x8, addend: 0x0, symName: __ZNSt3__19allocatorINS_6vectorINS1_IdNS0_IdEEEENS0_IS3_EEEEE8allocateB8ne180100Em, symObjAddr: 0x148A8, symBinAddr: 0x100017140, symSize: 0x58 }
  - { offset: 0x517D8, size: 0x8, addend: 0x0, symName: __ZNSt3__117__compressed_pairIPNS_6vectorINS1_IdNS_9allocatorIdEEEENS2_IS4_EEEENS2_IS6_EEE6secondB8ne180100Ev, symObjAddr: 0x14900, symBinAddr: 0x100017198, symSize: 0x24 }
  - { offset: 0x517FE, size: 0x8, addend: 0x0, symName: __ZNSt3__122__compressed_pair_elemINS_9allocatorINS_6vectorINS2_IdNS1_IdEEEENS1_IS4_EEEEEELi1ELb1EE5__getB8ne180100Ev, symObjAddr: 0x14924, symBinAddr: 0x1000171BC, symSize: 0x14 }
  - { offset: 0x51824, size: 0x8, addend: 0x0, symName: __ZNSt3__117__compressed_pairIPNS_6vectorINS1_IdNS_9allocatorIdEEEENS2_IS4_EEEENS2_IS6_EEE5firstB8ne180100Ev, symObjAddr: 0x14938, symBinAddr: 0x1000171D0, symSize: 0x24 }
  - { offset: 0x5184A, size: 0x8, addend: 0x0, symName: __ZNSt3__122__compressed_pair_elemIPNS_6vectorINS1_IdNS_9allocatorIdEEEENS2_IS4_EEEELi0ELb0EE5__getB8ne180100Ev, symObjAddr: 0x1495C, symBinAddr: 0x1000171F4, symSize: 0x14 }
  - { offset: 0x5188C, size: 0x8, addend: 0x0, symName: __ZNSt3__16vectorINS0_INS0_IdNS_9allocatorIdEEEENS1_IS3_EEEENS1_IS5_EEE21_ConstructTransactionC1B8ne180100ERS7_m, symObjAddr: 0x14970, symBinAddr: 0x100017208, symSize: 0x3C }
  - { offset: 0x518D4, size: 0x8, addend: 0x0, symName: __ZNSt3__16vectorINS0_INS0_IdNS_9allocatorIdEEEENS1_IS3_EEEENS1_IS5_EEE21_ConstructTransactionD1B8ne180100Ev, symObjAddr: 0x14A2C, symBinAddr: 0x1000172C4, symSize: 0x2C }
  - { offset: 0x518FE, size: 0x8, addend: 0x0, symName: __ZNSt3__16vectorINS0_INS0_IdNS_9allocatorIdEEEENS1_IS3_EEEENS1_IS5_EEE21_ConstructTransactionC2B8ne180100ERS7_m, symObjAddr: 0x14A58, symBinAddr: 0x1000172F0, symSize: 0x4C }
  - { offset: 0x51969, size: 0x8, addend: 0x0, symName: __ZNSt3__14pairIPKNS_6vectorINS1_IdNS_9allocatorIdEEEENS2_IS4_EEEES8_EC1B8ne180100IS8_S8_TnNS_9enable_ifIXclsr10_CheckArgsE17__enable_implicitIT_T0_EEEiE4typeELi0EEEOSC_OSD_, symObjAddr: 0x14CB0, symBinAddr: 0x100017548, symSize: 0x3C }
  - { offset: 0x519C7, size: 0x8, addend: 0x0, symName: __ZNSt3__14pairIPKNS_6vectorINS1_IdNS_9allocatorIdEEEENS2_IS4_EEEES8_EC2B8ne180100IS8_S8_TnNS_9enable_ifIXclsr10_CheckArgsE17__enable_implicitIT_T0_EEEiE4typeELi0EEEOSC_OSD_, symObjAddr: 0x14CEC, symBinAddr: 0x100017584, symSize: 0x34 }
  - { offset: 0x51A25, size: 0x8, addend: 0x0, symName: __ZNSt3__118__unwrap_iter_implIPKNS_6vectorINS1_IdNS_9allocatorIdEEEENS2_IS4_EEEELb1EE8__unwrapB8ne180100ES8_, symObjAddr: 0x14D20, symBinAddr: 0x1000175B8, symSize: 0x24 }
  - { offset: 0x51A48, size: 0x8, addend: 0x0, symName: __ZNSt3__129_AllocatorDestroyRangeReverseINS_9allocatorINS_6vectorINS2_IdNS1_IdEEEENS1_IS4_EEEEEEPS6_EC1B8ne180100ERS7_RS8_SB_, symObjAddr: 0x14DA4, symBinAddr: 0x10001763C, symSize: 0x44 }
  - { offset: 0x51A9F, size: 0x8, addend: 0x0, symName: __ZNSt3__116allocator_traitsINS_9allocatorINS_6vectorINS2_IdNS1_IdEEEENS1_IS4_EEEEEEE9constructB8ne180100IS6_JRKS6_EvEEvRS7_PT_DpOT0_, symObjAddr: 0x14DE8, symBinAddr: 0x100017680, symSize: 0x34 }
  - { offset: 0x51AF6, size: 0x8, addend: 0x0, symName: __ZNSt3__128__exception_guard_exceptionsINS_29_AllocatorDestroyRangeReverseINS_9allocatorINS_6vectorINS3_IdNS2_IdEEEENS2_IS5_EEEEEEPS7_EEE10__completeB8ne180100Ev, symObjAddr: 0x14E30, symBinAddr: 0x1000176C8, symSize: 0x1C }
  - { offset: 0x51B1C, size: 0x8, addend: 0x0, symName: __ZNSt3__128__exception_guard_exceptionsINS_29_AllocatorDestroyRangeReverseINS_9allocatorINS_6vectorINS3_IdNS2_IdEEEENS2_IS5_EEEEEEPS7_EEED1B8ne180100Ev, symObjAddr: 0x14E4C, symBinAddr: 0x1000176E4, symSize: 0x2C }
  - { offset: 0x51B46, size: 0x8, addend: 0x0, symName: __ZNSt3__128__exception_guard_exceptionsINS_29_AllocatorDestroyRangeReverseINS_9allocatorINS_6vectorINS3_IdNS2_IdEEEENS2_IS5_EEEEEEPS7_EEEC1B8ne180100ESA_, symObjAddr: 0x14E78, symBinAddr: 0x100017710, symSize: 0x34 }
  - { offset: 0x51B7F, size: 0x8, addend: 0x0, symName: __ZNSt3__128__exception_guard_exceptionsINS_29_AllocatorDestroyRangeReverseINS_9allocatorINS_6vectorINS3_IdNS2_IdEEEENS2_IS5_EEEEEEPS7_EEEC2B8ne180100ESA_, symObjAddr: 0x14EAC, symBinAddr: 0x100017744, symSize: 0x30 }
  - { offset: 0x51BB8, size: 0x8, addend: 0x0, symName: __ZNSt3__129_AllocatorDestroyRangeReverseINS_9allocatorINS_6vectorINS2_IdNS1_IdEEEENS1_IS4_EEEEEEPS6_EC2B8ne180100ERS7_RS8_SB_, symObjAddr: 0x14EDC, symBinAddr: 0x100017774, symSize: 0x38 }
  - { offset: 0x51C0F, size: 0x8, addend: 0x0, symName: __ZNSt3__19allocatorINS_6vectorINS1_IdNS0_IdEEEENS0_IS3_EEEEE9constructB8ne180100IS5_JRKS5_EEEvPT_DpOT0_, symObjAddr: 0x14F14, symBinAddr: 0x1000177AC, symSize: 0x30 }
  - { offset: 0x51C65, size: 0x8, addend: 0x0, symName: __ZNSt3__128__exception_guard_exceptionsINS_29_AllocatorDestroyRangeReverseINS_9allocatorINS_6vectorINS3_IdNS2_IdEEEENS2_IS5_EEEEEEPS7_EEED2B8ne180100Ev, symObjAddr: 0x14F44, symBinAddr: 0x1000177DC, symSize: 0x50 }
  - { offset: 0x51C8F, size: 0x8, addend: 0x0, symName: __ZNKSt3__129_AllocatorDestroyRangeReverseINS_9allocatorINS_6vectorINS2_IdNS1_IdEEEENS1_IS4_EEEEEEPS6_EclB8ne180100Ev, symObjAddr: 0x14F94, symBinAddr: 0x10001782C, symSize: 0x68 }
  - { offset: 0x51CB5, size: 0x8, addend: 0x0, symName: __ZNSt3__116reverse_iteratorIPNS_6vectorINS1_IdNS_9allocatorIdEEEENS2_IS4_EEEEEC1B8ne180100ES7_, symObjAddr: 0x1506C, symBinAddr: 0x100017904, symSize: 0x34 }
  - { offset: 0x51CED, size: 0x8, addend: 0x0, symName: __ZNSt3__116allocator_traitsINS_9allocatorINS_6vectorINS2_IdNS1_IdEEEENS1_IS4_EEEEEEE7destroyB8ne180100IS6_vEEvRS7_PT_, symObjAddr: 0x150E4, symBinAddr: 0x10001797C, symSize: 0x2C }
  - { offset: 0x51D2A, size: 0x8, addend: 0x0, symName: __ZNSt3__116reverse_iteratorIPNS_6vectorINS1_IdNS_9allocatorIdEEEENS2_IS4_EEEEEppB8ne180100Ev, symObjAddr: 0x15134, symBinAddr: 0x1000179CC, symSize: 0x20 }
  - { offset: 0x51D50, size: 0x8, addend: 0x0, symName: __ZNKSt3__116reverse_iteratorIPNS_6vectorINS1_IdNS_9allocatorIdEEEENS2_IS4_EEEEE4baseB8ne180100Ev, symObjAddr: 0x15154, symBinAddr: 0x1000179EC, symSize: 0x18 }
  - { offset: 0x51D76, size: 0x8, addend: 0x0, symName: __ZNSt3__19allocatorINS_6vectorINS1_IdNS0_IdEEEENS0_IS3_EEEEE7destroyB8ne180100EPS5_, symObjAddr: 0x1516C, symBinAddr: 0x100017A04, symSize: 0x28 }
  - { offset: 0x51DB0, size: 0x8, addend: 0x0, symName: __ZNSt3__119__to_address_helperINS_16reverse_iteratorIPNS_6vectorINS2_IdNS_9allocatorIdEEEENS3_IS5_EEEEEEvE6__callB8ne180100ERKS9_, symObjAddr: 0x15194, symBinAddr: 0x100017A2C, symSize: 0x38 }
  - { offset: 0x51DD3, size: 0x8, addend: 0x0, symName: __ZNKSt3__116reverse_iteratorIPNS_6vectorINS1_IdNS_9allocatorIdEEEENS2_IS4_EEEEEptB8ne180100Ev, symObjAddr: 0x151CC, symBinAddr: 0x100017A64, symSize: 0x24 }
  - { offset: 0x51DF9, size: 0x8, addend: 0x0, symName: __ZNKSt3__116reverse_iteratorIPNS_6vectorINS1_IdNS_9allocatorIdEEEENS2_IS4_EEEEEdeB8ne180100Ev, symObjAddr: 0x151F0, symBinAddr: 0x100017A88, symSize: 0x28 }
  - { offset: 0x51E2D, size: 0x8, addend: 0x0, symName: __ZNSt3__116reverse_iteratorIPNS_6vectorINS1_IdNS_9allocatorIdEEEENS2_IS4_EEEEEC2B8ne180100ES7_, symObjAddr: 0x15218, symBinAddr: 0x100017AB0, symSize: 0x28 }
  - { offset: 0x51E65, size: 0x8, addend: 0x0, symName: __ZNSt3__118__unwrap_iter_implIPNS_6vectorINS1_IdNS_9allocatorIdEEEENS2_IS4_EEEELb1EE8__unwrapB8ne180100ES7_, symObjAddr: 0x15240, symBinAddr: 0x100017AD8, symSize: 0x24 }
  - { offset: 0x51E88, size: 0x8, addend: 0x0, symName: __ZNSt3__118__unwrap_iter_implIPNS_6vectorINS1_IdNS_9allocatorIdEEEENS2_IS4_EEEELb1EE8__rewrapB8ne180100ES7_S7_, symObjAddr: 0x15264, symBinAddr: 0x100017AFC, symSize: 0x58 }
  - { offset: 0x51EB9, size: 0x8, addend: 0x0, symName: __ZNSt3__16vectorINS0_INS0_IdNS_9allocatorIdEEEENS1_IS3_EEEENS1_IS5_EEE21_ConstructTransactionD2B8ne180100Ev, symObjAddr: 0x152BC, symBinAddr: 0x100017B54, symSize: 0x20 }
  - { offset: 0x51EE3, size: 0x8, addend: 0x0, symName: __ZNSt3__128__exception_guard_exceptionsINS_6vectorINS1_INS1_IdNS_9allocatorIdEEEENS2_IS4_EEEENS2_IS6_EEE16__destroy_vectorEED2B8ne180100Ev, symObjAddr: 0x152DC, symBinAddr: 0x100017B74, symSize: 0x50 }
  - { offset: 0x51F0D, size: 0x8, addend: 0x0, symName: __ZNSt3__16vectorINS0_INS0_IdNS_9allocatorIdEEEENS1_IS3_EEEENS1_IS5_EEE16__destroy_vectorclB8ne180100Ev, symObjAddr: 0x1532C, symBinAddr: 0x100017BC4, symSize: 0x88 }
  - { offset: 0x51F33, size: 0x8, addend: 0x0, symName: __ZNSt3__16vectorINS0_INS0_IdNS_9allocatorIdEEEENS1_IS3_EEEENS1_IS5_EEE7__clearB8ne180100Ev, symObjAddr: 0x153B4, symBinAddr: 0x100017C4C, symSize: 0x28 }
  - { offset: 0x51F59, size: 0x8, addend: 0x0, symName: __ZNKSt3__16vectorINS0_INS0_IdNS_9allocatorIdEEEENS1_IS3_EEEENS1_IS5_EEE17__annotate_deleteB8ne180100Ev, symObjAddr: 0x153DC, symBinAddr: 0x100017C74, symSize: 0x10 }
  - { offset: 0x51F7F, size: 0x8, addend: 0x0, symName: __ZNSt3__116allocator_traitsINS_9allocatorINS_6vectorINS2_IdNS1_IdEEEENS1_IS4_EEEEEEE10deallocateB8ne180100ERS7_PS6_m, symObjAddr: 0x153EC, symBinAddr: 0x100017C84, symSize: 0x34 }
  - { offset: 0x51FC1, size: 0x8, addend: 0x0, symName: __ZNKSt3__16vectorINS0_INS0_IdNS_9allocatorIdEEEENS1_IS3_EEEENS1_IS5_EEE8capacityB8ne180100Ev, symObjAddr: 0x15420, symBinAddr: 0x100017CB8, symSize: 0x40 }
  - { offset: 0x51FE7, size: 0x8, addend: 0x0, symName: __ZNSt3__16vectorINS0_INS0_IdNS_9allocatorIdEEEENS1_IS3_EEEENS1_IS5_EEE22__base_destruct_at_endB8ne180100EPS5_, symObjAddr: 0x15460, symBinAddr: 0x100017CF8, symSize: 0x88 }
  - { offset: 0x5202B, size: 0x8, addend: 0x0, symName: __ZNSt3__19allocatorINS_6vectorINS1_IdNS0_IdEEEENS0_IS3_EEEEE10deallocateB8ne180100EPS5_m, symObjAddr: 0x154E8, symBinAddr: 0x100017D80, symSize: 0x44 }
  - { offset: 0x5206D, size: 0x8, addend: 0x0, symName: __ZNKSt3__16vectorINS0_INS0_IdNS_9allocatorIdEEEENS1_IS3_EEEENS1_IS5_EEE9__end_capB8ne180100Ev, symObjAddr: 0x1552C, symBinAddr: 0x100017DC4, symSize: 0x28 }
  - { offset: 0x52093, size: 0x8, addend: 0x0, symName: __ZNKSt3__117__compressed_pairIPNS_6vectorINS1_IdNS_9allocatorIdEEEENS2_IS4_EEEENS2_IS6_EEE5firstB8ne180100Ev, symObjAddr: 0x15554, symBinAddr: 0x100017DEC, symSize: 0x24 }
  - { offset: 0x520B9, size: 0x8, addend: 0x0, symName: __ZNKSt3__122__compressed_pair_elemIPNS_6vectorINS1_IdNS_9allocatorIdEEEENS2_IS4_EEEELi0ELb0EE5__getB8ne180100Ev, symObjAddr: 0x15578, symBinAddr: 0x100017E10, symSize: 0x14 }
  - { offset: 0x520DF, size: 0x8, addend: 0x0, symName: __ZNSt3__16vectorIiNS_9allocatorIiEEEC2B8ne180100Ev, symObjAddr: 0x1558C, symBinAddr: 0x100017E24, symSize: 0x4C }
  - { offset: 0x52109, size: 0x8, addend: 0x0, symName: __ZNSt3__117__compressed_pairIPiNS_9allocatorIiEEEC1B8ne180100IDnNS_18__default_init_tagEEEOT_OT0_, symObjAddr: 0x155D8, symBinAddr: 0x100017E70, symSize: 0x3C }
  - { offset: 0x52161, size: 0x8, addend: 0x0, symName: __ZNSt3__117__compressed_pairIPiNS_9allocatorIiEEEC2B8ne180100IDnNS_18__default_init_tagEEEOT_OT0_, symObjAddr: 0x15614, symBinAddr: 0x100017EAC, symSize: 0x40 }
  - { offset: 0x521B9, size: 0x8, addend: 0x0, symName: __ZNSt3__122__compressed_pair_elemIPiLi0ELb0EEC2B8ne180100IDnvEEOT_, symObjAddr: 0x15654, symBinAddr: 0x100017EEC, symSize: 0x1C }
  - { offset: 0x521FB, size: 0x8, addend: 0x0, symName: __ZNSt3__122__compressed_pair_elemINS_9allocatorIiEELi1ELb1EEC2B8ne180100ENS_18__default_init_tagE, symObjAddr: 0x15670, symBinAddr: 0x100017F08, symSize: 0x2C }
  - { offset: 0x5222F, size: 0x8, addend: 0x0, symName: __ZNSt3__19allocatorIiEC2B8ne180100Ev, symObjAddr: 0x1569C, symBinAddr: 0x100017F34, symSize: 0x2C }
  - { offset: 0x52259, size: 0x8, addend: 0x0, symName: __ZNSt3__116__non_trivial_ifILb1ENS_9allocatorIiEEEC2B8ne180100Ev, symObjAddr: 0x156C8, symBinAddr: 0x100017F60, symSize: 0x14 }
  - { offset: 0x52283, size: 0x8, addend: 0x0, symName: __ZNSt3__16vectorIdNS_9allocatorIdEEEC2B8ne180100Ev, symObjAddr: 0x156DC, symBinAddr: 0x100017F74, symSize: 0x4C }
  - { offset: 0x522AD, size: 0x8, addend: 0x0, symName: __ZN3logD2Ev, symObjAddr: 0x15728, symBinAddr: 0x100017FC0, symSize: 0x98 }
  - { offset: 0x522DA, size: 0x8, addend: 0x0, symName: __ZNSt3__16vectorINS0_INS0_IdNS_9allocatorIdEEEENS1_IS3_EEEENS1_IS5_EEED1B8ne180100Ev, symObjAddr: 0x157C0, symBinAddr: 0x100018058, symSize: 0x2C }
  - { offset: 0x52304, size: 0x8, addend: 0x0, symName: __ZNSt3__16vectorINS0_INS0_IdNS_9allocatorIdEEEENS1_IS3_EEEENS1_IS5_EEED2B8ne180100Ev, symObjAddr: 0x157EC, symBinAddr: 0x100018084, symSize: 0x40 }
  - { offset: 0x5232E, size: 0x8, addend: 0x0, symName: __ZNSt3__112basic_stringIcNS_11char_traitsIcEENS_9allocatorIcEEEC2B8ne180100Ev, symObjAddr: 0x1582C, symBinAddr: 0x1000180C4, symSize: 0x48 }
  - { offset: 0x52358, size: 0x8, addend: 0x0, symName: __ZNSt3__117__compressed_pairINS_12basic_stringIcNS_11char_traitsIcEENS_9allocatorIcEEE5__repES5_EC1B8ne180100INS_16__value_init_tagENS_18__default_init_tagEEEOT_OT0_, symObjAddr: 0x15874, symBinAddr: 0x10001810C, symSize: 0x3C }
  - { offset: 0x523B0, size: 0x8, addend: 0x0, symName: __ZNSt3__117__compressed_pairINS_12basic_stringIcNS_11char_traitsIcEENS_9allocatorIcEEE5__repES5_EC2B8ne180100INS_16__value_init_tagENS_18__default_init_tagEEEOT_OT0_, symObjAddr: 0x158B0, symBinAddr: 0x100018148, symSize: 0x3C }
  - { offset: 0x52408, size: 0x8, addend: 0x0, symName: __ZNSt3__122__compressed_pair_elemINS_12basic_stringIcNS_11char_traitsIcEENS_9allocatorIcEEE5__repELi0ELb0EEC2B8ne180100ENS_16__value_init_tagE, symObjAddr: 0x158EC, symBinAddr: 0x100018184, symSize: 0x20 }
  - { offset: 0x5243C, size: 0x8, addend: 0x0, symName: __ZNSt3__112basic_stringIcNS_11char_traitsIcEENS_9allocatorIcEEE13__move_assignB8ne180100ERS5_NS_17integral_constantIbLb1EEE, symObjAddr: 0x1590C, symBinAddr: 0x1000181A4, symSize: 0x174 }
  - { offset: 0x5249D, size: 0x8, addend: 0x0, symName: __ZNSt3__116allocator_traitsINS_9allocatorIcEEE10deallocateB8ne180100ERS2_Pcm, symObjAddr: 0x15A80, symBinAddr: 0x100018318, symSize: 0x34 }
  - { offset: 0x524DF, size: 0x8, addend: 0x0, symName: __ZNSt3__112basic_stringIcNS_11char_traitsIcEENS_9allocatorIcEEE7__allocB8ne180100Ev, symObjAddr: 0x15AB4, symBinAddr: 0x10001834C, symSize: 0x24 }
  - { offset: 0x52505, size: 0x8, addend: 0x0, symName: __ZNSt3__112basic_stringIcNS_11char_traitsIcEENS_9allocatorIcEEE18__get_long_pointerB8ne180100Ev, symObjAddr: 0x15AD8, symBinAddr: 0x100018370, symSize: 0x28 }
  - { offset: 0x5252B, size: 0x8, addend: 0x0, symName: __ZNKSt3__112basic_stringIcNS_11char_traitsIcEENS_9allocatorIcEEE14__get_long_capB8ne180100Ev, symObjAddr: 0x15B00, symBinAddr: 0x100018398, symSize: 0x30 }
  - { offset: 0x52551, size: 0x8, addend: 0x0, symName: __ZNSt3__112basic_stringIcNS_11char_traitsIcEENS_9allocatorIcEEE19__move_assign_allocB8ne180100ERS5_, symObjAddr: 0x15B30, symBinAddr: 0x1000183C8, symSize: 0x2C }
  - { offset: 0x52586, size: 0x8, addend: 0x0, symName: __ZNSt3__112basic_stringIcNS_11char_traitsIcEENS_9allocatorIcEEE16__set_short_sizeB8ne180100Em, symObjAddr: 0x15B5C, symBinAddr: 0x1000183F4, symSize: 0x78 }
  - { offset: 0x525BB, size: 0x8, addend: 0x0, symName: __ZNSt3__111char_traitsIcE6assignB8ne180100ERcRKc, symObjAddr: 0x15BD4, symBinAddr: 0x10001846C, symSize: 0x24 }
  - { offset: 0x525EC, size: 0x8, addend: 0x0, symName: __ZNSt3__112basic_stringIcNS_11char_traitsIcEENS_9allocatorIcEEE19__get_short_pointerB8ne180100Ev, symObjAddr: 0x15BF8, symBinAddr: 0x100018490, symSize: 0x28 }
  - { offset: 0x52612, size: 0x8, addend: 0x0, symName: __ZNKSt3__112basic_stringIcNS_11char_traitsIcEENS_9allocatorIcEEE17__annotate_shrinkB8ne180100Em, symObjAddr: 0x15C20, symBinAddr: 0x1000184B8, symSize: 0x14 }
  - { offset: 0x52647, size: 0x8, addend: 0x0, symName: __ZNKSt3__112basic_stringIcNS_11char_traitsIcEENS_9allocatorIcEEE16__get_short_sizeB8ne180100Ev, symObjAddr: 0x15C34, symBinAddr: 0x1000184CC, symSize: 0x34 }
  - { offset: 0x5266D, size: 0x8, addend: 0x0, symName: __ZNSt3__19allocatorIcE10deallocateB8ne180100EPcm, symObjAddr: 0x15C68, symBinAddr: 0x100018500, symSize: 0x40 }
  - { offset: 0x526AF, size: 0x8, addend: 0x0, symName: __ZNSt3__117__compressed_pairINS_12basic_stringIcNS_11char_traitsIcEENS_9allocatorIcEEE5__repES5_E6secondB8ne180100Ev, symObjAddr: 0x15CA8, symBinAddr: 0x100018540, symSize: 0x24 }
  - { offset: 0x526D5, size: 0x8, addend: 0x0, symName: __ZNSt3__122__compressed_pair_elemINS_9allocatorIcEELi1ELb1EE5__getB8ne180100Ev, symObjAddr: 0x15CCC, symBinAddr: 0x100018564, symSize: 0x14 }
  - { offset: 0x526FB, size: 0x8, addend: 0x0, symName: __ZNSt3__112basic_stringIcNS_11char_traitsIcEENS_9allocatorIcEEE19__move_assign_allocB8ne180100ERS5_NS_17integral_constantIbLb1EEE, symObjAddr: 0x15CE0, symBinAddr: 0x100018578, symSize: 0x38 }
  - { offset: 0x5273C, size: 0x8, addend: 0x0, symName: __ZNSt3__114pointer_traitsIPcE10pointer_toB8ne180100ERc, symObjAddr: 0x15D18, symBinAddr: 0x1000185B0, symSize: 0x14 }
  - { offset: 0x5275F, size: 0x8, addend: 0x0, symName: __ZNKSt3__112basic_stringIcNS_11char_traitsIcEENS_9allocatorIcEEE4dataB8ne180100Ev, symObjAddr: 0x15D2C, symBinAddr: 0x1000185C4, symSize: 0x28 }
  - { offset: 0x52785, size: 0x8, addend: 0x0, symName: __ZNKSt3__112basic_stringIcNS_11char_traitsIcEENS_9allocatorIcEEE13__get_pointerB8ne180100Ev, symObjAddr: 0x15D68, symBinAddr: 0x100018600, symSize: 0x54 }
  - { offset: 0x527AB, size: 0x8, addend: 0x0, symName: __ZNKSt3__112basic_stringIcNS_11char_traitsIcEENS_9allocatorIcEEE18__get_long_pointerB8ne180100Ev, symObjAddr: 0x15DBC, symBinAddr: 0x100018654, symSize: 0x28 }
  - { offset: 0x527D1, size: 0x8, addend: 0x0, symName: __ZNKSt3__112basic_stringIcNS_11char_traitsIcEENS_9allocatorIcEEE19__get_short_pointerB8ne180100Ev, symObjAddr: 0x15DE4, symBinAddr: 0x10001867C, symSize: 0x28 }
  - { offset: 0x527F7, size: 0x8, addend: 0x0, symName: __ZNSt3__114pointer_traitsIPKcE10pointer_toB8ne180100ERS1_, symObjAddr: 0x15E0C, symBinAddr: 0x1000186A4, symSize: 0x14 }
  - { offset: 0x5281A, size: 0x8, addend: 0x0, symName: __ZNSt3__112basic_stringIcNS_11char_traitsIcEENS_9allocatorIcEEEC2B8ne180100ILi0EEEPKc, symObjAddr: 0x15E20, symBinAddr: 0x1000186B8, symSize: 0x58 }
  - { offset: 0x52859, size: 0x8, addend: 0x0, symName: __ZNSt3__111char_traitsIcE6lengthB8ne180100EPKc, symObjAddr: 0x15E78, symBinAddr: 0x100018710, symSize: 0x34 }
  - { offset: 0x5287C, size: 0x8, addend: 0x0, symName: __ZNSt3__16vectorIdNS_9allocatorIdEEEC2ERKS3_, symObjAddr: 0x15ED0, symBinAddr: 0x100018768, symSize: 0x94 }
  - { offset: 0x528B7, size: 0x8, addend: 0x0, symName: __ZNSt3__116allocator_traitsINS_9allocatorIdEEE37select_on_container_copy_constructionB8ne180100IS2_vvEES2_RKS2_, symObjAddr: 0x15F64, symBinAddr: 0x1000187FC, symSize: 0x10 }
  - { offset: 0x528E6, size: 0x8, addend: 0x0, symName: __ZNSt3__16vectorIdNS_9allocatorIdEEE16__init_with_sizeB8ne180100IPdS5_EEvT_T0_m, symObjAddr: 0x15F74, symBinAddr: 0x10001880C, symSize: 0xB4 }
  - { offset: 0x5295A, size: 0x8, addend: 0x0, symName: __ZNSt3__16vectorIdNS_9allocatorIdEEE18__construct_at_endIPdS5_EEvT_T0_m, symObjAddr: 0x16028, symBinAddr: 0x1000188C0, symSize: 0x8C }
  - { offset: 0x529F1, size: 0x8, addend: 0x0, symName: __ZNSt3__14pairIPdS1_EC1B8ne180100IS1_S1_TnNS_9enable_ifIXclsr10_CheckArgsE17__enable_implicitIT_T0_EEEiE4typeELi0EEEOS5_OS6_, symObjAddr: 0x16264, symBinAddr: 0x100018AFC, symSize: 0x3C }
  - { offset: 0x52A4F, size: 0x8, addend: 0x0, symName: __ZNSt3__14pairIPdS1_EC2B8ne180100IS1_S1_TnNS_9enable_ifIXclsr10_CheckArgsE17__enable_implicitIT_T0_EEEiE4typeELi0EEEOS5_OS6_, symObjAddr: 0x162A0, symBinAddr: 0x100018B38, symSize: 0x34 }
  - { offset: 0x52AB8, size: 0x8, addend: 0x0, symName: __ZNKSt3__114__copy_trivialclB8ne180100IddTnNS_9enable_ifIXsr38__can_lower_copy_assignment_to_memmoveIT_T0_EE5valueEiE4typeELi0EEENS_4pairIPS3_PS4_EES8_S8_S9_, symObjAddr: 0x16450, symBinAddr: 0x100018CE8, symSize: 0x48 }
  - { offset: 0x52B20, size: 0x8, addend: 0x0, symName: __ZNSt3__14pairIPdS1_EC1B8ne180100IRS1_S1_TnNS_9enable_ifIXclsr10_CheckArgsE17__enable_implicitIT_T0_EEEiE4typeELi0EEEOS6_OS7_, symObjAddr: 0x165DC, symBinAddr: 0x100018E74, symSize: 0x3C }
  - { offset: 0x52B7E, size: 0x8, addend: 0x0, symName: __ZNSt3__14pairIPdS1_EC2B8ne180100IRS1_S1_TnNS_9enable_ifIXclsr10_CheckArgsE17__enable_implicitIT_T0_EEEiE4typeELi0EEEOS6_OS7_, symObjAddr: 0x16618, symBinAddr: 0x100018EB0, symSize: 0x34 }
  - { offset: 0x52BDC, size: 0x8, addend: 0x0, symName: __ZNSt3__118__unwrap_iter_implIPdLb1EE8__unwrapB8ne180100ES1_, symObjAddr: 0x1664C, symBinAddr: 0x100018EE4, symSize: 0x24 }
  - { offset: 0x52BFF, size: 0x8, addend: 0x0, symName: __ZNSt3__118__unwrap_iter_implIPdLb1EE8__rewrapB8ne180100ES1_S1_, symObjAddr: 0x16670, symBinAddr: 0x100018F08, symSize: 0x50 }
  - { offset: 0x52C30, size: 0x8, addend: 0x0, symName: __ZNSt3__16vectorIdNS_9allocatorIdEEED2B8ne180100Ev, symObjAddr: 0x166C0, symBinAddr: 0x100018F58, symSize: 0x40 }
  - { offset: 0x52C7D, size: 0x8, addend: 0x0, symName: __ZNKSt3__113basic_ostreamIcNS_11char_traitsIcEEE6sentrycvbB8ne180100Ev, symObjAddr: 0x168E8, symBinAddr: 0x100019180, symSize: 0x1C }
  - { offset: 0x52CA3, size: 0x8, addend: 0x0, symName: __ZNSt3__119ostreambuf_iteratorIcNS_11char_traitsIcEEEC1B8ne180100ERNS_13basic_ostreamIcS2_EE, symObjAddr: 0x16B18, symBinAddr: 0x1000193B0, symSize: 0x34 }
  - { offset: 0x52CDB, size: 0x8, addend: 0x0, symName: __ZNKSt3__18ios_base5flagsB8ne180100Ev, symObjAddr: 0x16B4C, symBinAddr: 0x1000193E4, symSize: 0x18 }
  - { offset: 0x52D03, size: 0x8, addend: 0x0, symName: __ZNKSt3__19basic_iosIcNS_11char_traitsIcEEE4fillB8ne180100Ev, symObjAddr: 0x16B64, symBinAddr: 0x1000193FC, symSize: 0x64 }
  - { offset: 0x52D2B, size: 0x8, addend: 0x0, symName: __ZNKSt3__119ostreambuf_iteratorIcNS_11char_traitsIcEEE6failedB8ne180100Ev, symObjAddr: 0x16BC8, symBinAddr: 0x100019460, symSize: 0x20 }
  - { offset: 0x52D51, size: 0x8, addend: 0x0, symName: __ZNSt3__19basic_iosIcNS_11char_traitsIcEEE8setstateB8ne180100Ej, symObjAddr: 0x16BE8, symBinAddr: 0x100019480, symSize: 0x2C }
  - { offset: 0x52D86, size: 0x8, addend: 0x0, symName: __ZNKSt3__18ios_base5widthB8ne180100Ev, symObjAddr: 0x16C14, symBinAddr: 0x1000194AC, symSize: 0x18 }
  - { offset: 0x52DAE, size: 0x8, addend: 0x0, symName: __ZNSt3__115basic_streambufIcNS_11char_traitsIcEEE5sputnB8ne180100EPKcl, symObjAddr: 0x16C2C, symBinAddr: 0x1000194C4, symSize: 0x3C }
  - { offset: 0x52DF0, size: 0x8, addend: 0x0, symName: __ZNSt3__112basic_stringIcNS_11char_traitsIcEENS_9allocatorIcEEEC1B8ne180100Emc, symObjAddr: 0x16C68, symBinAddr: 0x100019500, symSize: 0x3C }
  - { offset: 0x52E38, size: 0x8, addend: 0x0, symName: __ZNSt3__112basic_stringIcNS_11char_traitsIcEENS_9allocatorIcEEE4dataB8ne180100Ev, symObjAddr: 0x16CA4, symBinAddr: 0x10001953C, symSize: 0x28 }
  - { offset: 0x52E5E, size: 0x8, addend: 0x0, symName: __ZNSt3__18ios_base5widthB8ne180100El, symObjAddr: 0x16CCC, symBinAddr: 0x100019564, symSize: 0x2C }
  - { offset: 0x52EA4, size: 0x8, addend: 0x0, symName: __ZNSt3__112basic_stringIcNS_11char_traitsIcEENS_9allocatorIcEEEC2B8ne180100Emc, symObjAddr: 0x16CF8, symBinAddr: 0x100019590, symSize: 0x4C }
  - { offset: 0x52EEC, size: 0x8, addend: 0x0, symName: __ZNSt3__112basic_stringIcNS_11char_traitsIcEENS_9allocatorIcEEE13__get_pointerB8ne180100Ev, symObjAddr: 0x16D58, symBinAddr: 0x1000195F0, symSize: 0x54 }
  - { offset: 0x52F12, size: 0x8, addend: 0x0, symName: __ZNSt3__119ostreambuf_iteratorIcNS_11char_traitsIcEEEC2B8ne180100ERNS_13basic_ostreamIcS2_EE, symObjAddr: 0x16DAC, symBinAddr: 0x100019644, symSize: 0x54 }
  - { offset: 0x52F4A, size: 0x8, addend: 0x0, symName: __ZNKSt3__19basic_iosIcNS_11char_traitsIcEEE5rdbufB8ne180100Ev, symObjAddr: 0x16E00, symBinAddr: 0x100019698, symSize: 0x24 }
  - { offset: 0x52F72, size: 0x8, addend: 0x0, symName: __ZNKSt3__18ios_base5rdbufB8ne180100Ev, symObjAddr: 0x16E24, symBinAddr: 0x1000196BC, symSize: 0x18 }
  - { offset: 0x52F98, size: 0x8, addend: 0x0, symName: __ZNSt3__111char_traitsIcE11eq_int_typeB8ne180100Eii, symObjAddr: 0x16E3C, symBinAddr: 0x1000196D4, symSize: 0x24 }
  - { offset: 0x52FCB, size: 0x8, addend: 0x0, symName: __ZNSt3__111char_traitsIcE3eofB8ne180100Ev, symObjAddr: 0x16E60, symBinAddr: 0x1000196F8, symSize: 0x8 }
  - { offset: 0x52FDF, size: 0x8, addend: 0x0, symName: __ZNKSt3__19basic_iosIcNS_11char_traitsIcEEE5widenB8ne180100Ec, symObjAddr: 0x16E68, symBinAddr: 0x100019700, symSize: 0x84 }
  - { offset: 0x53044, size: 0x8, addend: 0x0, symName: __ZNKSt3__15ctypeIcE5widenB8ne180100Ec, symObjAddr: 0x16F18, symBinAddr: 0x1000197B0, symSize: 0x38 }
  - { offset: 0x53079, size: 0x8, addend: 0x0, symName: __ZNSt3__18ios_base8setstateB8ne180100Ej, symObjAddr: 0x16F50, symBinAddr: 0x1000197E8, symSize: 0x34 }
  - { offset: 0x530B0, size: 0x8, addend: 0x0, symName: __ZNSt3__16vectorI4EdgeNS_9allocatorIS1_EEEC2B8ne180100Ev, symObjAddr: 0x16F84, symBinAddr: 0x10001981C, symSize: 0x4C }
  - { offset: 0x530DA, size: 0x8, addend: 0x0, symName: __ZNSt3__117__compressed_pairIP4EdgeNS_9allocatorIS1_EEEC1B8ne180100IDnNS_18__default_init_tagEEEOT_OT0_, symObjAddr: 0x16FD0, symBinAddr: 0x100019868, symSize: 0x3C }
  - { offset: 0x53132, size: 0x8, addend: 0x0, symName: __ZNSt3__117__compressed_pairIP4EdgeNS_9allocatorIS1_EEEC2B8ne180100IDnNS_18__default_init_tagEEEOT_OT0_, symObjAddr: 0x1700C, symBinAddr: 0x1000198A4, symSize: 0x40 }
  - { offset: 0x5318A, size: 0x8, addend: 0x0, symName: __ZNSt3__122__compressed_pair_elemIP4EdgeLi0ELb0EEC2B8ne180100IDnvEEOT_, symObjAddr: 0x1704C, symBinAddr: 0x1000198E4, symSize: 0x1C }
  - { offset: 0x531CC, size: 0x8, addend: 0x0, symName: __ZNSt3__122__compressed_pair_elemINS_9allocatorI4EdgeEELi1ELb1EEC2B8ne180100ENS_18__default_init_tagE, symObjAddr: 0x17068, symBinAddr: 0x100019900, symSize: 0x2C }
  - { offset: 0x53200, size: 0x8, addend: 0x0, symName: __ZNSt3__19allocatorI4EdgeEC2B8ne180100Ev, symObjAddr: 0x17094, symBinAddr: 0x10001992C, symSize: 0x2C }
  - { offset: 0x5322A, size: 0x8, addend: 0x0, symName: __ZNSt3__116__non_trivial_ifILb1ENS_9allocatorI4EdgeEEEC2B8ne180100Ev, symObjAddr: 0x170C0, symBinAddr: 0x100019958, symSize: 0x14 }
  - { offset: 0x53254, size: 0x8, addend: 0x0, symName: __ZNSt3__16vectorI4EdgeNS_9allocatorIS1_EEED2B8ne180100Ev, symObjAddr: 0x170D4, symBinAddr: 0x10001996C, symSize: 0x44 }
  - { offset: 0x5327E, size: 0x8, addend: 0x0, symName: __ZNSt3__16vectorI4EdgeNS_9allocatorIS1_EEE16__destroy_vectorC1B8ne180100ERS4_, symObjAddr: 0x17118, symBinAddr: 0x1000199B0, symSize: 0x34 }
  - { offset: 0x532B7, size: 0x8, addend: 0x0, symName: __ZNSt3__16vectorI4EdgeNS_9allocatorIS1_EEE16__destroy_vectorclB8ne180100Ev, symObjAddr: 0x1714C, symBinAddr: 0x1000199E4, symSize: 0x88 }
  - { offset: 0x532DD, size: 0x8, addend: 0x0, symName: __ZNSt3__16vectorI4EdgeNS_9allocatorIS1_EEE16__destroy_vectorC2B8ne180100ERS4_, symObjAddr: 0x171D4, symBinAddr: 0x100019A6C, symSize: 0x20 }
  - { offset: 0x53316, size: 0x8, addend: 0x0, symName: __ZNSt3__16vectorI4EdgeNS_9allocatorIS1_EEE7__clearB8ne180100Ev, symObjAddr: 0x171F4, symBinAddr: 0x100019A8C, symSize: 0x28 }
  - { offset: 0x5333C, size: 0x8, addend: 0x0, symName: __ZNKSt3__16vectorI4EdgeNS_9allocatorIS1_EEE17__annotate_deleteB8ne180100Ev, symObjAddr: 0x1721C, symBinAddr: 0x100019AB4, symSize: 0x10 }
  - { offset: 0x53362, size: 0x8, addend: 0x0, symName: __ZNSt3__116allocator_traitsINS_9allocatorI4EdgeEEE10deallocateB8ne180100ERS3_PS2_m, symObjAddr: 0x1722C, symBinAddr: 0x100019AC4, symSize: 0x34 }
  - { offset: 0x533A4, size: 0x8, addend: 0x0, symName: __ZNSt3__16vectorI4EdgeNS_9allocatorIS1_EEE7__allocB8ne180100Ev, symObjAddr: 0x17260, symBinAddr: 0x100019AF8, symSize: 0x28 }
  - { offset: 0x533CA, size: 0x8, addend: 0x0, symName: __ZNKSt3__16vectorI4EdgeNS_9allocatorIS1_EEE8capacityB8ne180100Ev, symObjAddr: 0x17288, symBinAddr: 0x100019B20, symSize: 0x40 }
  - { offset: 0x533F0, size: 0x8, addend: 0x0, symName: __ZNSt3__16vectorI4EdgeNS_9allocatorIS1_EEE22__base_destruct_at_endB8ne180100EPS1_, symObjAddr: 0x172C8, symBinAddr: 0x100019B60, symSize: 0x88 }
  - { offset: 0x53434, size: 0x8, addend: 0x0, symName: __ZNSt3__116allocator_traitsINS_9allocatorI4EdgeEEE7destroyB8ne180100IS2_vEEvRS3_PT_, symObjAddr: 0x17350, symBinAddr: 0x100019BE8, symSize: 0x2C }
  - { offset: 0x53471, size: 0x8, addend: 0x0, symName: __ZNSt3__19allocatorI4EdgeE7destroyB8ne180100EPS1_, symObjAddr: 0x1737C, symBinAddr: 0x100019C14, symSize: 0x28 }
  - { offset: 0x534A5, size: 0x8, addend: 0x0, symName: __ZNSt3__19allocatorI4EdgeE10deallocateB8ne180100EPS1_m, symObjAddr: 0x173A4, symBinAddr: 0x100019C3C, symSize: 0x44 }
  - { offset: 0x534E7, size: 0x8, addend: 0x0, symName: __ZNSt3__117__compressed_pairIP4EdgeNS_9allocatorIS1_EEE6secondB8ne180100Ev, symObjAddr: 0x173E8, symBinAddr: 0x100019C80, symSize: 0x24 }
  - { offset: 0x5350D, size: 0x8, addend: 0x0, symName: __ZNSt3__122__compressed_pair_elemINS_9allocatorI4EdgeEELi1ELb1EE5__getB8ne180100Ev, symObjAddr: 0x1740C, symBinAddr: 0x100019CA4, symSize: 0x14 }
  - { offset: 0x53533, size: 0x8, addend: 0x0, symName: __ZNKSt3__16vectorI4EdgeNS_9allocatorIS1_EEE9__end_capB8ne180100Ev, symObjAddr: 0x17420, symBinAddr: 0x100019CB8, symSize: 0x28 }
  - { offset: 0x53559, size: 0x8, addend: 0x0, symName: __ZNKSt3__117__compressed_pairIP4EdgeNS_9allocatorIS1_EEE5firstB8ne180100Ev, symObjAddr: 0x17448, symBinAddr: 0x100019CE0, symSize: 0x24 }
  - { offset: 0x5357F, size: 0x8, addend: 0x0, symName: __ZNKSt3__122__compressed_pair_elemIP4EdgeLi0ELb0EE5__getB8ne180100Ev, symObjAddr: 0x1746C, symBinAddr: 0x100019D04, symSize: 0x14 }
  - { offset: 0x535A5, size: 0x8, addend: 0x0, symName: __ZNSt3__16vectorINS0_I4EdgeNS_9allocatorIS1_EEEENS2_IS4_EEEC2EmRKS4_, symObjAddr: 0x17480, symBinAddr: 0x100019D18, symSize: 0xD8 }
  - { offset: 0x53604, size: 0x8, addend: 0x0, symName: __ZNSt3__16vectorINS0_I4EdgeNS_9allocatorIS1_EEEENS2_IS4_EEE16__destroy_vectorC1B8ne180100ERS6_, symObjAddr: 0x17598, symBinAddr: 0x100019E30, symSize: 0x34 }
  - { offset: 0x5363D, size: 0x8, addend: 0x0, symName: __ZNSt3__16vectorINS0_I4EdgeNS_9allocatorIS1_EEEENS2_IS4_EEE11__vallocateB8ne180100Em, symObjAddr: 0x175CC, symBinAddr: 0x100019E64, symSize: 0xB0 }
  - { offset: 0x53681, size: 0x8, addend: 0x0, symName: __ZNSt3__16vectorINS0_I4EdgeNS_9allocatorIS1_EEEENS2_IS4_EEE18__construct_at_endEmRKS4_, symObjAddr: 0x1767C, symBinAddr: 0x100019F14, symSize: 0xCC }
  - { offset: 0x53703, size: 0x8, addend: 0x0, symName: __ZNSt3__128__exception_guard_exceptionsINS_6vectorINS1_I4EdgeNS_9allocatorIS2_EEEENS3_IS5_EEE16__destroy_vectorEE10__completeB8ne180100Ev, symObjAddr: 0x17748, symBinAddr: 0x100019FE0, symSize: 0x1C }
  - { offset: 0x53729, size: 0x8, addend: 0x0, symName: __ZNSt3__128__exception_guard_exceptionsINS_6vectorINS1_I4EdgeNS_9allocatorIS2_EEEENS3_IS5_EEE16__destroy_vectorEED1B8ne180100Ev, symObjAddr: 0x17764, symBinAddr: 0x100019FFC, symSize: 0x2C }
  - { offset: 0x53753, size: 0x8, addend: 0x0, symName: __ZNSt3__128__exception_guard_exceptionsINS_6vectorINS1_I4EdgeNS_9allocatorIS2_EEEENS3_IS5_EEE16__destroy_vectorEEC1B8ne180100ES8_, symObjAddr: 0x17790, symBinAddr: 0x10001A028, symSize: 0x34 }
  - { offset: 0x5378B, size: 0x8, addend: 0x0, symName: __ZNSt3__128__exception_guard_exceptionsINS_6vectorINS1_I4EdgeNS_9allocatorIS2_EEEENS3_IS5_EEE16__destroy_vectorEEC2B8ne180100ES8_, symObjAddr: 0x177C4, symBinAddr: 0x10001A05C, symSize: 0x24 }
  - { offset: 0x537C3, size: 0x8, addend: 0x0, symName: __ZNSt3__16vectorINS0_I4EdgeNS_9allocatorIS1_EEEENS2_IS4_EEE16__destroy_vectorC2B8ne180100ERS6_, symObjAddr: 0x177E8, symBinAddr: 0x10001A080, symSize: 0x20 }
  - { offset: 0x537FC, size: 0x8, addend: 0x0, symName: __ZNKSt3__16vectorINS0_I4EdgeNS_9allocatorIS1_EEEENS2_IS4_EEE8max_sizeEv, symObjAddr: 0x17808, symBinAddr: 0x10001A0A0, symSize: 0x60 }
  - { offset: 0x53824, size: 0x8, addend: 0x0, symName: __ZNKSt3__16vectorINS0_I4EdgeNS_9allocatorIS1_EEEENS2_IS4_EEE20__throw_length_errorB8ne180100Ev, symObjAddr: 0x17868, symBinAddr: 0x10001A100, symSize: 0x1C }
  - { offset: 0x5384A, size: 0x8, addend: 0x0, symName: __ZNSt3__16vectorINS0_I4EdgeNS_9allocatorIS1_EEEENS2_IS4_EEE7__allocB8ne180100Ev, symObjAddr: 0x178C4, symBinAddr: 0x10001A15C, symSize: 0x28 }
  - { offset: 0x53870, size: 0x8, addend: 0x0, symName: __ZNSt3__16vectorINS0_I4EdgeNS_9allocatorIS1_EEEENS2_IS4_EEE9__end_capB8ne180100Ev, symObjAddr: 0x178EC, symBinAddr: 0x10001A184, symSize: 0x28 }
  - { offset: 0x53896, size: 0x8, addend: 0x0, symName: __ZNKSt3__16vectorINS0_I4EdgeNS_9allocatorIS1_EEEENS2_IS4_EEE14__annotate_newB8ne180100Em, symObjAddr: 0x17914, symBinAddr: 0x10001A1AC, symSize: 0x14 }
  - { offset: 0x538D6, size: 0x8, addend: 0x0, symName: __ZNSt3__116allocator_traitsINS_9allocatorINS_6vectorI4EdgeNS1_IS3_EEEEEEE8max_sizeB8ne180100IS6_vEEmRKS6_, symObjAddr: 0x17928, symBinAddr: 0x10001A1C0, symSize: 0x24 }
  - { offset: 0x53904, size: 0x8, addend: 0x0, symName: __ZNKSt3__16vectorINS0_I4EdgeNS_9allocatorIS1_EEEENS2_IS4_EEE7__allocB8ne180100Ev, symObjAddr: 0x1794C, symBinAddr: 0x10001A1E4, symSize: 0x28 }
  - { offset: 0x5392A, size: 0x8, addend: 0x0, symName: __ZNKSt3__19allocatorINS_6vectorI4EdgeNS0_IS2_EEEEE8max_sizeB8ne180100Ev, symObjAddr: 0x17974, symBinAddr: 0x10001A20C, symSize: 0x18 }
  - { offset: 0x53950, size: 0x8, addend: 0x0, symName: __ZNKSt3__117__compressed_pairIPNS_6vectorI4EdgeNS_9allocatorIS2_EEEENS3_IS5_EEE6secondB8ne180100Ev, symObjAddr: 0x1798C, symBinAddr: 0x10001A224, symSize: 0x24 }
  - { offset: 0x53976, size: 0x8, addend: 0x0, symName: __ZNKSt3__122__compressed_pair_elemINS_9allocatorINS_6vectorI4EdgeNS1_IS3_EEEEEELi1ELb1EE5__getB8ne180100Ev, symObjAddr: 0x179B0, symBinAddr: 0x10001A248, symSize: 0x14 }
  - { offset: 0x5399C, size: 0x8, addend: 0x0, symName: __ZNSt3__19allocatorINS_6vectorI4EdgeNS0_IS2_EEEEE8allocateB8ne180100Em, symObjAddr: 0x179C4, symBinAddr: 0x10001A25C, symSize: 0x58 }
  - { offset: 0x539D0, size: 0x8, addend: 0x0, symName: __ZNSt3__117__compressed_pairIPNS_6vectorI4EdgeNS_9allocatorIS2_EEEENS3_IS5_EEE6secondB8ne180100Ev, symObjAddr: 0x17A1C, symBinAddr: 0x10001A2B4, symSize: 0x24 }
  - { offset: 0x539F6, size: 0x8, addend: 0x0, symName: __ZNSt3__122__compressed_pair_elemINS_9allocatorINS_6vectorI4EdgeNS1_IS3_EEEEEELi1ELb1EE5__getB8ne180100Ev, symObjAddr: 0x17A40, symBinAddr: 0x10001A2D8, symSize: 0x14 }
  - { offset: 0x53A1C, size: 0x8, addend: 0x0, symName: __ZNSt3__117__compressed_pairIPNS_6vectorI4EdgeNS_9allocatorIS2_EEEENS3_IS5_EEE5firstB8ne180100Ev, symObjAddr: 0x17A54, symBinAddr: 0x10001A2EC, symSize: 0x24 }
  - { offset: 0x53A42, size: 0x8, addend: 0x0, symName: __ZNSt3__122__compressed_pair_elemIPNS_6vectorI4EdgeNS_9allocatorIS2_EEEELi0ELb0EE5__getB8ne180100Ev, symObjAddr: 0x17A78, symBinAddr: 0x10001A310, symSize: 0x14 }
  - { offset: 0x53A84, size: 0x8, addend: 0x0, symName: __ZNSt3__16vectorINS0_I4EdgeNS_9allocatorIS1_EEEENS2_IS4_EEE21_ConstructTransactionC1B8ne180100ERS6_m, symObjAddr: 0x17A8C, symBinAddr: 0x10001A324, symSize: 0x3C }
  - { offset: 0x53ACC, size: 0x8, addend: 0x0, symName: __ZNSt3__116allocator_traitsINS_9allocatorINS_6vectorI4EdgeNS1_IS3_EEEEEEE9constructB8ne180100IS5_JRKS5_EvEEvRS6_PT_DpOT0_, symObjAddr: 0x17AC8, symBinAddr: 0x10001A360, symSize: 0x34 }
  - { offset: 0x53B23, size: 0x8, addend: 0x0, symName: __ZNSt3__16vectorINS0_I4EdgeNS_9allocatorIS1_EEEENS2_IS4_EEE21_ConstructTransactionD1B8ne180100Ev, symObjAddr: 0x17AFC, symBinAddr: 0x10001A394, symSize: 0x2C }
  - { offset: 0x53B4D, size: 0x8, addend: 0x0, symName: __ZNSt3__16vectorINS0_I4EdgeNS_9allocatorIS1_EEEENS2_IS4_EEE21_ConstructTransactionC2B8ne180100ERS6_m, symObjAddr: 0x17B28, symBinAddr: 0x10001A3C0, symSize: 0x4C }
  - { offset: 0x53B95, size: 0x8, addend: 0x0, symName: __ZNSt3__19allocatorINS_6vectorI4EdgeNS0_IS2_EEEEE9constructB8ne180100IS4_JRKS4_EEEvPT_DpOT0_, symObjAddr: 0x17B74, symBinAddr: 0x10001A40C, symSize: 0x30 }
  - { offset: 0x53BEB, size: 0x8, addend: 0x0, symName: __ZNSt3__16vectorI4EdgeNS_9allocatorIS1_EEEC1ERKS4_, symObjAddr: 0x17BA4, symBinAddr: 0x10001A43C, symSize: 0x34 }
  - { offset: 0x53C26, size: 0x8, addend: 0x0, symName: __ZNSt3__16vectorI4EdgeNS_9allocatorIS1_EEEC2ERKS4_, symObjAddr: 0x17BD8, symBinAddr: 0x10001A470, symSize: 0x94 }
  - { offset: 0x53C6C, size: 0x8, addend: 0x0, symName: __ZNSt3__116allocator_traitsINS_9allocatorI4EdgeEEE37select_on_container_copy_constructionB8ne180100IS3_vvEES3_RKS3_, symObjAddr: 0x17C6C, symBinAddr: 0x10001A504, symSize: 0x10 }
  - { offset: 0x53C9B, size: 0x8, addend: 0x0, symName: __ZNKSt3__16vectorI4EdgeNS_9allocatorIS1_EEE7__allocB8ne180100Ev, symObjAddr: 0x17C7C, symBinAddr: 0x10001A514, symSize: 0x28 }
  - { offset: 0x53CC7, size: 0x8, addend: 0x0, symName: __ZNSt3__117__compressed_pairIP4EdgeNS_9allocatorIS1_EEEC1B8ne180100IDnS4_EEOT_OT0_, symObjAddr: 0x17CA4, symBinAddr: 0x10001A53C, symSize: 0x3C }
  - { offset: 0x53D1F, size: 0x8, addend: 0x0, symName: __ZNSt3__16vectorI4EdgeNS_9allocatorIS1_EEE16__init_with_sizeB8ne180100IPS1_S6_EEvT_T0_m, symObjAddr: 0x17CE0, symBinAddr: 0x10001A578, symSize: 0xB4 }
  - { offset: 0x53D93, size: 0x8, addend: 0x0, symName: __ZNKSt3__117__compressed_pairIP4EdgeNS_9allocatorIS1_EEE6secondB8ne180100Ev, symObjAddr: 0x17D94, symBinAddr: 0x10001A62C, symSize: 0x24 }
  - { offset: 0x53DB9, size: 0x8, addend: 0x0, symName: __ZNKSt3__122__compressed_pair_elemINS_9allocatorI4EdgeEELi1ELb1EE5__getB8ne180100Ev, symObjAddr: 0x17DB8, symBinAddr: 0x10001A650, symSize: 0x14 }
  - { offset: 0x53DDF, size: 0x8, addend: 0x0, symName: __ZNSt3__117__compressed_pairIP4EdgeNS_9allocatorIS1_EEEC2B8ne180100IDnS4_EEOT_OT0_, symObjAddr: 0x17DCC, symBinAddr: 0x10001A664, symSize: 0x44 }
  - { offset: 0x53E37, size: 0x8, addend: 0x0, symName: __ZNSt3__122__compressed_pair_elemINS_9allocatorI4EdgeEELi1ELb1EEC2B8ne180100IS3_vEEOT_, symObjAddr: 0x17E10, symBinAddr: 0x10001A6A8, symSize: 0x18 }
  - { offset: 0x53E79, size: 0x8, addend: 0x0, symName: __ZNSt3__16vectorI4EdgeNS_9allocatorIS1_EEE11__vallocateB8ne180100Em, symObjAddr: 0x17E68, symBinAddr: 0x10001A700, symSize: 0xB0 }
  - { offset: 0x53EBD, size: 0x8, addend: 0x0, symName: __ZNSt3__16vectorI4EdgeNS_9allocatorIS1_EEE18__construct_at_endIPS1_S6_EEvT_T0_m, symObjAddr: 0x17F18, symBinAddr: 0x10001A7B0, symSize: 0x8C }
  - { offset: 0x53F31, size: 0x8, addend: 0x0, symName: __ZNSt3__128__exception_guard_exceptionsINS_6vectorI4EdgeNS_9allocatorIS2_EEE16__destroy_vectorEE10__completeB8ne180100Ev, symObjAddr: 0x17FA4, symBinAddr: 0x10001A83C, symSize: 0x1C }
  - { offset: 0x53F57, size: 0x8, addend: 0x0, symName: __ZNSt3__128__exception_guard_exceptionsINS_6vectorI4EdgeNS_9allocatorIS2_EEE16__destroy_vectorEED1B8ne180100Ev, symObjAddr: 0x17FC0, symBinAddr: 0x10001A858, symSize: 0x2C }
  - { offset: 0x53F81, size: 0x8, addend: 0x0, symName: __ZNSt3__128__exception_guard_exceptionsINS_6vectorI4EdgeNS_9allocatorIS2_EEE16__destroy_vectorEEC1B8ne180100ES6_, symObjAddr: 0x17FEC, symBinAddr: 0x10001A884, symSize: 0x34 }
  - { offset: 0x53FB9, size: 0x8, addend: 0x0, symName: __ZNSt3__128__exception_guard_exceptionsINS_6vectorI4EdgeNS_9allocatorIS2_EEE16__destroy_vectorEEC2B8ne180100ES6_, symObjAddr: 0x18020, symBinAddr: 0x10001A8B8, symSize: 0x24 }
  - { offset: 0x53FF1, size: 0x8, addend: 0x0, symName: __ZNKSt3__16vectorI4EdgeNS_9allocatorIS1_EEE8max_sizeEv, symObjAddr: 0x18044, symBinAddr: 0x10001A8DC, symSize: 0x60 }
  - { offset: 0x54019, size: 0x8, addend: 0x0, symName: __ZNKSt3__16vectorI4EdgeNS_9allocatorIS1_EEE20__throw_length_errorB8ne180100Ev, symObjAddr: 0x180A4, symBinAddr: 0x10001A93C, symSize: 0x1C }
  - { offset: 0x5403F, size: 0x8, addend: 0x0, symName: __ZNSt3__16vectorI4EdgeNS_9allocatorIS1_EEE9__end_capB8ne180100Ev, symObjAddr: 0x18100, symBinAddr: 0x10001A998, symSize: 0x28 }
  - { offset: 0x54065, size: 0x8, addend: 0x0, symName: __ZNKSt3__16vectorI4EdgeNS_9allocatorIS1_EEE14__annotate_newB8ne180100Em, symObjAddr: 0x18128, symBinAddr: 0x10001A9C0, symSize: 0x14 }
  - { offset: 0x5409A, size: 0x8, addend: 0x0, symName: __ZNSt3__116allocator_traitsINS_9allocatorI4EdgeEEE8max_sizeB8ne180100IS3_vEEmRKS3_, symObjAddr: 0x1813C, symBinAddr: 0x10001A9D4, symSize: 0x24 }
  - { offset: 0x540C8, size: 0x8, addend: 0x0, symName: __ZNKSt3__19allocatorI4EdgeE8max_sizeB8ne180100Ev, symObjAddr: 0x18160, symBinAddr: 0x10001A9F8, symSize: 0x18 }
  - { offset: 0x540EE, size: 0x8, addend: 0x0, symName: __ZNSt3__19allocatorI4EdgeE8allocateB8ne180100Em, symObjAddr: 0x18178, symBinAddr: 0x10001AA10, symSize: 0x58 }
  - { offset: 0x54122, size: 0x8, addend: 0x0, symName: __ZNSt3__117__compressed_pairIP4EdgeNS_9allocatorIS1_EEE5firstB8ne180100Ev, symObjAddr: 0x181D0, symBinAddr: 0x10001AA68, symSize: 0x24 }
  - { offset: 0x54148, size: 0x8, addend: 0x0, symName: __ZNSt3__122__compressed_pair_elemIP4EdgeLi0ELb0EE5__getB8ne180100Ev, symObjAddr: 0x181F4, symBinAddr: 0x10001AA8C, symSize: 0x14 }
  - { offset: 0x5418A, size: 0x8, addend: 0x0, symName: __ZNSt3__16vectorI4EdgeNS_9allocatorIS1_EEE21_ConstructTransactionC1B8ne180100ERS4_m, symObjAddr: 0x18208, symBinAddr: 0x10001AAA0, symSize: 0x3C }
  - { offset: 0x541D2, size: 0x8, addend: 0x0, symName: __ZNSt3__16vectorI4EdgeNS_9allocatorIS1_EEE21_ConstructTransactionD1B8ne180100Ev, symObjAddr: 0x182C4, symBinAddr: 0x10001AB5C, symSize: 0x2C }
  - { offset: 0x541FC, size: 0x8, addend: 0x0, symName: __ZNSt3__16vectorI4EdgeNS_9allocatorIS1_EEE21_ConstructTransactionC2B8ne180100ERS4_m, symObjAddr: 0x182F0, symBinAddr: 0x10001AB88, symSize: 0x4C }
  - { offset: 0x54267, size: 0x8, addend: 0x0, symName: __ZNSt3__14pairIP4EdgeS2_EC1B8ne180100IS2_S2_TnNS_9enable_ifIXclsr10_CheckArgsE17__enable_implicitIT_T0_EEEiE4typeELi0EEEOS6_OS7_, symObjAddr: 0x18524, symBinAddr: 0x10001ADBC, symSize: 0x3C }
  - { offset: 0x542C5, size: 0x8, addend: 0x0, symName: __ZNSt3__14pairIP4EdgeS2_EC2B8ne180100IS2_S2_TnNS_9enable_ifIXclsr10_CheckArgsE17__enable_implicitIT_T0_EEEiE4typeELi0EEEOS6_OS7_, symObjAddr: 0x18560, symBinAddr: 0x10001ADF8, symSize: 0x34 }
  - { offset: 0x54323, size: 0x8, addend: 0x0, symName: __ZNSt3__129_AllocatorDestroyRangeReverseINS_9allocatorI4EdgeEEPS2_EC1B8ne180100ERS3_RS4_S7_, symObjAddr: 0x185E0, symBinAddr: 0x10001AE78, symSize: 0x44 }
  - { offset: 0x5437A, size: 0x8, addend: 0x0, symName: __ZNSt3__116allocator_traitsINS_9allocatorI4EdgeEEE9constructB8ne180100IS2_JRS2_EvEEvRS3_PT_DpOT0_, symObjAddr: 0x18624, symBinAddr: 0x10001AEBC, symSize: 0x34 }
  - { offset: 0x543D1, size: 0x8, addend: 0x0, symName: __ZNSt3__128__exception_guard_exceptionsINS_29_AllocatorDestroyRangeReverseINS_9allocatorI4EdgeEEPS3_EEE10__completeB8ne180100Ev, symObjAddr: 0x18658, symBinAddr: 0x10001AEF0, symSize: 0x1C }
  - { offset: 0x543F7, size: 0x8, addend: 0x0, symName: __ZNSt3__128__exception_guard_exceptionsINS_29_AllocatorDestroyRangeReverseINS_9allocatorI4EdgeEEPS3_EEED1B8ne180100Ev, symObjAddr: 0x18674, symBinAddr: 0x10001AF0C, symSize: 0x2C }
  - { offset: 0x54421, size: 0x8, addend: 0x0, symName: __ZNSt3__128__exception_guard_exceptionsINS_29_AllocatorDestroyRangeReverseINS_9allocatorI4EdgeEEPS3_EEEC1B8ne180100ES6_, symObjAddr: 0x186A0, symBinAddr: 0x10001AF38, symSize: 0x34 }
  - { offset: 0x5445A, size: 0x8, addend: 0x0, symName: __ZNSt3__128__exception_guard_exceptionsINS_29_AllocatorDestroyRangeReverseINS_9allocatorI4EdgeEEPS3_EEEC2B8ne180100ES6_, symObjAddr: 0x186D4, symBinAddr: 0x10001AF6C, symSize: 0x30 }
  - { offset: 0x54493, size: 0x8, addend: 0x0, symName: __ZNSt3__129_AllocatorDestroyRangeReverseINS_9allocatorI4EdgeEEPS2_EC2B8ne180100ERS3_RS4_S7_, symObjAddr: 0x18704, symBinAddr: 0x10001AF9C, symSize: 0x38 }
  - { offset: 0x544EA, size: 0x8, addend: 0x0, symName: __ZNSt3__19allocatorI4EdgeE9constructB8ne180100IS1_JRS1_EEEvPT_DpOT0_, symObjAddr: 0x1873C, symBinAddr: 0x10001AFD4, symSize: 0x30 }
  - { offset: 0x54540, size: 0x8, addend: 0x0, symName: __ZNSt3__128__exception_guard_exceptionsINS_29_AllocatorDestroyRangeReverseINS_9allocatorI4EdgeEEPS3_EEED2B8ne180100Ev, symObjAddr: 0x1876C, symBinAddr: 0x10001B004, symSize: 0x50 }
  - { offset: 0x5456A, size: 0x8, addend: 0x0, symName: __ZNKSt3__129_AllocatorDestroyRangeReverseINS_9allocatorI4EdgeEEPS2_EclB8ne180100Ev, symObjAddr: 0x187BC, symBinAddr: 0x10001B054, symSize: 0x68 }
  - { offset: 0x54590, size: 0x8, addend: 0x0, symName: __ZNSt3__116reverse_iteratorIP4EdgeEC1B8ne180100ES2_, symObjAddr: 0x18894, symBinAddr: 0x10001B12C, symSize: 0x34 }
  - { offset: 0x545C8, size: 0x8, addend: 0x0, symName: __ZNSt3__116reverse_iteratorIP4EdgeEppB8ne180100Ev, symObjAddr: 0x18930, symBinAddr: 0x10001B1C8, symSize: 0x20 }
  - { offset: 0x545EE, size: 0x8, addend: 0x0, symName: __ZNKSt3__116reverse_iteratorIP4EdgeE4baseB8ne180100Ev, symObjAddr: 0x18950, symBinAddr: 0x10001B1E8, symSize: 0x18 }
  - { offset: 0x5461A, size: 0x8, addend: 0x0, symName: __ZNSt3__119__to_address_helperINS_16reverse_iteratorIP4EdgeEEvE6__callB8ne180100ERKS4_, symObjAddr: 0x18968, symBinAddr: 0x10001B200, symSize: 0x38 }
  - { offset: 0x5463D, size: 0x8, addend: 0x0, symName: __ZNKSt3__116reverse_iteratorIP4EdgeEptB8ne180100Ev, symObjAddr: 0x189A0, symBinAddr: 0x10001B238, symSize: 0x24 }
  - { offset: 0x54663, size: 0x8, addend: 0x0, symName: __ZNKSt3__116reverse_iteratorIP4EdgeEdeB8ne180100Ev, symObjAddr: 0x189C4, symBinAddr: 0x10001B25C, symSize: 0x28 }
  - { offset: 0x54697, size: 0x8, addend: 0x0, symName: __ZNSt3__116reverse_iteratorIP4EdgeEC2B8ne180100ES2_, symObjAddr: 0x189EC, symBinAddr: 0x10001B284, symSize: 0x28 }
  - { offset: 0x546CF, size: 0x8, addend: 0x0, symName: __ZNSt3__118__unwrap_iter_implIP4EdgeLb1EE8__unwrapB8ne180100ES2_, symObjAddr: 0x18A14, symBinAddr: 0x10001B2AC, symSize: 0x24 }
  - { offset: 0x546F2, size: 0x8, addend: 0x0, symName: __ZNSt3__118__unwrap_iter_implIP4EdgeLb1EE8__rewrapB8ne180100ES2_S2_, symObjAddr: 0x18A38, symBinAddr: 0x10001B2D0, symSize: 0x58 }
  - { offset: 0x54723, size: 0x8, addend: 0x0, symName: __ZNSt3__16vectorI4EdgeNS_9allocatorIS1_EEE21_ConstructTransactionD2B8ne180100Ev, symObjAddr: 0x18A90, symBinAddr: 0x10001B328, symSize: 0x20 }
  - { offset: 0x5474D, size: 0x8, addend: 0x0, symName: __ZNSt3__128__exception_guard_exceptionsINS_6vectorI4EdgeNS_9allocatorIS2_EEE16__destroy_vectorEED2B8ne180100Ev, symObjAddr: 0x18AB0, symBinAddr: 0x10001B348, symSize: 0x48 }
  - { offset: 0x54777, size: 0x8, addend: 0x0, symName: __ZNSt3__16vectorINS0_I4EdgeNS_9allocatorIS1_EEEENS2_IS4_EEE21_ConstructTransactionD2B8ne180100Ev, symObjAddr: 0x18AF8, symBinAddr: 0x10001B390, symSize: 0x20 }
  - { offset: 0x547A1, size: 0x8, addend: 0x0, symName: __ZNSt3__128__exception_guard_exceptionsINS_6vectorINS1_I4EdgeNS_9allocatorIS2_EEEENS3_IS5_EEE16__destroy_vectorEED2B8ne180100Ev, symObjAddr: 0x18B18, symBinAddr: 0x10001B3B0, symSize: 0x50 }
  - { offset: 0x547CB, size: 0x8, addend: 0x0, symName: __ZNSt3__16vectorINS0_I4EdgeNS_9allocatorIS1_EEEENS2_IS4_EEE16__destroy_vectorclB8ne180100Ev, symObjAddr: 0x18B68, symBinAddr: 0x10001B400, symSize: 0x88 }
  - { offset: 0x547F1, size: 0x8, addend: 0x0, symName: __ZNSt3__16vectorINS0_I4EdgeNS_9allocatorIS1_EEEENS2_IS4_EEE7__clearB8ne180100Ev, symObjAddr: 0x18BF0, symBinAddr: 0x10001B488, symSize: 0x28 }
  - { offset: 0x54817, size: 0x8, addend: 0x0, symName: __ZNKSt3__16vectorINS0_I4EdgeNS_9allocatorIS1_EEEENS2_IS4_EEE17__annotate_deleteB8ne180100Ev, symObjAddr: 0x18C18, symBinAddr: 0x10001B4B0, symSize: 0x10 }
  - { offset: 0x5483D, size: 0x8, addend: 0x0, symName: __ZNSt3__116allocator_traitsINS_9allocatorINS_6vectorI4EdgeNS1_IS3_EEEEEEE10deallocateB8ne180100ERS6_PS5_m, symObjAddr: 0x18C28, symBinAddr: 0x10001B4C0, symSize: 0x34 }
  - { offset: 0x5487F, size: 0x8, addend: 0x0, symName: __ZNKSt3__16vectorINS0_I4EdgeNS_9allocatorIS1_EEEENS2_IS4_EEE8capacityB8ne180100Ev, symObjAddr: 0x18C5C, symBinAddr: 0x10001B4F4, symSize: 0x40 }
  - { offset: 0x548A5, size: 0x8, addend: 0x0, symName: __ZNSt3__16vectorINS0_I4EdgeNS_9allocatorIS1_EEEENS2_IS4_EEE22__base_destruct_at_endB8ne180100EPS4_, symObjAddr: 0x18C9C, symBinAddr: 0x10001B534, symSize: 0x88 }
  - { offset: 0x548E9, size: 0x8, addend: 0x0, symName: __ZNSt3__116allocator_traitsINS_9allocatorINS_6vectorI4EdgeNS1_IS3_EEEEEEE7destroyB8ne180100IS5_vEEvRS6_PT_, symObjAddr: 0x18D24, symBinAddr: 0x10001B5BC, symSize: 0x2C }
  - { offset: 0x54926, size: 0x8, addend: 0x0, symName: __ZNSt3__19allocatorINS_6vectorI4EdgeNS0_IS2_EEEEE7destroyB8ne180100EPS4_, symObjAddr: 0x18D50, symBinAddr: 0x10001B5E8, symSize: 0x28 }
  - { offset: 0x5495A, size: 0x8, addend: 0x0, symName: __ZNSt3__19allocatorINS_6vectorI4EdgeNS0_IS2_EEEEE10deallocateB8ne180100EPS4_m, symObjAddr: 0x18D78, symBinAddr: 0x10001B610, symSize: 0x44 }
  - { offset: 0x5499C, size: 0x8, addend: 0x0, symName: __ZNKSt3__16vectorINS0_I4EdgeNS_9allocatorIS1_EEEENS2_IS4_EEE9__end_capB8ne180100Ev, symObjAddr: 0x18DBC, symBinAddr: 0x10001B654, symSize: 0x28 }
  - { offset: 0x549C2, size: 0x8, addend: 0x0, symName: __ZNKSt3__117__compressed_pairIPNS_6vectorI4EdgeNS_9allocatorIS2_EEEENS3_IS5_EEE5firstB8ne180100Ev, symObjAddr: 0x18DE4, symBinAddr: 0x10001B67C, symSize: 0x24 }
  - { offset: 0x549E8, size: 0x8, addend: 0x0, symName: __ZNKSt3__122__compressed_pair_elemIPNS_6vectorI4EdgeNS_9allocatorIS2_EEEELi0ELb0EE5__getB8ne180100Ev, symObjAddr: 0x18E08, symBinAddr: 0x10001B6A0, symSize: 0x14 }
  - { offset: 0x54A0E, size: 0x8, addend: 0x0, symName: __ZNSt3__16vectorINS0_I4EdgeNS_9allocatorIS1_EEEENS2_IS4_EEED2B8ne180100Ev, symObjAddr: 0x18E1C, symBinAddr: 0x10001B6B4, symSize: 0x40 }
  - { offset: 0x54A38, size: 0x8, addend: 0x0, symName: __ZNSt3__16vectorI4EdgeNS_9allocatorIS1_EEE11__make_iterB8ne180100EPS1_, symObjAddr: 0x18E5C, symBinAddr: 0x10001B6F4, symSize: 0x30 }
  - { offset: 0x54A6D, size: 0x8, addend: 0x0, symName: __ZNSt3__111__wrap_iterIP4EdgeEC1B8ne180100ES2_, symObjAddr: 0x18E8C, symBinAddr: 0x10001B724, symSize: 0x34 }
  - { offset: 0x54AA5, size: 0x8, addend: 0x0, symName: __ZNSt3__111__wrap_iterIP4EdgeEC2B8ne180100ES2_, symObjAddr: 0x18EC0, symBinAddr: 0x10001B758, symSize: 0x20 }
  - { offset: 0x54ADD, size: 0x8, addend: 0x0, symName: __ZNSt3__16vectorI4EdgeNS_9allocatorIS1_EEE22__construct_one_at_endB8ne180100IJRKS1_EEEvDpOT_, symObjAddr: 0x18EE0, symBinAddr: 0x10001B778, symSize: 0x90 }
  - { offset: 0x54B2C, size: 0x8, addend: 0x0, symName: __ZNSt3__16vectorI4EdgeNS_9allocatorIS1_EEE21__push_back_slow_pathIRKS1_EEPS1_OT_, symObjAddr: 0x18F70, symBinAddr: 0x10001B808, symSize: 0xE8 }
  - { offset: 0x54B88, size: 0x8, addend: 0x0, symName: __ZNSt3__116allocator_traitsINS_9allocatorI4EdgeEEE9constructB8ne180100IS2_JRKS2_EvEEvRS3_PT_DpOT0_, symObjAddr: 0x19058, symBinAddr: 0x10001B8F0, symSize: 0x34 }
  - { offset: 0x54BDF, size: 0x8, addend: 0x0, symName: __ZNSt3__19allocatorI4EdgeE9constructB8ne180100IS1_JRKS1_EEEvPT_DpOT0_, symObjAddr: 0x1908C, symBinAddr: 0x10001B924, symSize: 0x30 }
  - { offset: 0x54C35, size: 0x8, addend: 0x0, symName: __ZNKSt3__16vectorI4EdgeNS_9allocatorIS1_EEE11__recommendB8ne180100Em, symObjAddr: 0x190BC, symBinAddr: 0x10001B954, symSize: 0xAC }
  - { offset: 0x54C8A, size: 0x8, addend: 0x0, symName: __ZNSt3__114__split_bufferI4EdgeRNS_9allocatorIS1_EEEC1EmmS4_, symObjAddr: 0x19168, symBinAddr: 0x10001BA00, symSize: 0x44 }
  - { offset: 0x54CE0, size: 0x8, addend: 0x0, symName: __ZNSt3__114__split_bufferI4EdgeRNS_9allocatorIS1_EEED1Ev, symObjAddr: 0x192BC, symBinAddr: 0x10001BB54, symSize: 0x2C }
  - { offset: 0x54D0C, size: 0x8, addend: 0x0, symName: __ZNSt3__114__split_bufferI4EdgeRNS_9allocatorIS1_EEEC2EmmS4_, symObjAddr: 0x192E8, symBinAddr: 0x10001BB80, symSize: 0xD8 }
  - { offset: 0x54D80, size: 0x8, addend: 0x0, symName: __ZNSt3__117__compressed_pairIP4EdgeRNS_9allocatorIS1_EEEC1B8ne180100IDnS5_EEOT_OT0_, symObjAddr: 0x193C0, symBinAddr: 0x10001BC58, symSize: 0x3C }
  - { offset: 0x54DD8, size: 0x8, addend: 0x0, symName: __ZNSt3__114__split_bufferI4EdgeRNS_9allocatorIS1_EEE7__allocB8ne180100Ev, symObjAddr: 0x193FC, symBinAddr: 0x10001BC94, symSize: 0x28 }
  - { offset: 0x54DFE, size: 0x8, addend: 0x0, symName: __ZNSt3__114__split_bufferI4EdgeRNS_9allocatorIS1_EEE9__end_capB8ne180100Ev, symObjAddr: 0x19424, symBinAddr: 0x10001BCBC, symSize: 0x28 }
  - { offset: 0x54E24, size: 0x8, addend: 0x0, symName: __ZNSt3__117__compressed_pairIP4EdgeRNS_9allocatorIS1_EEEC2B8ne180100IDnS5_EEOT_OT0_, symObjAddr: 0x1944C, symBinAddr: 0x10001BCE4, symSize: 0x48 }
  - { offset: 0x54E7C, size: 0x8, addend: 0x0, symName: __ZNSt3__122__compressed_pair_elemIRNS_9allocatorI4EdgeEELi1ELb0EEC2B8ne180100IS4_vEEOT_, symObjAddr: 0x19494, symBinAddr: 0x10001BD2C, symSize: 0x20 }
  - { offset: 0x54EBE, size: 0x8, addend: 0x0, symName: __ZNSt3__117__compressed_pairIP4EdgeRNS_9allocatorIS1_EEE6secondB8ne180100Ev, symObjAddr: 0x194B4, symBinAddr: 0x10001BD4C, symSize: 0x28 }
  - { offset: 0x54EE4, size: 0x8, addend: 0x0, symName: __ZNSt3__122__compressed_pair_elemIRNS_9allocatorI4EdgeEELi1ELb0EE5__getB8ne180100Ev, symObjAddr: 0x194DC, symBinAddr: 0x10001BD74, symSize: 0x18 }
  - { offset: 0x54F0A, size: 0x8, addend: 0x0, symName: __ZNSt3__117__compressed_pairIP4EdgeRNS_9allocatorIS1_EEE5firstB8ne180100Ev, symObjAddr: 0x194F4, symBinAddr: 0x10001BD8C, symSize: 0x24 }
  - { offset: 0x54F30, size: 0x8, addend: 0x0, symName: __ZNSt3__129_AllocatorDestroyRangeReverseINS_9allocatorI4EdgeEENS_16reverse_iteratorIPS2_EEEC1B8ne180100ERS3_RS6_S9_, symObjAddr: 0x196BC, symBinAddr: 0x10001BF54, symSize: 0x44 }
  - { offset: 0x54F8D, size: 0x8, addend: 0x0, symName: __ZNSt3__116allocator_traitsINS_9allocatorI4EdgeEEE9constructB8ne180100IS2_JS2_EvEEvRS3_PT_DpOT0_, symObjAddr: 0x19700, symBinAddr: 0x10001BF98, symSize: 0x34 }
  - { offset: 0x54FE4, size: 0x8, addend: 0x0, symName: __ZNSt3__128__exception_guard_exceptionsINS_29_AllocatorDestroyRangeReverseINS_9allocatorI4EdgeEENS_16reverse_iteratorIPS3_EEEEE10__completeB8ne180100Ev, symObjAddr: 0x19734, symBinAddr: 0x10001BFCC, symSize: 0x1C }
  - { offset: 0x5500A, size: 0x8, addend: 0x0, symName: __ZNSt3__128__exception_guard_exceptionsINS_29_AllocatorDestroyRangeReverseINS_9allocatorI4EdgeEENS_16reverse_iteratorIPS3_EEEEED1B8ne180100Ev, symObjAddr: 0x19750, symBinAddr: 0x10001BFE8, symSize: 0x2C }
  - { offset: 0x55034, size: 0x8, addend: 0x0, symName: __ZNSt3__128__exception_guard_exceptionsINS_29_AllocatorDestroyRangeReverseINS_9allocatorI4EdgeEENS_16reverse_iteratorIPS3_EEEEEC1B8ne180100ES8_, symObjAddr: 0x1977C, symBinAddr: 0x10001C014, symSize: 0x34 }
  - { offset: 0x5506D, size: 0x8, addend: 0x0, symName: __ZNSt3__128__exception_guard_exceptionsINS_29_AllocatorDestroyRangeReverseINS_9allocatorI4EdgeEENS_16reverse_iteratorIPS3_EEEEEC2B8ne180100ES8_, symObjAddr: 0x197B0, symBinAddr: 0x10001C048, symSize: 0x30 }
  - { offset: 0x550A6, size: 0x8, addend: 0x0, symName: __ZNSt3__129_AllocatorDestroyRangeReverseINS_9allocatorI4EdgeEENS_16reverse_iteratorIPS2_EEEC2B8ne180100ERS3_RS6_S9_, symObjAddr: 0x197E0, symBinAddr: 0x10001C078, symSize: 0x38 }
  - { offset: 0x550FD, size: 0x8, addend: 0x0, symName: __ZNSt3__19allocatorI4EdgeE9constructB8ne180100IS1_JS1_EEEvPT_DpOT0_, symObjAddr: 0x19818, symBinAddr: 0x10001C0B0, symSize: 0x30 }
  - { offset: 0x55153, size: 0x8, addend: 0x0, symName: __ZN4EdgeC1EOS_, symObjAddr: 0x19848, symBinAddr: 0x10001C0E0, symSize: 0x34 }
  - { offset: 0x55188, size: 0x8, addend: 0x0, symName: __ZN4EdgeC2EOS_, symObjAddr: 0x1987C, symBinAddr: 0x10001C114, symSize: 0x48 }
  - { offset: 0x551BD, size: 0x8, addend: 0x0, symName: __ZNSt3__128__exception_guard_exceptionsINS_29_AllocatorDestroyRangeReverseINS_9allocatorI4EdgeEENS_16reverse_iteratorIPS3_EEEEED2B8ne180100Ev, symObjAddr: 0x198C4, symBinAddr: 0x10001C15C, symSize: 0x50 }
  - { offset: 0x551E7, size: 0x8, addend: 0x0, symName: __ZNKSt3__129_AllocatorDestroyRangeReverseINS_9allocatorI4EdgeEENS_16reverse_iteratorIPS2_EEEclB8ne180100Ev, symObjAddr: 0x19914, symBinAddr: 0x10001C1AC, symSize: 0xB0 }
  - { offset: 0x5520E, size: 0x8, addend: 0x0, symName: __ZNSt3__116reverse_iteratorINS0_IP4EdgeEEEC1B8ne180100ES3_, symObjAddr: 0x19A34, symBinAddr: 0x10001C2CC, symSize: 0x3C }
  - { offset: 0x55246, size: 0x8, addend: 0x0, symName: __ZNSt3__116reverse_iteratorINS0_IP4EdgeEEEppB8ne180100Ev, symObjAddr: 0x19AF0, symBinAddr: 0x10001C388, symSize: 0x30 }
  - { offset: 0x5526C, size: 0x8, addend: 0x0, symName: __ZNKSt3__116reverse_iteratorINS0_IP4EdgeEEE4baseB8ne180100Ev, symObjAddr: 0x19B20, symBinAddr: 0x10001C3B8, symSize: 0x24 }
  - { offset: 0x55298, size: 0x8, addend: 0x0, symName: __ZNSt3__119__to_address_helperINS_16reverse_iteratorINS1_IP4EdgeEEEEvE6__callB8ne180100ERKS5_, symObjAddr: 0x19B44, symBinAddr: 0x10001C3DC, symSize: 0x38 }
  - { offset: 0x552BB, size: 0x8, addend: 0x0, symName: __ZNKSt3__116reverse_iteratorINS0_IP4EdgeEEEptB8ne180100Ev, symObjAddr: 0x19B7C, symBinAddr: 0x10001C414, symSize: 0x24 }
  - { offset: 0x552E1, size: 0x8, addend: 0x0, symName: __ZNKSt3__116reverse_iteratorINS0_IP4EdgeEEEdeB8ne180100Ev, symObjAddr: 0x19BA0, symBinAddr: 0x10001C438, symSize: 0x34 }
  - { offset: 0x55315, size: 0x8, addend: 0x0, symName: __ZNSt3__116reverse_iteratorIP4EdgeEmmB8ne180100Ev, symObjAddr: 0x19BD4, symBinAddr: 0x10001C46C, symSize: 0x20 }
  - { offset: 0x5533B, size: 0x8, addend: 0x0, symName: __ZNSt3__116reverse_iteratorINS0_IP4EdgeEEEC2B8ne180100ES3_, symObjAddr: 0x19BF4, symBinAddr: 0x10001C48C, symSize: 0x2C }
  - { offset: 0x55373, size: 0x8, addend: 0x0, symName: __ZNSt3__114__split_bufferI4EdgeRNS_9allocatorIS1_EEED2Ev, symObjAddr: 0x19C20, symBinAddr: 0x10001C4B8, symSize: 0x84 }
  - { offset: 0x5539F, size: 0x8, addend: 0x0, symName: __ZNSt3__114__split_bufferI4EdgeRNS_9allocatorIS1_EEE5clearB8ne180100Ev, symObjAddr: 0x19CA4, symBinAddr: 0x10001C53C, symSize: 0x28 }
  - { offset: 0x553C5, size: 0x8, addend: 0x0, symName: __ZNKSt3__114__split_bufferI4EdgeRNS_9allocatorIS1_EEE8capacityB8ne180100Ev, symObjAddr: 0x19CCC, symBinAddr: 0x10001C564, symSize: 0x40 }
  - { offset: 0x553EB, size: 0x8, addend: 0x0, symName: __ZNSt3__114__split_bufferI4EdgeRNS_9allocatorIS1_EEE17__destruct_at_endB8ne180100EPS1_, symObjAddr: 0x19D0C, symBinAddr: 0x10001C5A4, symSize: 0x2C }
  - { offset: 0x5541F, size: 0x8, addend: 0x0, symName: __ZNSt3__114__split_bufferI4EdgeRNS_9allocatorIS1_EEE17__destruct_at_endB8ne180100EPS1_NS_17integral_constantIbLb0EEE, symObjAddr: 0x19D38, symBinAddr: 0x10001C5D0, symSize: 0x7C }
  - { offset: 0x5545F, size: 0x8, addend: 0x0, symName: __ZNKSt3__114__split_bufferI4EdgeRNS_9allocatorIS1_EEE9__end_capB8ne180100Ev, symObjAddr: 0x19DB4, symBinAddr: 0x10001C64C, symSize: 0x28 }
  - { offset: 0x55485, size: 0x8, addend: 0x0, symName: __ZNKSt3__117__compressed_pairIP4EdgeRNS_9allocatorIS1_EEE5firstB8ne180100Ev, symObjAddr: 0x19DDC, symBinAddr: 0x10001C674, symSize: 0x24 }
  - { offset: 0x554AB, size: 0x8, addend: 0x0, symName: __ZNSt3__16vectorIdNS_9allocatorIdEEEC2B8ne180100ESt16initializer_listIdE, symObjAddr: 0x19E00, symBinAddr: 0x10001C698, symSize: 0x11C }
  - { offset: 0x554FB, size: 0x8, addend: 0x0, symName: __ZNKSt16initializer_listIdE4sizeB8ne180100Ev, symObjAddr: 0x19F1C, symBinAddr: 0x10001C7B4, symSize: 0x18 }
  - { offset: 0x55521, size: 0x8, addend: 0x0, symName: __ZNSt3__16vectorIdNS_9allocatorIdEEE18__construct_at_endIPKdS6_EEvT_T0_m, symObjAddr: 0x19F34, symBinAddr: 0x10001C7CC, symSize: 0x8C }
  - { offset: 0x55595, size: 0x8, addend: 0x0, symName: __ZNKSt16initializer_listIdE5beginB8ne180100Ev, symObjAddr: 0x19FC0, symBinAddr: 0x10001C858, symSize: 0x18 }
  - { offset: 0x555BB, size: 0x8, addend: 0x0, symName: __ZNKSt16initializer_listIdE3endB8ne180100Ev, symObjAddr: 0x19FD8, symBinAddr: 0x10001C870, symSize: 0x20 }
  - { offset: 0x55604, size: 0x8, addend: 0x0, symName: __ZNSt3__14pairIPKdS2_EC1B8ne180100IS2_S2_TnNS_9enable_ifIXclsr10_CheckArgsE17__enable_implicitIT_T0_EEEiE4typeELi0EEEOS6_OS7_, symObjAddr: 0x1A16C, symBinAddr: 0x10001CA04, symSize: 0x3C }
  - { offset: 0x55662, size: 0x8, addend: 0x0, symName: __ZNSt3__14pairIPKdS2_EC2B8ne180100IS2_S2_TnNS_9enable_ifIXclsr10_CheckArgsE17__enable_implicitIT_T0_EEEiE4typeELi0EEEOS6_OS7_, symObjAddr: 0x1A1A8, symBinAddr: 0x10001CA40, symSize: 0x34 }
  - { offset: 0x556C0, size: 0x8, addend: 0x0, symName: __ZNSt3__118__unwrap_iter_implIPKdLb1EE8__unwrapB8ne180100ES2_, symObjAddr: 0x1A1DC, symBinAddr: 0x10001CA74, symSize: 0x24 }
  - { offset: 0x55700, size: 0x8, addend: 0x0, symName: __ZNKSt3__114__copy_trivialclB8ne180100IKddTnNS_9enable_ifIXsr38__can_lower_copy_assignment_to_memmoveIT_T0_EE5valueEiE4typeELi0EEENS_4pairIPS4_PS5_EES9_S9_SA_, symObjAddr: 0x1A390, symBinAddr: 0x10001CC28, symSize: 0x48 }
  - { offset: 0x5576E, size: 0x8, addend: 0x0, symName: __ZNSt3__14pairIPKdPdEC1B8ne180100IRS2_S3_TnNS_9enable_ifIXclsr10_CheckArgsE17__enable_implicitIT_T0_EEEiE4typeELi0EEEOS8_OS9_, symObjAddr: 0x1A554, symBinAddr: 0x10001CDEC, symSize: 0x3C }
  - { offset: 0x557CC, size: 0x8, addend: 0x0, symName: __ZNSt3__14pairIPKdPdEC2B8ne180100IRS2_S3_TnNS_9enable_ifIXclsr10_CheckArgsE17__enable_implicitIT_T0_EEEiE4typeELi0EEEOS8_OS9_, symObjAddr: 0x1A590, symBinAddr: 0x10001CE28, symSize: 0x34 }
  - { offset: 0x5582A, size: 0x8, addend: 0x0, symName: __ZNSt3__14pairIPKdPdEC1B8ne180100IS2_S3_TnNS_9enable_ifIXclsr10_CheckArgsE17__enable_implicitIT_T0_EEEiE4typeELi0EEEOS7_OS8_, symObjAddr: 0x1A5C4, symBinAddr: 0x10001CE5C, symSize: 0x3C }
  - { offset: 0x55888, size: 0x8, addend: 0x0, symName: __ZNSt3__14pairIPKdPdEC2B8ne180100IS2_S3_TnNS_9enable_ifIXclsr10_CheckArgsE17__enable_implicitIT_T0_EEEiE4typeELi0EEEOS7_OS8_, symObjAddr: 0x1A600, symBinAddr: 0x10001CE98, symSize: 0x34 }
  - { offset: 0x558E6, size: 0x8, addend: 0x0, symName: __ZNSt3__118__unwrap_iter_implIPKdLb1EE8__rewrapB8ne180100ES2_S2_, symObjAddr: 0x1A670, symBinAddr: 0x10001CF08, symSize: 0x50 }
  - { offset: 0x55917, size: 0x8, addend: 0x0, symName: __ZNSt3__110shared_ptrI4NodeED2B8ne180100Ev, symObjAddr: 0x1A6C0, symBinAddr: 0x10001CF58, symSize: 0x4C }
  - { offset: 0x55941, size: 0x8, addend: 0x0, symName: __ZNSt3__16vectorIdNS_9allocatorIdEEE22__construct_one_at_endB8ne180100IJdEEEvDpOT_, symObjAddr: 0x1A70C, symBinAddr: 0x10001CFA4, symSize: 0x90 }
  - { offset: 0x55990, size: 0x8, addend: 0x0, symName: __ZNSt3__16vectorIdNS_9allocatorIdEEE21__push_back_slow_pathIdEEPdOT_, symObjAddr: 0x1A79C, symBinAddr: 0x10001D034, symSize: 0xE8 }
  - { offset: 0x559EC, size: 0x8, addend: 0x0, symName: __ZNSt3__116allocator_traitsINS_9allocatorIdEEE9constructB8ne180100IdJdEvEEvRS2_PT_DpOT0_, symObjAddr: 0x1A884, symBinAddr: 0x10001D11C, symSize: 0x34 }
  - { offset: 0x55A43, size: 0x8, addend: 0x0, symName: __ZNSt3__19allocatorIdE9constructB8ne180100IdJdEEEvPT_DpOT0_, symObjAddr: 0x1A8B8, symBinAddr: 0x10001D150, symSize: 0x28 }
  - { offset: 0x55A99, size: 0x8, addend: 0x0, symName: __ZNKSt3__16vectorIdNS_9allocatorIdEEE11__recommendB8ne180100Em, symObjAddr: 0x1A8E0, symBinAddr: 0x10001D178, symSize: 0xAC }
  - { offset: 0x55AEE, size: 0x8, addend: 0x0, symName: __ZNSt3__114__split_bufferIdRNS_9allocatorIdEEEC1EmmS3_, symObjAddr: 0x1A98C, symBinAddr: 0x10001D224, symSize: 0x44 }
  - { offset: 0x55B44, size: 0x8, addend: 0x0, symName: __ZNSt3__114__split_bufferIdRNS_9allocatorIdEEED1Ev, symObjAddr: 0x1AAE0, symBinAddr: 0x10001D378, symSize: 0x2C }
  - { offset: 0x55B70, size: 0x8, addend: 0x0, symName: __ZNSt3__114__split_bufferIdRNS_9allocatorIdEEEC2EmmS3_, symObjAddr: 0x1AB0C, symBinAddr: 0x10001D3A4, symSize: 0xCC }
  - { offset: 0x55BE4, size: 0x8, addend: 0x0, symName: __ZNSt3__117__compressed_pairIPdRNS_9allocatorIdEEEC1B8ne180100IDnS4_EEOT_OT0_, symObjAddr: 0x1ABD8, symBinAddr: 0x10001D470, symSize: 0x3C }
  - { offset: 0x55C3C, size: 0x8, addend: 0x0, symName: __ZNSt3__114__split_bufferIdRNS_9allocatorIdEEE7__allocB8ne180100Ev, symObjAddr: 0x1AC14, symBinAddr: 0x10001D4AC, symSize: 0x28 }
  - { offset: 0x55C62, size: 0x8, addend: 0x0, symName: __ZNSt3__114__split_bufferIdRNS_9allocatorIdEEE9__end_capB8ne180100Ev, symObjAddr: 0x1AC3C, symBinAddr: 0x10001D4D4, symSize: 0x28 }
  - { offset: 0x55C88, size: 0x8, addend: 0x0, symName: __ZNSt3__117__compressed_pairIPdRNS_9allocatorIdEEEC2B8ne180100IDnS4_EEOT_OT0_, symObjAddr: 0x1AC64, symBinAddr: 0x10001D4FC, symSize: 0x48 }
  - { offset: 0x55CE0, size: 0x8, addend: 0x0, symName: __ZNSt3__122__compressed_pair_elemIRNS_9allocatorIdEELi1ELb0EEC2B8ne180100IS3_vEEOT_, symObjAddr: 0x1ACAC, symBinAddr: 0x10001D544, symSize: 0x20 }
  - { offset: 0x55D22, size: 0x8, addend: 0x0, symName: __ZNSt3__117__compressed_pairIPdRNS_9allocatorIdEEE6secondB8ne180100Ev, symObjAddr: 0x1ACCC, symBinAddr: 0x10001D564, symSize: 0x28 }
  - { offset: 0x55D48, size: 0x8, addend: 0x0, symName: __ZNSt3__122__compressed_pair_elemIRNS_9allocatorIdEELi1ELb0EE5__getB8ne180100Ev, symObjAddr: 0x1ACF4, symBinAddr: 0x10001D58C, symSize: 0x18 }
  - { offset: 0x55D6E, size: 0x8, addend: 0x0, symName: __ZNSt3__117__compressed_pairIPdRNS_9allocatorIdEEE5firstB8ne180100Ev, symObjAddr: 0x1AD0C, symBinAddr: 0x10001D5A4, symSize: 0x24 }
  - { offset: 0x55D94, size: 0x8, addend: 0x0, symName: __ZNSt3__116reverse_iteratorIPdEC1B8ne180100ES1_, symObjAddr: 0x1ADA8, symBinAddr: 0x10001D640, symSize: 0x34 }
  - { offset: 0x55DCC, size: 0x8, addend: 0x0, symName: __ZNKSt3__116reverse_iteratorIPdE4baseB8ne180100Ev, symObjAddr: 0x1ADDC, symBinAddr: 0x10001D674, symSize: 0x18 }
  - { offset: 0x55E1A, size: 0x8, addend: 0x0, symName: __ZNKSt3__111__move_loopINS_17_ClassicAlgPolicyEEclB8ne180100INS_16reverse_iteratorIPdEES6_S6_EENS_4pairIT_T1_EES8_T0_S9_, symObjAddr: 0x1B120, symBinAddr: 0x10001D9B8, symSize: 0xA0 }
  - { offset: 0x55E8B, size: 0x8, addend: 0x0, symName: __ZNSt3__18_IterOpsINS_17_ClassicAlgPolicyEE11__iter_moveB8ne180100IRNS_16reverse_iteratorIPdEETnNS_9enable_ifIXsr12is_referenceIDTdeclsr3stdE7declvalIRT_EEEEE5valueEiE4typeELi0EEEDTclsr3stdE4movedeclsr3stdE7declvalISA_EEEEOS9_, symObjAddr: 0x1B350, symBinAddr: 0x10001DBE8, symSize: 0x28 }
  - { offset: 0x55EBD, size: 0x8, addend: 0x0, symName: __ZNKSt3__116reverse_iteratorIPdEdeB8ne180100Ev, symObjAddr: 0x1B378, symBinAddr: 0x10001DC10, symSize: 0x28 }
  - { offset: 0x55EF1, size: 0x8, addend: 0x0, symName: __ZNSt3__116reverse_iteratorIPdEppB8ne180100Ev, symObjAddr: 0x1B3A0, symBinAddr: 0x10001DC38, symSize: 0x20 }
  - { offset: 0x55F17, size: 0x8, addend: 0x0, symName: __ZNSt3__18_IterOpsINS_17_ClassicAlgPolicyEE25__validate_iter_referenceB8ne180100IRNS_16reverse_iteratorIPdEEEEvv, symObjAddr: 0x1B3C0, symBinAddr: 0x10001DC58, symSize: 0x4 }
  - { offset: 0x55F35, size: 0x8, addend: 0x0, symName: __ZNSt3__118__unwrap_iter_implINS_16reverse_iteratorIPdEELb0EE8__unwrapB8ne180100ES3_, symObjAddr: 0x1B3C4, symBinAddr: 0x10001DC5C, symSize: 0x24 }
  - { offset: 0x55F5E, size: 0x8, addend: 0x0, symName: __ZNSt3__14pairINS_16reverse_iteratorIPdEES3_EC1B8ne180100IS3_S3_TnNS_9enable_ifIXclsr10_CheckArgsE17__enable_implicitIT_T0_EEEiE4typeELi0EEEOS7_OS8_, symObjAddr: 0x1B3E8, symBinAddr: 0x10001DC80, symSize: 0x3C }
  - { offset: 0x55FBC, size: 0x8, addend: 0x0, symName: __ZNSt3__14pairINS_16reverse_iteratorIPdEES3_EC2B8ne180100IS3_S3_TnNS_9enable_ifIXclsr10_CheckArgsE17__enable_implicitIT_T0_EEEiE4typeELi0EEEOS7_OS8_, symObjAddr: 0x1B424, symBinAddr: 0x10001DCBC, symSize: 0x34 }
  - { offset: 0x5601A, size: 0x8, addend: 0x0, symName: __ZNSt3__118__unwrap_iter_implINS_16reverse_iteratorIPdEELb0EE8__rewrapB8ne180100ES3_S3_, symObjAddr: 0x1B458, symBinAddr: 0x10001DCF0, symSize: 0x2C }
  - { offset: 0x56047, size: 0x8, addend: 0x0, symName: __ZNSt3__116reverse_iteratorIPdEC2B8ne180100ES1_, symObjAddr: 0x1B484, symBinAddr: 0x10001DD1C, symSize: 0x28 }
  - { offset: 0x5607F, size: 0x8, addend: 0x0, symName: __ZNSt3__114__split_bufferIdRNS_9allocatorIdEEED2Ev, symObjAddr: 0x1B4AC, symBinAddr: 0x10001DD44, symSize: 0x84 }
  - { offset: 0x560AB, size: 0x8, addend: 0x0, symName: __ZNSt3__114__split_bufferIdRNS_9allocatorIdEEE5clearB8ne180100Ev, symObjAddr: 0x1B530, symBinAddr: 0x10001DDC8, symSize: 0x28 }
  - { offset: 0x560D1, size: 0x8, addend: 0x0, symName: __ZNKSt3__114__split_bufferIdRNS_9allocatorIdEEE8capacityB8ne180100Ev, symObjAddr: 0x1B558, symBinAddr: 0x10001DDF0, symSize: 0x40 }
  - { offset: 0x560F7, size: 0x8, addend: 0x0, symName: __ZNSt3__114__split_bufferIdRNS_9allocatorIdEEE17__destruct_at_endB8ne180100EPd, symObjAddr: 0x1B598, symBinAddr: 0x10001DE30, symSize: 0x2C }
  - { offset: 0x5612B, size: 0x8, addend: 0x0, symName: __ZNSt3__114__split_bufferIdRNS_9allocatorIdEEE17__destruct_at_endB8ne180100EPdNS_17integral_constantIbLb0EEE, symObjAddr: 0x1B5C4, symBinAddr: 0x10001DE5C, symSize: 0x7C }
  - { offset: 0x5616B, size: 0x8, addend: 0x0, symName: __ZNKSt3__114__split_bufferIdRNS_9allocatorIdEEE9__end_capB8ne180100Ev, symObjAddr: 0x1B640, symBinAddr: 0x10001DED8, symSize: 0x28 }
  - { offset: 0x56191, size: 0x8, addend: 0x0, symName: __ZNKSt3__117__compressed_pairIPdRNS_9allocatorIdEEE5firstB8ne180100Ev, symObjAddr: 0x1B668, symBinAddr: 0x10001DF00, symSize: 0x24 }
  - { offset: 0x561B7, size: 0x8, addend: 0x0, symName: __ZNSt3__16vectorINS_10shared_ptrI4NodeEENS_9allocatorIS3_EEEC2B8ne180100Ev, symObjAddr: 0x1B68C, symBinAddr: 0x10001DF24, symSize: 0x4C }
  - { offset: 0x561E1, size: 0x8, addend: 0x0, symName: __ZNSt3__117__compressed_pairIPNS_10shared_ptrI4NodeEENS_9allocatorIS3_EEEC1B8ne180100IDnNS_18__default_init_tagEEEOT_OT0_, symObjAddr: 0x1B6D8, symBinAddr: 0x10001DF70, symSize: 0x3C }
  - { offset: 0x56239, size: 0x8, addend: 0x0, symName: __ZNSt3__117__compressed_pairIPNS_10shared_ptrI4NodeEENS_9allocatorIS3_EEEC2B8ne180100IDnNS_18__default_init_tagEEEOT_OT0_, symObjAddr: 0x1B714, symBinAddr: 0x10001DFAC, symSize: 0x40 }
  - { offset: 0x56291, size: 0x8, addend: 0x0, symName: __ZNSt3__122__compressed_pair_elemINS_9allocatorINS_10shared_ptrI4NodeEEEELi1ELb1EEC2B8ne180100ENS_18__default_init_tagE, symObjAddr: 0x1B754, symBinAddr: 0x10001DFEC, symSize: 0x2C }
  - { offset: 0x562C5, size: 0x8, addend: 0x0, symName: __ZNSt3__19allocatorINS_10shared_ptrI4NodeEEEC2B8ne180100Ev, symObjAddr: 0x1B780, symBinAddr: 0x10001E018, symSize: 0x2C }
  - { offset: 0x562EF, size: 0x8, addend: 0x0, symName: __ZNSt3__116__non_trivial_ifILb1ENS_9allocatorINS_10shared_ptrI4NodeEEEEEC2B8ne180100Ev, symObjAddr: 0x1B7AC, symBinAddr: 0x10001E044, symSize: 0x14 }
  - { offset: 0x56319, size: 0x8, addend: 0x0, symName: __ZNSt3__16vectorINS_10shared_ptrI4NodeEENS_9allocatorIS3_EEED2B8ne180100Ev, symObjAddr: 0x1B7C0, symBinAddr: 0x10001E058, symSize: 0x44 }
  - { offset: 0x56343, size: 0x8, addend: 0x0, symName: __ZNSt3__16vectorINS_10shared_ptrI4NodeEENS_9allocatorIS3_EEE16__destroy_vectorC1B8ne180100ERS6_, symObjAddr: 0x1B804, symBinAddr: 0x10001E09C, symSize: 0x34 }
  - { offset: 0x5637C, size: 0x8, addend: 0x0, symName: __ZNSt3__16vectorINS_10shared_ptrI4NodeEENS_9allocatorIS3_EEE16__destroy_vectorclB8ne180100Ev, symObjAddr: 0x1B838, symBinAddr: 0x10001E0D0, symSize: 0x88 }
  - { offset: 0x563A2, size: 0x8, addend: 0x0, symName: __ZNSt3__16vectorINS_10shared_ptrI4NodeEENS_9allocatorIS3_EEE16__destroy_vectorC2B8ne180100ERS6_, symObjAddr: 0x1B8C0, symBinAddr: 0x10001E158, symSize: 0x20 }
  - { offset: 0x563DB, size: 0x8, addend: 0x0, symName: __ZNSt3__16vectorINS_10shared_ptrI4NodeEENS_9allocatorIS3_EEE7__clearB8ne180100Ev, symObjAddr: 0x1B8E0, symBinAddr: 0x10001E178, symSize: 0x28 }
  - { offset: 0x56401, size: 0x8, addend: 0x0, symName: __ZNSt3__18functionIFbRKNS_10shared_ptrI4NodeEES5_EED2Ev, symObjAddr: 0x1B908, symBinAddr: 0x10001E1A0, symSize: 0x2C }
  - { offset: 0x5642D, size: 0x8, addend: 0x0, symName: __ZNSt3__110__function12__value_funcIFbRKNS_10shared_ptrI4NodeEES6_EED1B8ne180100Ev, symObjAddr: 0x1B934, symBinAddr: 0x10001E1CC, symSize: 0x2C }
  - { offset: 0x56457, size: 0x8, addend: 0x0, symName: __ZNSt3__110__function12__value_funcIFbRKNS_10shared_ptrI4NodeEES6_EED2B8ne180100Ev, symObjAddr: 0x1B960, symBinAddr: 0x10001E1F8, symSize: 0x84 }
  - { offset: 0x56481, size: 0x8, addend: 0x0, symName: __ZNSt3__111char_traitsIcE2eqEcc, symObjAddr: 0x1BB8C, symBinAddr: 0x10001E424, symSize: 0x24 }
  - { offset: 0x564B2, size: 0x8, addend: 0x0, symName: __ZNSt3__19allocatorIcEC1B8ne180100Ev, symObjAddr: 0x1BBB0, symBinAddr: 0x10001E448, symSize: 0x2C }
  - { offset: 0x564DC, size: 0x8, addend: 0x0, symName: __ZNSt3__16vectorINS_12basic_stringIcNS_11char_traitsIcEENS_9allocatorIcEEEENS4_IS6_EEE9__end_capB8ne180100Ev, symObjAddr: 0x1BBDC, symBinAddr: 0x10001E474, symSize: 0x28 }
  - { offset: 0x56508, size: 0x8, addend: 0x0, symName: __ZNSt3__16vectorINS_12basic_stringIcNS_11char_traitsIcEENS_9allocatorIcEEEENS4_IS6_EEE22__construct_one_at_endB8ne180100IJS6_EEEvDpOT_, symObjAddr: 0x1BC04, symBinAddr: 0x10001E49C, symSize: 0x90 }
  - { offset: 0x56557, size: 0x8, addend: 0x0, symName: __ZNSt3__16vectorINS_12basic_stringIcNS_11char_traitsIcEENS_9allocatorIcEEEENS4_IS6_EEE21__push_back_slow_pathIS6_EEPS6_OT_, symObjAddr: 0x1BC94, symBinAddr: 0x10001E52C, symSize: 0xE8 }
  - { offset: 0x565B3, size: 0x8, addend: 0x0, symName: __ZNSt3__117__compressed_pairIPNS_12basic_stringIcNS_11char_traitsIcEENS_9allocatorIcEEEENS4_IS6_EEE5firstB8ne180100Ev, symObjAddr: 0x1BD7C, symBinAddr: 0x10001E614, symSize: 0x24 }
  - { offset: 0x565D9, size: 0x8, addend: 0x0, symName: __ZNSt3__122__compressed_pair_elemIPNS_12basic_stringIcNS_11char_traitsIcEENS_9allocatorIcEEEELi0ELb0EE5__getB8ne180100Ev, symObjAddr: 0x1BDA0, symBinAddr: 0x10001E638, symSize: 0x14 }
  - { offset: 0x5661B, size: 0x8, addend: 0x0, symName: __ZNSt3__16vectorINS_12basic_stringIcNS_11char_traitsIcEENS_9allocatorIcEEEENS4_IS6_EEE21_ConstructTransactionC1B8ne180100ERS8_m, symObjAddr: 0x1BDB4, symBinAddr: 0x10001E64C, symSize: 0x3C }
  - { offset: 0x56663, size: 0x8, addend: 0x0, symName: __ZNSt3__116allocator_traitsINS_9allocatorINS_12basic_stringIcNS_11char_traitsIcEENS1_IcEEEEEEE9constructB8ne180100IS6_JS6_EvEEvRS7_PT_DpOT0_, symObjAddr: 0x1BDF0, symBinAddr: 0x10001E688, symSize: 0x34 }
  - { offset: 0x566BA, size: 0x8, addend: 0x0, symName: __ZNSt3__16vectorINS_12basic_stringIcNS_11char_traitsIcEENS_9allocatorIcEEEENS4_IS6_EEE7__allocB8ne180100Ev, symObjAddr: 0x1BE24, symBinAddr: 0x10001E6BC, symSize: 0x28 }
  - { offset: 0x566E0, size: 0x8, addend: 0x0, symName: __ZNSt3__16vectorINS_12basic_stringIcNS_11char_traitsIcEENS_9allocatorIcEEEENS4_IS6_EEE21_ConstructTransactionD1B8ne180100Ev, symObjAddr: 0x1BE4C, symBinAddr: 0x10001E6E4, symSize: 0x2C }
  - { offset: 0x5670A, size: 0x8, addend: 0x0, symName: __ZNSt3__16vectorINS_12basic_stringIcNS_11char_traitsIcEENS_9allocatorIcEEEENS4_IS6_EEE21_ConstructTransactionC2B8ne180100ERS8_m, symObjAddr: 0x1BE78, symBinAddr: 0x10001E710, symSize: 0x4C }
  - { offset: 0x56752, size: 0x8, addend: 0x0, symName: __ZNSt3__19allocatorINS_12basic_stringIcNS_11char_traitsIcEENS0_IcEEEEE9constructB8ne180100IS5_JS5_EEEvPT_DpOT0_, symObjAddr: 0x1BEC4, symBinAddr: 0x10001E75C, symSize: 0x30 }
  - { offset: 0x567A8, size: 0x8, addend: 0x0, symName: __ZNSt3__117__compressed_pairIPNS_12basic_stringIcNS_11char_traitsIcEENS_9allocatorIcEEEENS4_IS6_EEE6secondB8ne180100Ev, symObjAddr: 0x1BEF4, symBinAddr: 0x10001E78C, symSize: 0x24 }
  - { offset: 0x567CE, size: 0x8, addend: 0x0, symName: __ZNSt3__122__compressed_pair_elemINS_9allocatorINS_12basic_stringIcNS_11char_traitsIcEENS1_IcEEEEEELi1ELb1EE5__getB8ne180100Ev, symObjAddr: 0x1BF18, symBinAddr: 0x10001E7B0, symSize: 0x14 }
  - { offset: 0x567F4, size: 0x8, addend: 0x0, symName: __ZNSt3__16vectorINS_12basic_stringIcNS_11char_traitsIcEENS_9allocatorIcEEEENS4_IS6_EEE21_ConstructTransactionD2B8ne180100Ev, symObjAddr: 0x1BF2C, symBinAddr: 0x10001E7C4, symSize: 0x20 }
  - { offset: 0x5681E, size: 0x8, addend: 0x0, symName: __ZNKSt3__16vectorINS_12basic_stringIcNS_11char_traitsIcEENS_9allocatorIcEEEENS4_IS6_EEE11__recommendB8ne180100Em, symObjAddr: 0x1BF4C, symBinAddr: 0x10001E7E4, symSize: 0xAC }
  - { offset: 0x56873, size: 0x8, addend: 0x0, symName: __ZNKSt3__16vectorINS_12basic_stringIcNS_11char_traitsIcEENS_9allocatorIcEEEENS4_IS6_EEE4sizeB8ne180100Ev, symObjAddr: 0x1BFF8, symBinAddr: 0x10001E890, symSize: 0x28 }
  - { offset: 0x56899, size: 0x8, addend: 0x0, symName: __ZNSt3__114__split_bufferINS_12basic_stringIcNS_11char_traitsIcEENS_9allocatorIcEEEERNS4_IS6_EEEC1EmmS8_, symObjAddr: 0x1C020, symBinAddr: 0x10001E8B8, symSize: 0x44 }
  - { offset: 0x568EF, size: 0x8, addend: 0x0, symName: __ZNSt3__114__split_bufferINS_12basic_stringIcNS_11char_traitsIcEENS_9allocatorIcEEEERNS4_IS6_EEED1Ev, symObjAddr: 0x1C174, symBinAddr: 0x10001EA0C, symSize: 0x2C }
  - { offset: 0x5691B, size: 0x8, addend: 0x0, symName: __ZNKSt3__16vectorINS_12basic_stringIcNS_11char_traitsIcEENS_9allocatorIcEEEENS4_IS6_EEE8max_sizeEv, symObjAddr: 0x1C1A0, symBinAddr: 0x10001EA38, symSize: 0x60 }
  - { offset: 0x56943, size: 0x8, addend: 0x0, symName: __ZNKSt3__16vectorINS_12basic_stringIcNS_11char_traitsIcEENS_9allocatorIcEEEENS4_IS6_EEE20__throw_length_errorB8ne180100Ev, symObjAddr: 0x1C200, symBinAddr: 0x10001EA98, symSize: 0x1C }
  - { offset: 0x56969, size: 0x8, addend: 0x0, symName: __ZNKSt3__16vectorINS_12basic_stringIcNS_11char_traitsIcEENS_9allocatorIcEEEENS4_IS6_EEE8capacityB8ne180100Ev, symObjAddr: 0x1C21C, symBinAddr: 0x10001EAB4, symSize: 0x40 }
  - { offset: 0x5699A, size: 0x8, addend: 0x0, symName: __ZNSt3__116allocator_traitsINS_9allocatorINS_12basic_stringIcNS_11char_traitsIcEENS1_IcEEEEEEE8max_sizeB8ne180100IS7_vEEmRKS7_, symObjAddr: 0x1C25C, symBinAddr: 0x10001EAF4, symSize: 0x24 }
  - { offset: 0x569C8, size: 0x8, addend: 0x0, symName: __ZNKSt3__16vectorINS_12basic_stringIcNS_11char_traitsIcEENS_9allocatorIcEEEENS4_IS6_EEE7__allocB8ne180100Ev, symObjAddr: 0x1C280, symBinAddr: 0x10001EB18, symSize: 0x28 }
  - { offset: 0x569EE, size: 0x8, addend: 0x0, symName: __ZNKSt3__19allocatorINS_12basic_stringIcNS_11char_traitsIcEENS0_IcEEEEE8max_sizeB8ne180100Ev, symObjAddr: 0x1C2A8, symBinAddr: 0x10001EB40, symSize: 0x18 }
  - { offset: 0x56A14, size: 0x8, addend: 0x0, symName: __ZNKSt3__117__compressed_pairIPNS_12basic_stringIcNS_11char_traitsIcEENS_9allocatorIcEEEENS4_IS6_EEE6secondB8ne180100Ev, symObjAddr: 0x1C2C0, symBinAddr: 0x10001EB58, symSize: 0x24 }
  - { offset: 0x56A3A, size: 0x8, addend: 0x0, symName: __ZNKSt3__122__compressed_pair_elemINS_9allocatorINS_12basic_stringIcNS_11char_traitsIcEENS1_IcEEEEEELi1ELb1EE5__getB8ne180100Ev, symObjAddr: 0x1C2E4, symBinAddr: 0x10001EB7C, symSize: 0x14 }
  - { offset: 0x56A60, size: 0x8, addend: 0x0, symName: __ZNKSt3__16vectorINS_12basic_stringIcNS_11char_traitsIcEENS_9allocatorIcEEEENS4_IS6_EEE9__end_capB8ne180100Ev, symObjAddr: 0x1C2F8, symBinAddr: 0x10001EB90, symSize: 0x28 }
  - { offset: 0x56A86, size: 0x8, addend: 0x0, symName: __ZNKSt3__117__compressed_pairIPNS_12basic_stringIcNS_11char_traitsIcEENS_9allocatorIcEEEENS4_IS6_EEE5firstB8ne180100Ev, symObjAddr: 0x1C320, symBinAddr: 0x10001EBB8, symSize: 0x24 }
  - { offset: 0x56AAC, size: 0x8, addend: 0x0, symName: __ZNKSt3__122__compressed_pair_elemIPNS_12basic_stringIcNS_11char_traitsIcEENS_9allocatorIcEEEELi0ELb0EE5__getB8ne180100Ev, symObjAddr: 0x1C344, symBinAddr: 0x10001EBDC, symSize: 0x14 }
  - { offset: 0x56AD2, size: 0x8, addend: 0x0, symName: __ZNSt3__114__split_bufferINS_12basic_stringIcNS_11char_traitsIcEENS_9allocatorIcEEEERNS4_IS6_EEEC2EmmS8_, symObjAddr: 0x1C358, symBinAddr: 0x10001EBF0, symSize: 0xD8 }
  - { offset: 0x56B46, size: 0x8, addend: 0x0, symName: __ZNSt3__117__compressed_pairIPNS_12basic_stringIcNS_11char_traitsIcEENS_9allocatorIcEEEERNS4_IS6_EEEC1B8ne180100IDnS9_EEOT_OT0_, symObjAddr: 0x1C430, symBinAddr: 0x10001ECC8, symSize: 0x3C }
  - { offset: 0x56B9E, size: 0x8, addend: 0x0, symName: __ZNSt3__114__split_bufferINS_12basic_stringIcNS_11char_traitsIcEENS_9allocatorIcEEEERNS4_IS6_EEE7__allocB8ne180100Ev, symObjAddr: 0x1C4AC, symBinAddr: 0x10001ED44, symSize: 0x28 }
  - { offset: 0x56BC4, size: 0x8, addend: 0x0, symName: __ZNSt3__114__split_bufferINS_12basic_stringIcNS_11char_traitsIcEENS_9allocatorIcEEEERNS4_IS6_EEE9__end_capB8ne180100Ev, symObjAddr: 0x1C4D4, symBinAddr: 0x10001ED6C, symSize: 0x28 }
  - { offset: 0x56BEA, size: 0x8, addend: 0x0, symName: __ZNSt3__117__compressed_pairIPNS_12basic_stringIcNS_11char_traitsIcEENS_9allocatorIcEEEERNS4_IS6_EEEC2B8ne180100IDnS9_EEOT_OT0_, symObjAddr: 0x1C4FC, symBinAddr: 0x10001ED94, symSize: 0x48 }
  - { offset: 0x56C42, size: 0x8, addend: 0x0, symName: __ZNSt3__122__compressed_pair_elemIPNS_12basic_stringIcNS_11char_traitsIcEENS_9allocatorIcEEEELi0ELb0EEC2B8ne180100IDnvEEOT_, symObjAddr: 0x1C544, symBinAddr: 0x10001EDDC, symSize: 0x1C }
  - { offset: 0x56C84, size: 0x8, addend: 0x0, symName: __ZNSt3__122__compressed_pair_elemIRNS_9allocatorINS_12basic_stringIcNS_11char_traitsIcEENS1_IcEEEEEELi1ELb0EEC2B8ne180100IS8_vEEOT_, symObjAddr: 0x1C560, symBinAddr: 0x10001EDF8, symSize: 0x20 }
  - { offset: 0x56CC6, size: 0x8, addend: 0x0, symName: __ZNSt3__19allocatorINS_12basic_stringIcNS_11char_traitsIcEENS0_IcEEEEE8allocateB8ne180100Em, symObjAddr: 0x1C580, symBinAddr: 0x10001EE18, symSize: 0x58 }
  - { offset: 0x56CFA, size: 0x8, addend: 0x0, symName: __ZNSt3__117__compressed_pairIPNS_12basic_stringIcNS_11char_traitsIcEENS_9allocatorIcEEEERNS4_IS6_EEE6secondB8ne180100Ev, symObjAddr: 0x1C5D8, symBinAddr: 0x10001EE70, symSize: 0x28 }
  - { offset: 0x56D20, size: 0x8, addend: 0x0, symName: __ZNSt3__122__compressed_pair_elemIRNS_9allocatorINS_12basic_stringIcNS_11char_traitsIcEENS1_IcEEEEEELi1ELb0EE5__getB8ne180100Ev, symObjAddr: 0x1C600, symBinAddr: 0x10001EE98, symSize: 0x18 }
  - { offset: 0x56D46, size: 0x8, addend: 0x0, symName: __ZNSt3__117__compressed_pairIPNS_12basic_stringIcNS_11char_traitsIcEENS_9allocatorIcEEEERNS4_IS6_EEE5firstB8ne180100Ev, symObjAddr: 0x1C618, symBinAddr: 0x10001EEB0, symSize: 0x24 }
  - { offset: 0x56D6C, size: 0x8, addend: 0x0, symName: __ZNKSt3__16vectorINS_12basic_stringIcNS_11char_traitsIcEENS_9allocatorIcEEEENS4_IS6_EEE17__annotate_deleteB8ne180100Ev, symObjAddr: 0x1C63C, symBinAddr: 0x10001EED4, symSize: 0x10 }
  - { offset: 0x56D92, size: 0x8, addend: 0x0, symName: __ZNSt3__116reverse_iteratorIPNS_12basic_stringIcNS_11char_traitsIcEENS_9allocatorIcEEEEEC1B8ne180100ES7_, symObjAddr: 0x1C778, symBinAddr: 0x10001F010, symSize: 0x34 }
  - { offset: 0x56DCA, size: 0x8, addend: 0x0, symName: __ZNKSt3__116reverse_iteratorIPNS_12basic_stringIcNS_11char_traitsIcEENS_9allocatorIcEEEEE4baseB8ne180100Ev, symObjAddr: 0x1C7AC, symBinAddr: 0x10001F044, symSize: 0x18 }
  - { offset: 0x56DF0, size: 0x8, addend: 0x0, symName: __ZNKSt3__16vectorINS_12basic_stringIcNS_11char_traitsIcEENS_9allocatorIcEEEENS4_IS6_EEE14__annotate_newB8ne180100Em, symObjAddr: 0x1C800, symBinAddr: 0x10001F098, symSize: 0x14 }
  - { offset: 0x56E25, size: 0x8, addend: 0x0, symName: __ZNSt3__129_AllocatorDestroyRangeReverseINS_9allocatorINS_12basic_stringIcNS_11char_traitsIcEENS1_IcEEEEEENS_16reverse_iteratorIPS6_EEEC1B8ne180100ERS7_RSA_SD_, symObjAddr: 0x1C860, symBinAddr: 0x10001F0F8, symSize: 0x44 }
  - { offset: 0x56E7C, size: 0x8, addend: 0x0, symName: __ZNKSt3__116reverse_iteratorIPNS_12basic_stringIcNS_11char_traitsIcEENS_9allocatorIcEEEEEdeB8ne180100Ev, symObjAddr: 0x1C90C, symBinAddr: 0x10001F1A4, symSize: 0x28 }
  - { offset: 0x56EB0, size: 0x8, addend: 0x0, symName: __ZNSt3__116reverse_iteratorIPNS_12basic_stringIcNS_11char_traitsIcEENS_9allocatorIcEEEEEppB8ne180100Ev, symObjAddr: 0x1C934, symBinAddr: 0x10001F1CC, symSize: 0x20 }
  - { offset: 0x56ED6, size: 0x8, addend: 0x0, symName: __ZNSt3__128__exception_guard_exceptionsINS_29_AllocatorDestroyRangeReverseINS_9allocatorINS_12basic_stringIcNS_11char_traitsIcEENS2_IcEEEEEENS_16reverse_iteratorIPS7_EEEEE10__completeB8ne180100Ev, symObjAddr: 0x1C954, symBinAddr: 0x10001F1EC, symSize: 0x1C }
  - { offset: 0x56EFC, size: 0x8, addend: 0x0, symName: __ZNSt3__128__exception_guard_exceptionsINS_29_AllocatorDestroyRangeReverseINS_9allocatorINS_12basic_stringIcNS_11char_traitsIcEENS2_IcEEEEEENS_16reverse_iteratorIPS7_EEEEED1B8ne180100Ev, symObjAddr: 0x1C970, symBinAddr: 0x10001F208, symSize: 0x2C }
  - { offset: 0x56F26, size: 0x8, addend: 0x0, symName: __ZNSt3__128__exception_guard_exceptionsINS_29_AllocatorDestroyRangeReverseINS_9allocatorINS_12basic_stringIcNS_11char_traitsIcEENS2_IcEEEEEENS_16reverse_iteratorIPS7_EEEEEC1B8ne180100ESC_, symObjAddr: 0x1C99C, symBinAddr: 0x10001F234, symSize: 0x34 }
  - { offset: 0x56F5F, size: 0x8, addend: 0x0, symName: __ZNSt3__128__exception_guard_exceptionsINS_29_AllocatorDestroyRangeReverseINS_9allocatorINS_12basic_stringIcNS_11char_traitsIcEENS2_IcEEEEEENS_16reverse_iteratorIPS7_EEEEEC2B8ne180100ESC_, symObjAddr: 0x1C9D0, symBinAddr: 0x10001F268, symSize: 0x30 }
  - { offset: 0x56F98, size: 0x8, addend: 0x0, symName: __ZNSt3__129_AllocatorDestroyRangeReverseINS_9allocatorINS_12basic_stringIcNS_11char_traitsIcEENS1_IcEEEEEENS_16reverse_iteratorIPS6_EEEC2B8ne180100ERS7_RSA_SD_, symObjAddr: 0x1CA00, symBinAddr: 0x10001F298, symSize: 0x38 }
  - { offset: 0x56FF5, size: 0x8, addend: 0x0, symName: __ZNSt3__119__to_address_helperINS_16reverse_iteratorIPNS_12basic_stringIcNS_11char_traitsIcEENS_9allocatorIcEEEEEEvE6__callB8ne180100ERKS9_, symObjAddr: 0x1CA38, symBinAddr: 0x10001F2D0, symSize: 0x38 }
  - { offset: 0x57018, size: 0x8, addend: 0x0, symName: __ZNKSt3__116reverse_iteratorIPNS_12basic_stringIcNS_11char_traitsIcEENS_9allocatorIcEEEEEptB8ne180100Ev, symObjAddr: 0x1CA70, symBinAddr: 0x10001F308, symSize: 0x24 }
  - { offset: 0x5703E, size: 0x8, addend: 0x0, symName: __ZNSt3__128__exception_guard_exceptionsINS_29_AllocatorDestroyRangeReverseINS_9allocatorINS_12basic_stringIcNS_11char_traitsIcEENS2_IcEEEEEENS_16reverse_iteratorIPS7_EEEEED2B8ne180100Ev, symObjAddr: 0x1CA94, symBinAddr: 0x10001F32C, symSize: 0x50 }
  - { offset: 0x57068, size: 0x8, addend: 0x0, symName: __ZNKSt3__129_AllocatorDestroyRangeReverseINS_9allocatorINS_12basic_stringIcNS_11char_traitsIcEENS1_IcEEEEEENS_16reverse_iteratorIPS6_EEEclB8ne180100Ev, symObjAddr: 0x1CAE4, symBinAddr: 0x10001F37C, symSize: 0xB0 }
  - { offset: 0x5708F, size: 0x8, addend: 0x0, symName: __ZNSt3__116reverse_iteratorINS0_IPNS_12basic_stringIcNS_11char_traitsIcEENS_9allocatorIcEEEEEEEC1B8ne180100ES8_, symObjAddr: 0x1CC04, symBinAddr: 0x10001F49C, symSize: 0x3C }
  - { offset: 0x570C7, size: 0x8, addend: 0x0, symName: __ZNSt3__116allocator_traitsINS_9allocatorINS_12basic_stringIcNS_11char_traitsIcEENS1_IcEEEEEEE7destroyB8ne180100IS6_vEEvRS7_PT_, symObjAddr: 0x1CC9C, symBinAddr: 0x10001F534, symSize: 0x2C }
  - { offset: 0x57104, size: 0x8, addend: 0x0, symName: __ZNSt3__116reverse_iteratorINS0_IPNS_12basic_stringIcNS_11char_traitsIcEENS_9allocatorIcEEEEEEEppB8ne180100Ev, symObjAddr: 0x1CCEC, symBinAddr: 0x10001F584, symSize: 0x30 }
  - { offset: 0x5712A, size: 0x8, addend: 0x0, symName: __ZNKSt3__116reverse_iteratorINS0_IPNS_12basic_stringIcNS_11char_traitsIcEENS_9allocatorIcEEEEEEE4baseB8ne180100Ev, symObjAddr: 0x1CD1C, symBinAddr: 0x10001F5B4, symSize: 0x24 }
  - { offset: 0x57150, size: 0x8, addend: 0x0, symName: __ZNSt3__19allocatorINS_12basic_stringIcNS_11char_traitsIcEENS0_IcEEEEE7destroyB8ne180100EPS5_, symObjAddr: 0x1CD40, symBinAddr: 0x10001F5D8, symSize: 0x28 }
  - { offset: 0x5718A, size: 0x8, addend: 0x0, symName: __ZNSt3__119__to_address_helperINS_16reverse_iteratorINS1_IPNS_12basic_stringIcNS_11char_traitsIcEENS_9allocatorIcEEEEEEEEvE6__callB8ne180100ERKSA_, symObjAddr: 0x1CD68, symBinAddr: 0x10001F600, symSize: 0x38 }
  - { offset: 0x571AD, size: 0x8, addend: 0x0, symName: __ZNKSt3__116reverse_iteratorINS0_IPNS_12basic_stringIcNS_11char_traitsIcEENS_9allocatorIcEEEEEEEptB8ne180100Ev, symObjAddr: 0x1CDA0, symBinAddr: 0x10001F638, symSize: 0x24 }
  - { offset: 0x571D3, size: 0x8, addend: 0x0, symName: __ZNKSt3__116reverse_iteratorINS0_IPNS_12basic_stringIcNS_11char_traitsIcEENS_9allocatorIcEEEEEEEdeB8ne180100Ev, symObjAddr: 0x1CDC4, symBinAddr: 0x10001F65C, symSize: 0x34 }
  - { offset: 0x57207, size: 0x8, addend: 0x0, symName: __ZNSt3__116reverse_iteratorIPNS_12basic_stringIcNS_11char_traitsIcEENS_9allocatorIcEEEEEmmB8ne180100Ev, symObjAddr: 0x1CDF8, symBinAddr: 0x10001F690, symSize: 0x20 }
  - { offset: 0x5722D, size: 0x8, addend: 0x0, symName: __ZNSt3__116reverse_iteratorINS0_IPNS_12basic_stringIcNS_11char_traitsIcEENS_9allocatorIcEEEEEEEC2B8ne180100ES8_, symObjAddr: 0x1CE18, symBinAddr: 0x10001F6B0, symSize: 0x2C }
  - { offset: 0x57265, size: 0x8, addend: 0x0, symName: __ZNSt3__116reverse_iteratorIPNS_12basic_stringIcNS_11char_traitsIcEENS_9allocatorIcEEEEEC2B8ne180100ES7_, symObjAddr: 0x1CE44, symBinAddr: 0x10001F6DC, symSize: 0x28 }
  - { offset: 0x5729D, size: 0x8, addend: 0x0, symName: __ZNSt3__114__split_bufferINS_12basic_stringIcNS_11char_traitsIcEENS_9allocatorIcEEEERNS4_IS6_EEED2Ev, symObjAddr: 0x1CE6C, symBinAddr: 0x10001F704, symSize: 0x84 }
  - { offset: 0x572C9, size: 0x8, addend: 0x0, symName: __ZNSt3__114__split_bufferINS_12basic_stringIcNS_11char_traitsIcEENS_9allocatorIcEEEERNS4_IS6_EEE5clearB8ne180100Ev, symObjAddr: 0x1CEF0, symBinAddr: 0x10001F788, symSize: 0x28 }
  - { offset: 0x572EF, size: 0x8, addend: 0x0, symName: __ZNSt3__116allocator_traitsINS_9allocatorINS_12basic_stringIcNS_11char_traitsIcEENS1_IcEEEEEEE10deallocateB8ne180100ERS7_PS6_m, symObjAddr: 0x1CF18, symBinAddr: 0x10001F7B0, symSize: 0x34 }
  - { offset: 0x57331, size: 0x8, addend: 0x0, symName: __ZNKSt3__114__split_bufferINS_12basic_stringIcNS_11char_traitsIcEENS_9allocatorIcEEEERNS4_IS6_EEE8capacityB8ne180100Ev, symObjAddr: 0x1CF4C, symBinAddr: 0x10001F7E4, symSize: 0x40 }
  - { offset: 0x57357, size: 0x8, addend: 0x0, symName: __ZNSt3__114__split_bufferINS_12basic_stringIcNS_11char_traitsIcEENS_9allocatorIcEEEERNS4_IS6_EEE17__destruct_at_endB8ne180100EPS6_, symObjAddr: 0x1CF8C, symBinAddr: 0x10001F824, symSize: 0x2C }
  - { offset: 0x5738B, size: 0x8, addend: 0x0, symName: __ZNSt3__114__split_bufferINS_12basic_stringIcNS_11char_traitsIcEENS_9allocatorIcEEEERNS4_IS6_EEE17__destruct_at_endB8ne180100EPS6_NS_17integral_constantIbLb0EEE, symObjAddr: 0x1CFB8, symBinAddr: 0x10001F850, symSize: 0x7C }
  - { offset: 0x573CB, size: 0x8, addend: 0x0, symName: __ZNSt3__19allocatorINS_12basic_stringIcNS_11char_traitsIcEENS0_IcEEEEE10deallocateB8ne180100EPS5_m, symObjAddr: 0x1D034, symBinAddr: 0x10001F8CC, symSize: 0x44 }
  - { offset: 0x5740D, size: 0x8, addend: 0x0, symName: __ZNKSt3__114__split_bufferINS_12basic_stringIcNS_11char_traitsIcEENS_9allocatorIcEEEERNS4_IS6_EEE9__end_capB8ne180100Ev, symObjAddr: 0x1D078, symBinAddr: 0x10001F910, symSize: 0x28 }
  - { offset: 0x57433, size: 0x8, addend: 0x0, symName: __ZNKSt3__117__compressed_pairIPNS_12basic_stringIcNS_11char_traitsIcEENS_9allocatorIcEEEERNS4_IS6_EEE5firstB8ne180100Ev, symObjAddr: 0x1D0A0, symBinAddr: 0x10001F938, symSize: 0x24 }
  - { offset: 0x57459, size: 0x8, addend: 0x0, symName: __ZNSt3__16vectorINS_12basic_stringIcNS_11char_traitsIcEENS_9allocatorIcEEEENS4_IS6_EEE22__construct_one_at_endB8ne180100IJRKS6_EEEvDpOT_, symObjAddr: 0x1D0C4, symBinAddr: 0x10001F95C, symSize: 0x90 }
  - { offset: 0x574A8, size: 0x8, addend: 0x0, symName: __ZNSt3__16vectorINS_12basic_stringIcNS_11char_traitsIcEENS_9allocatorIcEEEENS4_IS6_EEE21__push_back_slow_pathIRKS6_EEPS6_OT_, symObjAddr: 0x1D154, symBinAddr: 0x10001F9EC, symSize: 0xE8 }
  - { offset: 0x57504, size: 0x8, addend: 0x0, symName: __ZNSt3__116allocator_traitsINS_9allocatorINS_12basic_stringIcNS_11char_traitsIcEENS1_IcEEEEEEE9constructB8ne180100IS6_JRKS6_EvEEvRS7_PT_DpOT0_, symObjAddr: 0x1D23C, symBinAddr: 0x10001FAD4, symSize: 0x34 }
  - { offset: 0x5755B, size: 0x8, addend: 0x0, symName: __ZNSt3__19allocatorINS_12basic_stringIcNS_11char_traitsIcEENS0_IcEEEEE9constructB8ne180100IS5_JRKS5_EEEvPT_DpOT0_, symObjAddr: 0x1D270, symBinAddr: 0x10001FB08, symSize: 0x30 }
  - { offset: 0x575B1, size: 0x8, addend: 0x0, symName: __ZNSt3__16vectorINS_12basic_stringIcNS_11char_traitsIcEENS_9allocatorIcEEEENS4_IS6_EEE11__make_iterB8ne180100EPS6_, symObjAddr: 0x1D2A0, symBinAddr: 0x10001FB38, symSize: 0x30 }
  - { offset: 0x575E6, size: 0x8, addend: 0x0, symName: __ZNSt3__111__wrap_iterIPNS_12basic_stringIcNS_11char_traitsIcEENS_9allocatorIcEEEEEC1B8ne180100ES7_, symObjAddr: 0x1D2D0, symBinAddr: 0x10001FB68, symSize: 0x34 }
  - { offset: 0x5761E, size: 0x8, addend: 0x0, symName: __ZNSt3__111__wrap_iterIPNS_12basic_stringIcNS_11char_traitsIcEENS_9allocatorIcEEEEEC2B8ne180100ES7_, symObjAddr: 0x1D304, symBinAddr: 0x10001FB9C, symSize: 0x20 }
  - { offset: 0x57656, size: 0x8, addend: 0x0, symName: __ZNSt3__19basic_iosIcNS_11char_traitsIcEEEC2B8ne180100Ev, symObjAddr: 0x1D324, symBinAddr: 0x10001FBBC, symSize: 0x3C }
  - { offset: 0x57680, size: 0x8, addend: 0x0, symName: __ZNSt3__113basic_istreamIcNS_11char_traitsIcEEEC2B8ne180100EPNS_15basic_streambufIcS2_EE, symObjAddr: 0x1D360, symBinAddr: 0x10001FBF8, symSize: 0x64 }
  - { offset: 0x576C5, size: 0x8, addend: 0x0, symName: __ZNSt3__18ios_baseC2B8ne180100Ev, symObjAddr: 0x1D3C4, symBinAddr: 0x10001FC5C, symSize: 0x24 }
  - { offset: 0x576EF, size: 0x8, addend: 0x0, symName: __ZNSt3__19basic_iosIcNS_11char_traitsIcEEE4initB8ne180100EPNS_15basic_streambufIcS2_EE, symObjAddr: 0x1D3E8, symBinAddr: 0x10001FC80, symSize: 0x44 }
  - { offset: 0x57726, size: 0x8, addend: 0x0, symName: __ZNKSt3__113basic_filebufIcNS_11char_traitsIcEEE7is_openEv, symObjAddr: 0x1D42C, symBinAddr: 0x10001FCC4, symSize: 0x20 }
  - { offset: 0x5774E, size: 0x8, addend: 0x0, symName: __ZNKSt3__18ios_base3eofB8ne180100Ev, symObjAddr: 0x1D44C, symBinAddr: 0x10001FCE4, symSize: 0x20 }
  - { offset: 0x57799, size: 0x8, addend: 0x0, symName: __ZNKSt3__113basic_istreamIcNS_11char_traitsIcEEE6sentrycvbB8ne180100Ev, symObjAddr: 0x1D690, symBinAddr: 0x10001FF28, symSize: 0x1C }
  - { offset: 0x577BF, size: 0x8, addend: 0x0, symName: __ZNSt3__112basic_stringIcNS_11char_traitsIcEENS_9allocatorIcEEE5clearB8ne180100Ev, symObjAddr: 0x1D6AC, symBinAddr: 0x10001FF44, symSize: 0x94 }
  - { offset: 0x577F6, size: 0x8, addend: 0x0, symName: __ZNSt3__115basic_streambufIcNS_11char_traitsIcEEE6sbumpcB8ne180100Ev, symObjAddr: 0x1D740, symBinAddr: 0x10001FFD8, symSize: 0x74 }
  - { offset: 0x5781C, size: 0x8, addend: 0x0, symName: __ZNSt3__111char_traitsIcE12to_char_typeB8ne180100Ei, symObjAddr: 0x1D7B4, symBinAddr: 0x10002004C, symSize: 0x18 }
  - { offset: 0x57840, size: 0x8, addend: 0x0, symName: __ZNKSt3__112basic_stringIcNS_11char_traitsIcEENS_9allocatorIcEEE8max_sizeB8ne180100Ev, symObjAddr: 0x1D7CC, symBinAddr: 0x100020064, symSize: 0xA8 }
  - { offset: 0x57893, size: 0x8, addend: 0x0, symName: __ZNSt3__18ios_base18__setstate_nothrowB8ne180100Ej, symObjAddr: 0x1D874, symBinAddr: 0x10002010C, symSize: 0x5C }
  - { offset: 0x578C8, size: 0x8, addend: 0x0, symName: __ZNKSt3__19basic_iosIcNS_11char_traitsIcEEE10exceptionsB8ne180100Ev, symObjAddr: 0x1D8D0, symBinAddr: 0x100020168, symSize: 0x24 }
  - { offset: 0x578EE, size: 0x8, addend: 0x0, symName: __ZNSt3__112basic_stringIcNS_11char_traitsIcEENS_9allocatorIcEEE15__set_long_sizeB8ne180100Em, symObjAddr: 0x1D8F4, symBinAddr: 0x10002018C, symSize: 0x38 }
  - { offset: 0x57923, size: 0x8, addend: 0x0, symName: __ZNSt3__111char_traitsIcE11to_int_typeB8ne180100Ec, symObjAddr: 0x1D92C, symBinAddr: 0x1000201C4, symSize: 0x14 }
  - { offset: 0x57952, size: 0x8, addend: 0x0, symName: __ZNSt3__116allocator_traitsINS_9allocatorIcEEE8max_sizeB8ne180100IS2_vEEmRKS2_, symObjAddr: 0x1D940, symBinAddr: 0x1000201D8, symSize: 0x24 }
  - { offset: 0x57980, size: 0x8, addend: 0x0, symName: __ZNKSt3__112basic_stringIcNS_11char_traitsIcEENS_9allocatorIcEEE7__allocB8ne180100Ev, symObjAddr: 0x1D964, symBinAddr: 0x1000201FC, symSize: 0x24 }
  - { offset: 0x579A6, size: 0x8, addend: 0x0, symName: __ZNSt3__114numeric_limitsImE3maxB8ne180100Ev, symObjAddr: 0x1D988, symBinAddr: 0x100020220, symSize: 0x14 }
  - { offset: 0x579BA, size: 0x8, addend: 0x0, symName: __ZNKSt3__19allocatorIcE8max_sizeB8ne180100Ev, symObjAddr: 0x1D99C, symBinAddr: 0x100020234, symSize: 0x14 }
  - { offset: 0x579E0, size: 0x8, addend: 0x0, symName: __ZNKSt3__117__compressed_pairINS_12basic_stringIcNS_11char_traitsIcEENS_9allocatorIcEEE5__repES5_E6secondB8ne180100Ev, symObjAddr: 0x1D9B0, symBinAddr: 0x100020248, symSize: 0x24 }
  - { offset: 0x57A06, size: 0x8, addend: 0x0, symName: __ZNKSt3__122__compressed_pair_elemINS_9allocatorIcEELi1ELb1EE5__getB8ne180100Ev, symObjAddr: 0x1D9D4, symBinAddr: 0x10002026C, symSize: 0x14 }
  - { offset: 0x57A2C, size: 0x8, addend: 0x0, symName: __ZNSt3__123__libcpp_numeric_limitsImLb1EE3maxB8ne180100Ev, symObjAddr: 0x1D9E8, symBinAddr: 0x100020280, symSize: 0x8 }
  - { offset: 0x57A40, size: 0x8, addend: 0x0, symName: __ZNKSt3__18ios_base10exceptionsB8ne180100Ev, symObjAddr: 0x1D9F0, symBinAddr: 0x100020288, symSize: 0x18 }
  - { offset: 0x57A68, size: 0x8, addend: 0x0, symName: __ZNSt3__16vectorINS_12basic_stringIcNS_11char_traitsIcEENS_9allocatorIcEEEENS4_IS6_EEEC2B8ne180100Ev, symObjAddr: 0x1DA08, symBinAddr: 0x1000202A0, symSize: 0x4C }
  - { offset: 0x57A92, size: 0x8, addend: 0x0, symName: __ZNSt3__117__compressed_pairIPNS_12basic_stringIcNS_11char_traitsIcEENS_9allocatorIcEEEENS4_IS6_EEEC1B8ne180100IDnNS_18__default_init_tagEEEOT_OT0_, symObjAddr: 0x1DA54, symBinAddr: 0x1000202EC, symSize: 0x3C }
  - { offset: 0x57AEA, size: 0x8, addend: 0x0, symName: __ZNSt3__117__compressed_pairIPNS_12basic_stringIcNS_11char_traitsIcEENS_9allocatorIcEEEENS4_IS6_EEEC2B8ne180100IDnNS_18__default_init_tagEEEOT_OT0_, symObjAddr: 0x1DA90, symBinAddr: 0x100020328, symSize: 0x40 }
  - { offset: 0x57B42, size: 0x8, addend: 0x0, symName: __ZNSt3__122__compressed_pair_elemINS_9allocatorINS_12basic_stringIcNS_11char_traitsIcEENS1_IcEEEEEELi1ELb1EEC2B8ne180100ENS_18__default_init_tagE, symObjAddr: 0x1DAD0, symBinAddr: 0x100020368, symSize: 0x2C }
  - { offset: 0x57B76, size: 0x8, addend: 0x0, symName: __ZNSt3__19allocatorINS_12basic_stringIcNS_11char_traitsIcEENS0_IcEEEEEC2B8ne180100Ev, symObjAddr: 0x1DAFC, symBinAddr: 0x100020394, symSize: 0x2C }
  - { offset: 0x57BA0, size: 0x8, addend: 0x0, symName: __ZNSt3__116__non_trivial_ifILb1ENS_9allocatorINS_12basic_stringIcNS_11char_traitsIcEENS1_IcEEEEEEEC2B8ne180100Ev, symObjAddr: 0x1DB28, symBinAddr: 0x1000203C0, symSize: 0x14 }
  - { offset: 0x57BCA, size: 0x8, addend: 0x0, symName: __ZNSt3__16vectorINS_12basic_stringIcNS_11char_traitsIcEENS_9allocatorIcEEEENS4_IS6_EEED2B8ne180100Ev, symObjAddr: 0x1DB3C, symBinAddr: 0x1000203D4, symSize: 0x44 }
  - { offset: 0x57BF4, size: 0x8, addend: 0x0, symName: __ZNSt3__16vectorINS_12basic_stringIcNS_11char_traitsIcEENS_9allocatorIcEEEENS4_IS6_EEE16__destroy_vectorC1B8ne180100ERS8_, symObjAddr: 0x1DB80, symBinAddr: 0x100020418, symSize: 0x34 }
  - { offset: 0x57C2D, size: 0x8, addend: 0x0, symName: __ZNSt3__16vectorINS_12basic_stringIcNS_11char_traitsIcEENS_9allocatorIcEEEENS4_IS6_EEE16__destroy_vectorclB8ne180100Ev, symObjAddr: 0x1DBB4, symBinAddr: 0x10002044C, symSize: 0x88 }
  - { offset: 0x57C53, size: 0x8, addend: 0x0, symName: __ZNSt3__16vectorINS_12basic_stringIcNS_11char_traitsIcEENS_9allocatorIcEEEENS4_IS6_EEE16__destroy_vectorC2B8ne180100ERS8_, symObjAddr: 0x1DC3C, symBinAddr: 0x1000204D4, symSize: 0x20 }
  - { offset: 0x57C8C, size: 0x8, addend: 0x0, symName: __ZNSt3__16vectorINS_12basic_stringIcNS_11char_traitsIcEENS_9allocatorIcEEEENS4_IS6_EEE7__clearB8ne180100Ev, symObjAddr: 0x1DC5C, symBinAddr: 0x1000204F4, symSize: 0x28 }
  - { offset: 0x57CB2, size: 0x8, addend: 0x0, symName: __ZNSt3__16vectorINS_12basic_stringIcNS_11char_traitsIcEENS_9allocatorIcEEEENS4_IS6_EEE22__base_destruct_at_endB8ne180100EPS6_, symObjAddr: 0x1DC84, symBinAddr: 0x10002051C, symSize: 0x88 }
  - { offset: 0x57CF6, size: 0x8, addend: 0x0, symName: __ZNSt3__114basic_iostreamIcNS_11char_traitsIcEEEC2B8ne180100EPNS_15basic_streambufIcS2_EE, symObjAddr: 0x1DD0C, symBinAddr: 0x1000205A4, symSize: 0xAC }
  - { offset: 0x57D3C, size: 0x8, addend: 0x0, symName: __ZNSt3__113basic_filebufIcNS_11char_traitsIcEEE4openERKNS_12basic_stringIcS2_NS_9allocatorIcEEEEj, symObjAddr: 0x1DDB8, symBinAddr: 0x100020650, symSize: 0x44 }
  - { offset: 0x57D82, size: 0x8, addend: 0x0, symName: __ZNSt3__113basic_ostreamIcNS_11char_traitsIcEEEC2B8ne180100Ev, symObjAddr: 0x1DDFC, symBinAddr: 0x100020694, symSize: 0x34 }
  - { offset: 0x57DB9, size: 0x8, addend: 0x0, symName: __ZNSt3__16vectorINS_10shared_ptrI4NodeEENS_9allocatorIS3_EEE22__construct_one_at_endB8ne180100IJS3_EEEvDpOT_, symObjAddr: 0x1DE30, symBinAddr: 0x1000206C8, symSize: 0x90 }
  - { offset: 0x57E08, size: 0x8, addend: 0x0, symName: __ZNSt3__16vectorINS_10shared_ptrI4NodeEENS_9allocatorIS3_EEE21__push_back_slow_pathIS3_EEPS3_OT_, symObjAddr: 0x1DEC0, symBinAddr: 0x100020758, symSize: 0xE8 }
  - { offset: 0x57E64, size: 0x8, addend: 0x0, symName: __ZNSt3__115basic_streambufIcNS_11char_traitsIcEEE5sgetcB8ne180100Ev, symObjAddr: 0x1DFA8, symBinAddr: 0x100020840, symSize: 0x6C }
  - { offset: 0x57E8A, size: 0x8, addend: 0x0, symName: __ZNKSt3__15ctypeIcE2isB8ne180100Ejc, symObjAddr: 0x1E014, symBinAddr: 0x1000208AC, symSize: 0x74 }
  - { offset: 0x57ECD, size: 0x8, addend: 0x0, symName: __Z7isasciii, symObjAddr: 0x1E088, symBinAddr: 0x100020920, symSize: 0x20 }
  - { offset: 0x57EFA, size: 0x8, addend: 0x0, symName: __ZNKSt3__19basic_iosIcNS_11char_traitsIcEEE4failB8ne180100Ev, symObjAddr: 0x1E0A8, symBinAddr: 0x100020940, symSize: 0x24 }
  - { offset: 0x57F20, size: 0x8, addend: 0x0, symName: __ZNKSt3__18ios_base4failB8ne180100Ev, symObjAddr: 0x1E0CC, symBinAddr: 0x100020964, symSize: 0x24 }
  - { offset: 0x57F48, size: 0x8, addend: 0x0, symName: __ZNSt3__120__shared_ptr_emplaceI4NodeNS_9allocatorIS1_EEEC1B8ne180100IJddRmES3_TnNS_9enable_ifIXntsr7is_sameINT0_10value_typeENS_19__for_overwrite_tagEEE5valueEiE4typeELi0EEES3_DpOT_, symObjAddr: 0x1E198, symBinAddr: 0x100020A30, symSize: 0x44 }
  - { offset: 0x57FD2, size: 0x8, addend: 0x0, symName: __ZNSt3__120__shared_ptr_emplaceI4NodeNS_9allocatorIS1_EEEC2B8ne180100IJddRmES3_TnNS_9enable_ifIXntsr7is_sameINT0_10value_typeENS_19__for_overwrite_tagEEE5valueEiE4typeELi0EEES3_DpOT_, symObjAddr: 0x1E1DC, symBinAddr: 0x100020A74, symSize: 0xCC }
  - { offset: 0x5807D, size: 0x8, addend: 0x0, symName: __ZNSt3__116allocator_traitsINS_9allocatorI4NodeEEE9constructB8ne180100IS2_JddRmEvEEvRS3_PT_DpOT0_, symObjAddr: 0x1E2A8, symBinAddr: 0x100020B40, symSize: 0x44 }
  - { offset: 0x580FC, size: 0x8, addend: 0x0, symName: __ZNSt3__19allocatorI4NodeE9constructB8ne180100IS1_JddRmEEEvPT_DpOT0_, symObjAddr: 0x1E2EC, symBinAddr: 0x100020B84, symSize: 0x4C }
  - { offset: 0x58178, size: 0x8, addend: 0x0, symName: __ZN4NodeC1Eddm, symObjAddr: 0x1E338, symBinAddr: 0x100020BD0, symSize: 0x44 }
  - { offset: 0x581CC, size: 0x8, addend: 0x0, symName: __ZN4NodeC2Eddm, symObjAddr: 0x1E37C, symBinAddr: 0x100020C14, symSize: 0x6C }
  - { offset: 0x58220, size: 0x8, addend: 0x0, symName: __ZNSt3__16vectorIcNS_9allocatorIcEEEC2Em, symObjAddr: 0x1E3E8, symBinAddr: 0x100020C80, symSize: 0xD0 }
  - { offset: 0x58270, size: 0x8, addend: 0x0, symName: __ZNSt3__117__compressed_pairIPcNS_9allocatorIcEEEC1B8ne180100IDnNS_18__default_init_tagEEEOT_OT0_, symObjAddr: 0x1E4B8, symBinAddr: 0x100020D50, symSize: 0x3C }
  - { offset: 0x582C8, size: 0x8, addend: 0x0, symName: __ZNSt3__16vectorIcNS_9allocatorIcEEE16__destroy_vectorC1B8ne180100ERS3_, symObjAddr: 0x1E534, symBinAddr: 0x100020DCC, symSize: 0x34 }
  - { offset: 0x58301, size: 0x8, addend: 0x0, symName: __ZNSt3__16vectorIcNS_9allocatorIcEEE11__vallocateB8ne180100Em, symObjAddr: 0x1E568, symBinAddr: 0x100020E00, symSize: 0xA8 }
  - { offset: 0x58345, size: 0x8, addend: 0x0, symName: __ZNSt3__16vectorIcNS_9allocatorIcEEE18__construct_at_endEm, symObjAddr: 0x1E610, symBinAddr: 0x100020EA8, symSize: 0xC4 }
  - { offset: 0x583B8, size: 0x8, addend: 0x0, symName: __ZNSt3__128__exception_guard_exceptionsINS_6vectorIcNS_9allocatorIcEEE16__destroy_vectorEE10__completeB8ne180100Ev, symObjAddr: 0x1E6D4, symBinAddr: 0x100020F6C, symSize: 0x1C }
  - { offset: 0x583DE, size: 0x8, addend: 0x0, symName: __ZNSt3__128__exception_guard_exceptionsINS_6vectorIcNS_9allocatorIcEEE16__destroy_vectorEED1B8ne180100Ev, symObjAddr: 0x1E6F0, symBinAddr: 0x100020F88, symSize: 0x2C }
  - { offset: 0x58408, size: 0x8, addend: 0x0, symName: __ZNSt3__117__compressed_pairIPcNS_9allocatorIcEEEC2B8ne180100IDnNS_18__default_init_tagEEEOT_OT0_, symObjAddr: 0x1E71C, symBinAddr: 0x100020FB4, symSize: 0x40 }
  - { offset: 0x58460, size: 0x8, addend: 0x0, symName: __ZNSt3__122__compressed_pair_elemIPcLi0ELb0EEC2B8ne180100IDnvEEOT_, symObjAddr: 0x1E75C, symBinAddr: 0x100020FF4, symSize: 0x1C }
  - { offset: 0x584A2, size: 0x8, addend: 0x0, symName: __ZNSt3__128__exception_guard_exceptionsINS_6vectorIcNS_9allocatorIcEEE16__destroy_vectorEEC1B8ne180100ES5_, symObjAddr: 0x1E778, symBinAddr: 0x100021010, symSize: 0x34 }
  - { offset: 0x584DA, size: 0x8, addend: 0x0, symName: __ZNSt3__128__exception_guard_exceptionsINS_6vectorIcNS_9allocatorIcEEE16__destroy_vectorEEC2B8ne180100ES5_, symObjAddr: 0x1E7AC, symBinAddr: 0x100021044, symSize: 0x24 }
  - { offset: 0x58512, size: 0x8, addend: 0x0, symName: __ZNSt3__16vectorIcNS_9allocatorIcEEE16__destroy_vectorC2B8ne180100ERS3_, symObjAddr: 0x1E7D0, symBinAddr: 0x100021068, symSize: 0x20 }
  - { offset: 0x5854B, size: 0x8, addend: 0x0, symName: __ZNKSt3__16vectorIcNS_9allocatorIcEEE8max_sizeEv, symObjAddr: 0x1E7F0, symBinAddr: 0x100021088, symSize: 0x60 }
  - { offset: 0x58573, size: 0x8, addend: 0x0, symName: __ZNKSt3__16vectorIcNS_9allocatorIcEEE20__throw_length_errorB8ne180100Ev, symObjAddr: 0x1E850, symBinAddr: 0x1000210E8, symSize: 0x1C }
  - { offset: 0x58599, size: 0x8, addend: 0x0, symName: __ZNSt3__16vectorIcNS_9allocatorIcEEE7__allocB8ne180100Ev, symObjAddr: 0x1E8AC, symBinAddr: 0x100021144, symSize: 0x28 }
  - { offset: 0x585BF, size: 0x8, addend: 0x0, symName: __ZNSt3__16vectorIcNS_9allocatorIcEEE9__end_capB8ne180100Ev, symObjAddr: 0x1E8D4, symBinAddr: 0x10002116C, symSize: 0x28 }
  - { offset: 0x585E5, size: 0x8, addend: 0x0, symName: __ZNKSt3__16vectorIcNS_9allocatorIcEEE14__annotate_newB8ne180100Em, symObjAddr: 0x1E8FC, symBinAddr: 0x100021194, symSize: 0x14 }
  - { offset: 0x5861A, size: 0x8, addend: 0x0, symName: __ZNKSt3__16vectorIcNS_9allocatorIcEEE7__allocB8ne180100Ev, symObjAddr: 0x1E910, symBinAddr: 0x1000211A8, symSize: 0x28 }
  - { offset: 0x58640, size: 0x8, addend: 0x0, symName: __ZNKSt3__117__compressed_pairIPcNS_9allocatorIcEEE6secondB8ne180100Ev, symObjAddr: 0x1E938, symBinAddr: 0x1000211D0, symSize: 0x24 }
  - { offset: 0x58666, size: 0x8, addend: 0x0, symName: __ZNSt3__19allocatorIcE8allocateB8ne180100Em, symObjAddr: 0x1E95C, symBinAddr: 0x1000211F4, symSize: 0x54 }
  - { offset: 0x5869A, size: 0x8, addend: 0x0, symName: __ZNSt3__117__compressed_pairIPcNS_9allocatorIcEEE6secondB8ne180100Ev, symObjAddr: 0x1E9B0, symBinAddr: 0x100021248, symSize: 0x24 }
  - { offset: 0x586C0, size: 0x8, addend: 0x0, symName: __ZNSt3__117__compressed_pairIPcNS_9allocatorIcEEE5firstB8ne180100Ev, symObjAddr: 0x1E9D4, symBinAddr: 0x10002126C, symSize: 0x24 }
  - { offset: 0x586E6, size: 0x8, addend: 0x0, symName: __ZNSt3__122__compressed_pair_elemIPcLi0ELb0EE5__getB8ne180100Ev, symObjAddr: 0x1E9F8, symBinAddr: 0x100021290, symSize: 0x14 }
  - { offset: 0x58728, size: 0x8, addend: 0x0, symName: __ZNSt3__16vectorIcNS_9allocatorIcEEE21_ConstructTransactionC1B8ne180100ERS3_m, symObjAddr: 0x1EA0C, symBinAddr: 0x1000212A4, symSize: 0x3C }
  - { offset: 0x58770, size: 0x8, addend: 0x0, symName: __ZNSt3__116allocator_traitsINS_9allocatorIcEEE9constructB8ne180100IcJEvEEvRS2_PT_DpOT0_, symObjAddr: 0x1EA48, symBinAddr: 0x1000212E0, symSize: 0x2C }
  - { offset: 0x587B2, size: 0x8, addend: 0x0, symName: __ZNSt3__16vectorIcNS_9allocatorIcEEE21_ConstructTransactionD1B8ne180100Ev, symObjAddr: 0x1EA74, symBinAddr: 0x10002130C, symSize: 0x2C }
  - { offset: 0x587DC, size: 0x8, addend: 0x0, symName: __ZNSt3__16vectorIcNS_9allocatorIcEEE21_ConstructTransactionC2B8ne180100ERS3_m, symObjAddr: 0x1EAA0, symBinAddr: 0x100021338, symSize: 0x44 }
  - { offset: 0x58824, size: 0x8, addend: 0x0, symName: __ZNSt3__19allocatorIcE9constructB8ne180100IcJEEEvPT_DpOT0_, symObjAddr: 0x1EAE4, symBinAddr: 0x10002137C, symSize: 0x1C }
  - { offset: 0x58866, size: 0x8, addend: 0x0, symName: __ZNSt3__16vectorIcNS_9allocatorIcEEE21_ConstructTransactionD2B8ne180100Ev, symObjAddr: 0x1EB00, symBinAddr: 0x100021398, symSize: 0x20 }
  - { offset: 0x58890, size: 0x8, addend: 0x0, symName: __ZNSt3__128__exception_guard_exceptionsINS_6vectorIcNS_9allocatorIcEEE16__destroy_vectorEED2B8ne180100Ev, symObjAddr: 0x1EB20, symBinAddr: 0x1000213B8, symSize: 0x50 }
  - { offset: 0x588BA, size: 0x8, addend: 0x0, symName: __ZNSt3__16vectorIcNS_9allocatorIcEEE16__destroy_vectorclB8ne180100Ev, symObjAddr: 0x1EB70, symBinAddr: 0x100021408, symSize: 0x88 }
  - { offset: 0x588E0, size: 0x8, addend: 0x0, symName: __ZNSt3__16vectorIcNS_9allocatorIcEEE7__clearB8ne180100Ev, symObjAddr: 0x1EBF8, symBinAddr: 0x100021490, symSize: 0x28 }
  - { offset: 0x58906, size: 0x8, addend: 0x0, symName: __ZNKSt3__16vectorIcNS_9allocatorIcEEE17__annotate_deleteB8ne180100Ev, symObjAddr: 0x1EC20, symBinAddr: 0x1000214B8, symSize: 0x10 }
  - { offset: 0x5892C, size: 0x8, addend: 0x0, symName: __ZNKSt3__16vectorIcNS_9allocatorIcEEE8capacityB8ne180100Ev, symObjAddr: 0x1EC30, symBinAddr: 0x1000214C8, symSize: 0x38 }
  - { offset: 0x58952, size: 0x8, addend: 0x0, symName: __ZNSt3__16vectorIcNS_9allocatorIcEEE22__base_destruct_at_endB8ne180100EPc, symObjAddr: 0x1EC68, symBinAddr: 0x100021500, symSize: 0x88 }
  - { offset: 0x58996, size: 0x8, addend: 0x0, symName: __ZNSt3__116allocator_traitsINS_9allocatorIcEEE7destroyB8ne180100IcvEEvRS2_PT_, symObjAddr: 0x1ECF0, symBinAddr: 0x100021588, symSize: 0x2C }
  - { offset: 0x589D3, size: 0x8, addend: 0x0, symName: __ZNSt3__19allocatorIcE7destroyB8ne180100EPc, symObjAddr: 0x1ED1C, symBinAddr: 0x1000215B4, symSize: 0x14 }
  - { offset: 0x58A07, size: 0x8, addend: 0x0, symName: __ZNKSt3__16vectorIcNS_9allocatorIcEEE9__end_capB8ne180100Ev, symObjAddr: 0x1ED30, symBinAddr: 0x1000215C8, symSize: 0x28 }
  - { offset: 0x58A2D, size: 0x8, addend: 0x0, symName: __ZNKSt3__117__compressed_pairIPcNS_9allocatorIcEEE5firstB8ne180100Ev, symObjAddr: 0x1ED58, symBinAddr: 0x1000215F0, symSize: 0x24 }
  - { offset: 0x58A53, size: 0x8, addend: 0x0, symName: __ZNKSt3__122__compressed_pair_elemIPcLi0ELb0EE5__getB8ne180100Ev, symObjAddr: 0x1ED7C, symBinAddr: 0x100021614, symSize: 0x14 }
  - { offset: 0x58A79, size: 0x8, addend: 0x0, symName: __ZNSt3__16vectorIcNS_9allocatorIcEEED2B8ne180100Ev, symObjAddr: 0x1ED90, symBinAddr: 0x100021628, symSize: 0x40 }
  - { offset: 0x58AA3, size: 0x8, addend: 0x0, symName: __ZNSt3__16vectorINS0_IcNS_9allocatorIcEEEENS1_IS3_EEEC2EmRKS3_, symObjAddr: 0x1EDD0, symBinAddr: 0x100021668, symSize: 0xD8 }
  - { offset: 0x58B02, size: 0x8, addend: 0x0, symName: __ZNSt3__117__compressed_pairIPNS_6vectorIcNS_9allocatorIcEEEENS2_IS4_EEEC1B8ne180100IDnNS_18__default_init_tagEEEOT_OT0_, symObjAddr: 0x1EEA8, symBinAddr: 0x100021740, symSize: 0x3C }
  - { offset: 0x58B5A, size: 0x8, addend: 0x0, symName: __ZNSt3__16vectorINS0_IcNS_9allocatorIcEEEENS1_IS3_EEE16__destroy_vectorC1B8ne180100ERS5_, symObjAddr: 0x1EF24, symBinAddr: 0x1000217BC, symSize: 0x34 }
  - { offset: 0x58B93, size: 0x8, addend: 0x0, symName: __ZNSt3__16vectorINS0_IcNS_9allocatorIcEEEENS1_IS3_EEE11__vallocateB8ne180100Em, symObjAddr: 0x1EF58, symBinAddr: 0x1000217F0, symSize: 0xB0 }
  - { offset: 0x58BD7, size: 0x8, addend: 0x0, symName: __ZNSt3__16vectorINS0_IcNS_9allocatorIcEEEENS1_IS3_EEE18__construct_at_endEmRKS3_, symObjAddr: 0x1F008, symBinAddr: 0x1000218A0, symSize: 0xCC }
  - { offset: 0x58C59, size: 0x8, addend: 0x0, symName: __ZNSt3__128__exception_guard_exceptionsINS_6vectorINS1_IcNS_9allocatorIcEEEENS2_IS4_EEE16__destroy_vectorEE10__completeB8ne180100Ev, symObjAddr: 0x1F0D4, symBinAddr: 0x10002196C, symSize: 0x1C }
  - { offset: 0x58C7F, size: 0x8, addend: 0x0, symName: __ZNSt3__128__exception_guard_exceptionsINS_6vectorINS1_IcNS_9allocatorIcEEEENS2_IS4_EEE16__destroy_vectorEED1B8ne180100Ev, symObjAddr: 0x1F0F0, symBinAddr: 0x100021988, symSize: 0x2C }
  - { offset: 0x58CA9, size: 0x8, addend: 0x0, symName: __ZNSt3__117__compressed_pairIPNS_6vectorIcNS_9allocatorIcEEEENS2_IS4_EEEC2B8ne180100IDnNS_18__default_init_tagEEEOT_OT0_, symObjAddr: 0x1F11C, symBinAddr: 0x1000219B4, symSize: 0x40 }
  - { offset: 0x58D01, size: 0x8, addend: 0x0, symName: __ZNSt3__122__compressed_pair_elemIPNS_6vectorIcNS_9allocatorIcEEEELi0ELb0EEC2B8ne180100IDnvEEOT_, symObjAddr: 0x1F15C, symBinAddr: 0x1000219F4, symSize: 0x1C }
  - { offset: 0x58D43, size: 0x8, addend: 0x0, symName: __ZNSt3__122__compressed_pair_elemINS_9allocatorINS_6vectorIcNS1_IcEEEEEELi1ELb1EEC2B8ne180100ENS_18__default_init_tagE, symObjAddr: 0x1F178, symBinAddr: 0x100021A10, symSize: 0x2C }
  - { offset: 0x58D77, size: 0x8, addend: 0x0, symName: __ZNSt3__19allocatorINS_6vectorIcNS0_IcEEEEEC2B8ne180100Ev, symObjAddr: 0x1F1A4, symBinAddr: 0x100021A3C, symSize: 0x2C }
  - { offset: 0x58DA1, size: 0x8, addend: 0x0, symName: __ZNSt3__116__non_trivial_ifILb1ENS_9allocatorINS_6vectorIcNS1_IcEEEEEEEC2B8ne180100Ev, symObjAddr: 0x1F1D0, symBinAddr: 0x100021A68, symSize: 0x14 }
  - { offset: 0x58DCB, size: 0x8, addend: 0x0, symName: __ZNSt3__128__exception_guard_exceptionsINS_6vectorINS1_IcNS_9allocatorIcEEEENS2_IS4_EEE16__destroy_vectorEEC1B8ne180100ES7_, symObjAddr: 0x1F1E4, symBinAddr: 0x100021A7C, symSize: 0x34 }
  - { offset: 0x58E03, size: 0x8, addend: 0x0, symName: __ZNSt3__128__exception_guard_exceptionsINS_6vectorINS1_IcNS_9allocatorIcEEEENS2_IS4_EEE16__destroy_vectorEEC2B8ne180100ES7_, symObjAddr: 0x1F218, symBinAddr: 0x100021AB0, symSize: 0x24 }
  - { offset: 0x58E3B, size: 0x8, addend: 0x0, symName: __ZNSt3__16vectorINS0_IcNS_9allocatorIcEEEENS1_IS3_EEE16__destroy_vectorC2B8ne180100ERS5_, symObjAddr: 0x1F23C, symBinAddr: 0x100021AD4, symSize: 0x20 }
  - { offset: 0x58E74, size: 0x8, addend: 0x0, symName: __ZNKSt3__16vectorINS0_IcNS_9allocatorIcEEEENS1_IS3_EEE8max_sizeEv, symObjAddr: 0x1F25C, symBinAddr: 0x100021AF4, symSize: 0x60 }
  - { offset: 0x58E9C, size: 0x8, addend: 0x0, symName: __ZNKSt3__16vectorINS0_IcNS_9allocatorIcEEEENS1_IS3_EEE20__throw_length_errorB8ne180100Ev, symObjAddr: 0x1F2BC, symBinAddr: 0x100021B54, symSize: 0x1C }
  - { offset: 0x58EC2, size: 0x8, addend: 0x0, symName: __ZNSt3__16vectorINS0_IcNS_9allocatorIcEEEENS1_IS3_EEE7__allocB8ne180100Ev, symObjAddr: 0x1F318, symBinAddr: 0x100021BB0, symSize: 0x28 }
  - { offset: 0x58EE8, size: 0x8, addend: 0x0, symName: __ZNSt3__16vectorINS0_IcNS_9allocatorIcEEEENS1_IS3_EEE9__end_capB8ne180100Ev, symObjAddr: 0x1F340, symBinAddr: 0x100021BD8, symSize: 0x28 }
  - { offset: 0x58F0E, size: 0x8, addend: 0x0, symName: __ZNKSt3__16vectorINS0_IcNS_9allocatorIcEEEENS1_IS3_EEE14__annotate_newB8ne180100Em, symObjAddr: 0x1F368, symBinAddr: 0x100021C00, symSize: 0x14 }
  - { offset: 0x58F4E, size: 0x8, addend: 0x0, symName: __ZNSt3__116allocator_traitsINS_9allocatorINS_6vectorIcNS1_IcEEEEEEE8max_sizeB8ne180100IS5_vEEmRKS5_, symObjAddr: 0x1F37C, symBinAddr: 0x100021C14, symSize: 0x24 }
  - { offset: 0x58F7C, size: 0x8, addend: 0x0, symName: __ZNKSt3__16vectorINS0_IcNS_9allocatorIcEEEENS1_IS3_EEE7__allocB8ne180100Ev, symObjAddr: 0x1F3A0, symBinAddr: 0x100021C38, symSize: 0x28 }
  - { offset: 0x58FA2, size: 0x8, addend: 0x0, symName: __ZNKSt3__19allocatorINS_6vectorIcNS0_IcEEEEE8max_sizeB8ne180100Ev, symObjAddr: 0x1F3C8, symBinAddr: 0x100021C60, symSize: 0x18 }
  - { offset: 0x58FC8, size: 0x8, addend: 0x0, symName: __ZNKSt3__117__compressed_pairIPNS_6vectorIcNS_9allocatorIcEEEENS2_IS4_EEE6secondB8ne180100Ev, symObjAddr: 0x1F3E0, symBinAddr: 0x100021C78, symSize: 0x24 }
  - { offset: 0x58FEE, size: 0x8, addend: 0x0, symName: __ZNKSt3__122__compressed_pair_elemINS_9allocatorINS_6vectorIcNS1_IcEEEEEELi1ELb1EE5__getB8ne180100Ev, symObjAddr: 0x1F404, symBinAddr: 0x100021C9C, symSize: 0x14 }
  - { offset: 0x59014, size: 0x8, addend: 0x0, symName: __ZNSt3__19allocatorINS_6vectorIcNS0_IcEEEEE8allocateB8ne180100Em, symObjAddr: 0x1F418, symBinAddr: 0x100021CB0, symSize: 0x58 }
  - { offset: 0x59048, size: 0x8, addend: 0x0, symName: __ZNSt3__117__compressed_pairIPNS_6vectorIcNS_9allocatorIcEEEENS2_IS4_EEE6secondB8ne180100Ev, symObjAddr: 0x1F470, symBinAddr: 0x100021D08, symSize: 0x24 }
  - { offset: 0x5906E, size: 0x8, addend: 0x0, symName: __ZNSt3__122__compressed_pair_elemINS_9allocatorINS_6vectorIcNS1_IcEEEEEELi1ELb1EE5__getB8ne180100Ev, symObjAddr: 0x1F494, symBinAddr: 0x100021D2C, symSize: 0x14 }
  - { offset: 0x59094, size: 0x8, addend: 0x0, symName: __ZNSt3__117__compressed_pairIPNS_6vectorIcNS_9allocatorIcEEEENS2_IS4_EEE5firstB8ne180100Ev, symObjAddr: 0x1F4A8, symBinAddr: 0x100021D40, symSize: 0x24 }
  - { offset: 0x590BA, size: 0x8, addend: 0x0, symName: __ZNSt3__122__compressed_pair_elemIPNS_6vectorIcNS_9allocatorIcEEEELi0ELb0EE5__getB8ne180100Ev, symObjAddr: 0x1F4CC, symBinAddr: 0x100021D64, symSize: 0x14 }
  - { offset: 0x590FC, size: 0x8, addend: 0x0, symName: __ZNSt3__16vectorINS0_IcNS_9allocatorIcEEEENS1_IS3_EEE21_ConstructTransactionC1B8ne180100ERS5_m, symObjAddr: 0x1F4E0, symBinAddr: 0x100021D78, symSize: 0x3C }
  - { offset: 0x59144, size: 0x8, addend: 0x0, symName: __ZNSt3__116allocator_traitsINS_9allocatorINS_6vectorIcNS1_IcEEEEEEE9constructB8ne180100IS4_JRKS4_EvEEvRS5_PT_DpOT0_, symObjAddr: 0x1F51C, symBinAddr: 0x100021DB4, symSize: 0x34 }
  - { offset: 0x5919B, size: 0x8, addend: 0x0, symName: __ZNSt3__16vectorINS0_IcNS_9allocatorIcEEEENS1_IS3_EEE21_ConstructTransactionD1B8ne180100Ev, symObjAddr: 0x1F564, symBinAddr: 0x100021DFC, symSize: 0x2C }
  - { offset: 0x591C5, size: 0x8, addend: 0x0, symName: __ZNSt3__16vectorINS0_IcNS_9allocatorIcEEEENS1_IS3_EEE21_ConstructTransactionC2B8ne180100ERS5_m, symObjAddr: 0x1F590, symBinAddr: 0x100021E28, symSize: 0x4C }
  - { offset: 0x5920D, size: 0x8, addend: 0x0, symName: __ZNSt3__19allocatorINS_6vectorIcNS0_IcEEEEE9constructB8ne180100IS3_JRKS3_EEEvPT_DpOT0_, symObjAddr: 0x1F5DC, symBinAddr: 0x100021E74, symSize: 0x30 }
  - { offset: 0x59263, size: 0x8, addend: 0x0, symName: __ZNSt3__16vectorIcNS_9allocatorIcEEEC1ERKS3_, symObjAddr: 0x1F60C, symBinAddr: 0x100021EA4, symSize: 0x34 }
  - { offset: 0x5929E, size: 0x8, addend: 0x0, symName: __ZNSt3__16vectorIcNS_9allocatorIcEEEC2ERKS3_, symObjAddr: 0x1F640, symBinAddr: 0x100021ED8, symSize: 0x94 }
  - { offset: 0x592D9, size: 0x8, addend: 0x0, symName: __ZNSt3__116allocator_traitsINS_9allocatorIcEEE37select_on_container_copy_constructionB8ne180100IS2_vvEES2_RKS2_, symObjAddr: 0x1F6D4, symBinAddr: 0x100021F6C, symSize: 0x10 }
  - { offset: 0x5930E, size: 0x8, addend: 0x0, symName: __ZNSt3__117__compressed_pairIPcNS_9allocatorIcEEEC1B8ne180100IDnS3_EEOT_OT0_, symObjAddr: 0x1F6E4, symBinAddr: 0x100021F7C, symSize: 0x3C }
  - { offset: 0x59366, size: 0x8, addend: 0x0, symName: __ZNSt3__16vectorIcNS_9allocatorIcEEE16__init_with_sizeB8ne180100IPcS5_EEvT_T0_m, symObjAddr: 0x1F720, symBinAddr: 0x100021FB8, symSize: 0xB4 }
  - { offset: 0x593DA, size: 0x8, addend: 0x0, symName: __ZNKSt3__16vectorIcNS_9allocatorIcEEE4sizeB8ne180100Ev, symObjAddr: 0x1F7D4, symBinAddr: 0x10002206C, symSize: 0x20 }
  - { offset: 0x59400, size: 0x8, addend: 0x0, symName: __ZNSt3__117__compressed_pairIPcNS_9allocatorIcEEEC2B8ne180100IDnS3_EEOT_OT0_, symObjAddr: 0x1F7F4, symBinAddr: 0x10002208C, symSize: 0x44 }
  - { offset: 0x59458, size: 0x8, addend: 0x0, symName: __ZNSt3__122__compressed_pair_elemINS_9allocatorIcEELi1ELb1EEC2B8ne180100IS2_vEEOT_, symObjAddr: 0x1F838, symBinAddr: 0x1000220D0, symSize: 0x18 }
  - { offset: 0x5949A, size: 0x8, addend: 0x0, symName: __ZNSt3__16vectorIcNS_9allocatorIcEEE18__construct_at_endIPcS5_EEvT_T0_m, symObjAddr: 0x1F850, symBinAddr: 0x1000220E8, symSize: 0x8C }
  - { offset: 0x59531, size: 0x8, addend: 0x0, symName: __ZNSt3__14pairIPcS1_EC1B8ne180100IS1_S1_TnNS_9enable_ifIXclsr10_CheckArgsE17__enable_implicitIT_T0_EEEiE4typeELi0EEEOS5_OS6_, symObjAddr: 0x1FA8C, symBinAddr: 0x100022324, symSize: 0x3C }
  - { offset: 0x5958F, size: 0x8, addend: 0x0, symName: __ZNSt3__14pairIPcS1_EC2B8ne180100IS1_S1_TnNS_9enable_ifIXclsr10_CheckArgsE17__enable_implicitIT_T0_EEEiE4typeELi0EEEOS5_OS6_, symObjAddr: 0x1FAC8, symBinAddr: 0x100022360, symSize: 0x34 }
  - { offset: 0x595ED, size: 0x8, addend: 0x0, symName: __ZNKSt3__114__copy_trivialclB8ne180100IccTnNS_9enable_ifIXsr38__can_lower_copy_assignment_to_memmoveIT_T0_EE5valueEiE4typeELi0EEENS_4pairIPS3_PS4_EES8_S8_S9_, symObjAddr: 0x1FC78, symBinAddr: 0x100022510, symSize: 0x48 }
  - { offset: 0x59655, size: 0x8, addend: 0x0, symName: __ZNSt3__14pairIPcS1_EC1B8ne180100IRS1_S1_TnNS_9enable_ifIXclsr10_CheckArgsE17__enable_implicitIT_T0_EEEiE4typeELi0EEEOS6_OS7_, symObjAddr: 0x1FDFC, symBinAddr: 0x100022694, symSize: 0x3C }
  - { offset: 0x596B3, size: 0x8, addend: 0x0, symName: __ZNSt3__14pairIPcS1_EC2B8ne180100IRS1_S1_TnNS_9enable_ifIXclsr10_CheckArgsE17__enable_implicitIT_T0_EEEiE4typeELi0EEEOS6_OS7_, symObjAddr: 0x1FE38, symBinAddr: 0x1000226D0, symSize: 0x34 }
  - { offset: 0x59711, size: 0x8, addend: 0x0, symName: __ZNSt3__118__unwrap_iter_implIPcLb1EE8__unwrapB8ne180100ES1_, symObjAddr: 0x1FE6C, symBinAddr: 0x100022704, symSize: 0x24 }
  - { offset: 0x59734, size: 0x8, addend: 0x0, symName: __ZNSt3__118__unwrap_iter_implIPcLb1EE8__rewrapB8ne180100ES1_S1_, symObjAddr: 0x1FE90, symBinAddr: 0x100022728, symSize: 0x48 }
  - { offset: 0x59765, size: 0x8, addend: 0x0, symName: __ZNSt3__16vectorINS0_IcNS_9allocatorIcEEEENS1_IS3_EEE21_ConstructTransactionD2B8ne180100Ev, symObjAddr: 0x1FED8, symBinAddr: 0x100022770, symSize: 0x20 }
  - { offset: 0x5978F, size: 0x8, addend: 0x0, symName: __ZNSt3__128__exception_guard_exceptionsINS_6vectorINS1_IcNS_9allocatorIcEEEENS2_IS4_EEE16__destroy_vectorEED2B8ne180100Ev, symObjAddr: 0x1FEF8, symBinAddr: 0x100022790, symSize: 0x50 }
  - { offset: 0x597B9, size: 0x8, addend: 0x0, symName: __ZNSt3__16vectorINS0_IcNS_9allocatorIcEEEENS1_IS3_EEE16__destroy_vectorclB8ne180100Ev, symObjAddr: 0x1FF48, symBinAddr: 0x1000227E0, symSize: 0x88 }
  - { offset: 0x597DF, size: 0x8, addend: 0x0, symName: __ZNSt3__16vectorINS0_IcNS_9allocatorIcEEEENS1_IS3_EEE7__clearB8ne180100Ev, symObjAddr: 0x1FFD0, symBinAddr: 0x100022868, symSize: 0x28 }
  - { offset: 0x59805, size: 0x8, addend: 0x0, symName: __ZNKSt3__16vectorINS0_IcNS_9allocatorIcEEEENS1_IS3_EEE17__annotate_deleteB8ne180100Ev, symObjAddr: 0x1FFF8, symBinAddr: 0x100022890, symSize: 0x10 }
  - { offset: 0x5982B, size: 0x8, addend: 0x0, symName: __ZNSt3__116allocator_traitsINS_9allocatorINS_6vectorIcNS1_IcEEEEEEE10deallocateB8ne180100ERS5_PS4_m, symObjAddr: 0x20008, symBinAddr: 0x1000228A0, symSize: 0x34 }
  - { offset: 0x5986D, size: 0x8, addend: 0x0, symName: __ZNKSt3__16vectorINS0_IcNS_9allocatorIcEEEENS1_IS3_EEE8capacityB8ne180100Ev, symObjAddr: 0x2003C, symBinAddr: 0x1000228D4, symSize: 0x40 }
  - { offset: 0x59893, size: 0x8, addend: 0x0, symName: __ZNSt3__16vectorINS0_IcNS_9allocatorIcEEEENS1_IS3_EEE22__base_destruct_at_endB8ne180100EPS3_, symObjAddr: 0x2007C, symBinAddr: 0x100022914, symSize: 0x88 }
  - { offset: 0x598D7, size: 0x8, addend: 0x0, symName: __ZNSt3__116allocator_traitsINS_9allocatorINS_6vectorIcNS1_IcEEEEEEE7destroyB8ne180100IS4_vEEvRS5_PT_, symObjAddr: 0x20104, symBinAddr: 0x10002299C, symSize: 0x2C }
  - { offset: 0x59914, size: 0x8, addend: 0x0, symName: __ZNSt3__19allocatorINS_6vectorIcNS0_IcEEEEE7destroyB8ne180100EPS3_, symObjAddr: 0x20130, symBinAddr: 0x1000229C8, symSize: 0x28 }
  - { offset: 0x59948, size: 0x8, addend: 0x0, symName: __ZNSt3__19allocatorINS_6vectorIcNS0_IcEEEEE10deallocateB8ne180100EPS3_m, symObjAddr: 0x20158, symBinAddr: 0x1000229F0, symSize: 0x44 }
  - { offset: 0x5998A, size: 0x8, addend: 0x0, symName: __ZNKSt3__16vectorINS0_IcNS_9allocatorIcEEEENS1_IS3_EEE9__end_capB8ne180100Ev, symObjAddr: 0x2019C, symBinAddr: 0x100022A34, symSize: 0x28 }
  - { offset: 0x599B0, size: 0x8, addend: 0x0, symName: __ZNKSt3__117__compressed_pairIPNS_6vectorIcNS_9allocatorIcEEEENS2_IS4_EEE5firstB8ne180100Ev, symObjAddr: 0x201C4, symBinAddr: 0x100022A5C, symSize: 0x24 }
  - { offset: 0x599D6, size: 0x8, addend: 0x0, symName: __ZNKSt3__122__compressed_pair_elemIPNS_6vectorIcNS_9allocatorIcEEEELi0ELb0EE5__getB8ne180100Ev, symObjAddr: 0x201E8, symBinAddr: 0x100022A80, symSize: 0x14 }
  - { offset: 0x599FC, size: 0x8, addend: 0x0, symName: __ZNSt3__16vectorINS0_IcNS_9allocatorIcEEEENS1_IS3_EEED2B8ne180100Ev, symObjAddr: 0x201FC, symBinAddr: 0x100022A94, symSize: 0x40 }
  - { offset: 0x59A26, size: 0x8, addend: 0x0, symName: __ZNSt3__113unordered_mapINS_4pairIddEEm9pair_hashNS_8equal_toIS2_EENS_9allocatorINS1_IKS2_mEEEEEC2B8ne180100Ev, symObjAddr: 0x2023C, symBinAddr: 0x100022AD4, symSize: 0x2C }
  - { offset: 0x59A50, size: 0x8, addend: 0x0, symName: __ZNSt3__112__hash_tableINS_17__hash_value_typeINS_4pairIddEEmEENS_22__unordered_map_hasherIS3_S4_9pair_hashNS_8equal_toIS3_EELb1EEENS_21__unordered_map_equalIS3_S4_S8_S6_Lb1EEENS_9allocatorIS4_EEEC1Ev, symObjAddr: 0x20268, symBinAddr: 0x100022B00, symSize: 0x2C }
  - { offset: 0x59A7C, size: 0x8, addend: 0x0, symName: __ZNSt3__112__hash_tableINS_17__hash_value_typeINS_4pairIddEEmEENS_22__unordered_map_hasherIS3_S4_9pair_hashNS_8equal_toIS3_EELb1EEENS_21__unordered_map_equalIS3_S4_S8_S6_Lb1EEENS_9allocatorIS4_EEEC2Ev, symObjAddr: 0x20294, symBinAddr: 0x100022B2C, symSize: 0x7C }
  - { offset: 0x59AA8, size: 0x8, addend: 0x0, symName: __ZNSt3__110unique_ptrIA_PNS_16__hash_node_baseIPNS_11__hash_nodeINS_17__hash_value_typeINS_4pairIddEEmEEPvEEEENS_25__bucket_list_deallocatorINS_9allocatorISB_EEEEEC1B8ne180100ILb1EvEEv, symObjAddr: 0x20310, symBinAddr: 0x100022BA8, symSize: 0x2C }
  - { offset: 0x59ADD, size: 0x8, addend: 0x0, symName: __ZNSt3__117__compressed_pairINS_16__hash_node_baseIPNS_11__hash_nodeINS_17__hash_value_typeINS_4pairIddEEmEEPvEEEENS_9allocatorIS8_EEEC1B8ne180100ILb1EvEEv, symObjAddr: 0x2033C, symBinAddr: 0x100022BD4, symSize: 0x2C }
  - { offset: 0x59B12, size: 0x8, addend: 0x0, symName: __ZNSt3__117__compressed_pairImNS_22__unordered_map_hasherINS_4pairIddEENS_17__hash_value_typeIS3_mEE9pair_hashNS_8equal_toIS3_EELb1EEEEC1B8ne180100IiNS_18__default_init_tagEEEOT_OT0_, symObjAddr: 0x20368, symBinAddr: 0x100022C00, symSize: 0x3C }
  - { offset: 0x59B6A, size: 0x8, addend: 0x0, symName: __ZNSt3__117__compressed_pairIfNS_21__unordered_map_equalINS_4pairIddEENS_17__hash_value_typeIS3_mEENS_8equal_toIS3_EE9pair_hashLb1EEEEC1B8ne180100IfNS_18__default_init_tagEEEOT_OT0_, symObjAddr: 0x203A4, symBinAddr: 0x100022C3C, symSize: 0x3C }
  - { offset: 0x59BC2, size: 0x8, addend: 0x0, symName: __ZNSt3__110unique_ptrIA_PNS_16__hash_node_baseIPNS_11__hash_nodeINS_17__hash_value_typeINS_4pairIddEEmEEPvEEEENS_25__bucket_list_deallocatorINS_9allocatorISB_EEEEEC2B8ne180100ILb1EvEEv, symObjAddr: 0x203E0, symBinAddr: 0x100022C78, symSize: 0x3C }
  - { offset: 0x59BF7, size: 0x8, addend: 0x0, symName: __ZNSt3__117__compressed_pairIPPNS_16__hash_node_baseIPNS_11__hash_nodeINS_17__hash_value_typeINS_4pairIddEEmEEPvEEEENS_25__bucket_list_deallocatorINS_9allocatorISB_EEEEEC1B8ne180100INS_16__value_init_tagESJ_EEOT_OT0_, symObjAddr: 0x2041C, symBinAddr: 0x100022CB4, symSize: 0x3C }
  - { offset: 0x59C4F, size: 0x8, addend: 0x0, symName: __ZNSt3__117__compressed_pairIPPNS_16__hash_node_baseIPNS_11__hash_nodeINS_17__hash_value_typeINS_4pairIddEEmEEPvEEEENS_25__bucket_list_deallocatorINS_9allocatorISB_EEEEEC2B8ne180100INS_16__value_init_tagESJ_EEOT_OT0_, symObjAddr: 0x20458, symBinAddr: 0x100022CF0, symSize: 0x40 }
  - { offset: 0x59CA7, size: 0x8, addend: 0x0, symName: __ZNSt3__122__compressed_pair_elemIPPNS_16__hash_node_baseIPNS_11__hash_nodeINS_17__hash_value_typeINS_4pairIddEEmEEPvEEEELi0ELb0EEC2B8ne180100ENS_16__value_init_tagE, symObjAddr: 0x20498, symBinAddr: 0x100022D30, symSize: 0x18 }
  - { offset: 0x59CDB, size: 0x8, addend: 0x0, symName: __ZNSt3__122__compressed_pair_elemINS_25__bucket_list_deallocatorINS_9allocatorIPNS_16__hash_node_baseIPNS_11__hash_nodeINS_17__hash_value_typeINS_4pairIddEEmEEPvEEEEEEEELi1ELb0EEC2B8ne180100ENS_16__value_init_tagE, symObjAddr: 0x204B0, symBinAddr: 0x100022D48, symSize: 0x2C }
  - { offset: 0x59D0F, size: 0x8, addend: 0x0, symName: __ZNSt3__125__bucket_list_deallocatorINS_9allocatorIPNS_16__hash_node_baseIPNS_11__hash_nodeINS_17__hash_value_typeINS_4pairIddEEmEEPvEEEEEEEC1B8ne180100Ev, symObjAddr: 0x204DC, symBinAddr: 0x100022D74, symSize: 0x2C }
  - { offset: 0x59D39, size: 0x8, addend: 0x0, symName: __ZNSt3__125__bucket_list_deallocatorINS_9allocatorIPNS_16__hash_node_baseIPNS_11__hash_nodeINS_17__hash_value_typeINS_4pairIddEEmEEPvEEEEEEEC2B8ne180100Ev, symObjAddr: 0x20508, symBinAddr: 0x100022DA0, symSize: 0x40 }
  - { offset: 0x59D63, size: 0x8, addend: 0x0, symName: __ZNSt3__117__compressed_pairImNS_9allocatorIPNS_16__hash_node_baseIPNS_11__hash_nodeINS_17__hash_value_typeINS_4pairIddEEmEEPvEEEEEEEC1B8ne180100IiNS_18__default_init_tagEEEOT_OT0_, symObjAddr: 0x20548, symBinAddr: 0x100022DE0, symSize: 0x3C }
  - { offset: 0x59DBB, size: 0x8, addend: 0x0, symName: __ZNSt3__117__compressed_pairImNS_9allocatorIPNS_16__hash_node_baseIPNS_11__hash_nodeINS_17__hash_value_typeINS_4pairIddEEmEEPvEEEEEEEC2B8ne180100IiNS_18__default_init_tagEEEOT_OT0_, symObjAddr: 0x20584, symBinAddr: 0x100022E1C, symSize: 0x40 }
  - { offset: 0x59E13, size: 0x8, addend: 0x0, symName: __ZNSt3__122__compressed_pair_elemINS_9allocatorIPNS_16__hash_node_baseIPNS_11__hash_nodeINS_17__hash_value_typeINS_4pairIddEEmEEPvEEEEEELi1ELb1EEC2B8ne180100ENS_18__default_init_tagE, symObjAddr: 0x205C4, symBinAddr: 0x100022E5C, symSize: 0x2C }
  - { offset: 0x59E47, size: 0x8, addend: 0x0, symName: __ZNSt3__19allocatorIPNS_16__hash_node_baseIPNS_11__hash_nodeINS_17__hash_value_typeINS_4pairIddEEmEEPvEEEEEC2B8ne180100Ev, symObjAddr: 0x205F0, symBinAddr: 0x100022E88, symSize: 0x2C }
  - { offset: 0x59E71, size: 0x8, addend: 0x0, symName: __ZNSt3__116__non_trivial_ifILb1ENS_9allocatorIPNS_16__hash_node_baseIPNS_11__hash_nodeINS_17__hash_value_typeINS_4pairIddEEmEEPvEEEEEEEC2B8ne180100Ev, symObjAddr: 0x2061C, symBinAddr: 0x100022EB4, symSize: 0x14 }
  - { offset: 0x59E9B, size: 0x8, addend: 0x0, symName: __ZNSt3__117__compressed_pairINS_16__hash_node_baseIPNS_11__hash_nodeINS_17__hash_value_typeINS_4pairIddEEmEEPvEEEENS_9allocatorIS8_EEEC2B8ne180100ILb1EvEEv, symObjAddr: 0x20630, symBinAddr: 0x100022EC8, symSize: 0x34 }
  - { offset: 0x59ED0, size: 0x8, addend: 0x0, symName: __ZNSt3__122__compressed_pair_elemINS_16__hash_node_baseIPNS_11__hash_nodeINS_17__hash_value_typeINS_4pairIddEEmEEPvEEEELi0ELb0EEC2B8ne180100ENS_16__value_init_tagE, symObjAddr: 0x20664, symBinAddr: 0x100022EFC, symSize: 0x2C }
  - { offset: 0x59F04, size: 0x8, addend: 0x0, symName: __ZNSt3__122__compressed_pair_elemINS_9allocatorINS_11__hash_nodeINS_17__hash_value_typeINS_4pairIddEEmEEPvEEEELi1ELb1EEC2B8ne180100ENS_16__value_init_tagE, symObjAddr: 0x20690, symBinAddr: 0x100022F28, symSize: 0x2C }
  - { offset: 0x59F38, size: 0x8, addend: 0x0, symName: __ZNSt3__116__hash_node_baseIPNS_11__hash_nodeINS_17__hash_value_typeINS_4pairIddEEmEEPvEEEC1B8ne180100Ev, symObjAddr: 0x206BC, symBinAddr: 0x100022F54, symSize: 0x2C }
  - { offset: 0x59F62, size: 0x8, addend: 0x0, symName: __ZNSt3__116__hash_node_baseIPNS_11__hash_nodeINS_17__hash_value_typeINS_4pairIddEEmEEPvEEEC2B8ne180100Ev, symObjAddr: 0x206E8, symBinAddr: 0x100022F80, symSize: 0x18 }
  - { offset: 0x59F8C, size: 0x8, addend: 0x0, symName: __ZNSt3__19allocatorINS_11__hash_nodeINS_17__hash_value_typeINS_4pairIddEEmEEPvEEEC2B8ne180100Ev, symObjAddr: 0x20700, symBinAddr: 0x100022F98, symSize: 0x2C }
  - { offset: 0x59FB6, size: 0x8, addend: 0x0, symName: __ZNSt3__116__non_trivial_ifILb1ENS_9allocatorINS_11__hash_nodeINS_17__hash_value_typeINS_4pairIddEEmEEPvEEEEEC2B8ne180100Ev, symObjAddr: 0x2072C, symBinAddr: 0x100022FC4, symSize: 0x14 }
  - { offset: 0x59FE0, size: 0x8, addend: 0x0, symName: __ZNSt3__117__compressed_pairImNS_22__unordered_map_hasherINS_4pairIddEENS_17__hash_value_typeIS3_mEE9pair_hashNS_8equal_toIS3_EELb1EEEEC2B8ne180100IiNS_18__default_init_tagEEEOT_OT0_, symObjAddr: 0x20740, symBinAddr: 0x100022FD8, symSize: 0x40 }
  - { offset: 0x5A038, size: 0x8, addend: 0x0, symName: __ZNSt3__122__compressed_pair_elemINS_22__unordered_map_hasherINS_4pairIddEENS_17__hash_value_typeIS3_mEE9pair_hashNS_8equal_toIS3_EELb1EEELi1ELb1EEC2B8ne180100ENS_18__default_init_tagE, symObjAddr: 0x20780, symBinAddr: 0x100023018, symSize: 0x2C }
  - { offset: 0x5A06C, size: 0x8, addend: 0x0, symName: __ZNSt3__122__unordered_map_hasherINS_4pairIddEENS_17__hash_value_typeIS2_mEE9pair_hashNS_8equal_toIS2_EELb1EEC2B8ne180100Ev, symObjAddr: 0x207AC, symBinAddr: 0x100023044, symSize: 0x14 }
  - { offset: 0x5A096, size: 0x8, addend: 0x0, symName: __ZNSt3__117__compressed_pairIfNS_21__unordered_map_equalINS_4pairIddEENS_17__hash_value_typeIS3_mEENS_8equal_toIS3_EE9pair_hashLb1EEEEC2B8ne180100IfNS_18__default_init_tagEEEOT_OT0_, symObjAddr: 0x207C0, symBinAddr: 0x100023058, symSize: 0x40 }
  - { offset: 0x5A0EE, size: 0x8, addend: 0x0, symName: __ZNSt3__122__compressed_pair_elemINS_21__unordered_map_equalINS_4pairIddEENS_17__hash_value_typeIS3_mEENS_8equal_toIS3_EE9pair_hashLb1EEELi1ELb1EEC2B8ne180100ENS_18__default_init_tagE, symObjAddr: 0x20800, symBinAddr: 0x100023098, symSize: 0x2C }
  - { offset: 0x5A122, size: 0x8, addend: 0x0, symName: __ZNSt3__121__unordered_map_equalINS_4pairIddEENS_17__hash_value_typeIS2_mEENS_8equal_toIS2_EE9pair_hashLb1EEC2B8ne180100Ev, symObjAddr: 0x2082C, symBinAddr: 0x1000230C4, symSize: 0x14 }
  - { offset: 0x5A14C, size: 0x8, addend: 0x0, symName: __ZNSt3__113unordered_mapINS_4pairIddEEm9pair_hashNS_8equal_toIS2_EENS_9allocatorINS1_IKS2_mEEEEED2B8ne180100Ev, symObjAddr: 0x20840, symBinAddr: 0x1000230D8, symSize: 0x2C }
  - { offset: 0x5A176, size: 0x8, addend: 0x0, symName: __ZNSt3__112__hash_tableINS_17__hash_value_typeINS_4pairIddEEmEENS_22__unordered_map_hasherIS3_S4_9pair_hashNS_8equal_toIS3_EELb1EEENS_21__unordered_map_equalIS3_S4_S8_S6_Lb1EEENS_9allocatorIS4_EEED1Ev, symObjAddr: 0x2086C, symBinAddr: 0x100023104, symSize: 0x2C }
  - { offset: 0x5A1A2, size: 0x8, addend: 0x0, symName: __ZNSt3__112__hash_tableINS_17__hash_value_typeINS_4pairIddEEmEENS_22__unordered_map_hasherIS3_S4_9pair_hashNS_8equal_toIS3_EELb1EEENS_21__unordered_map_equalIS3_S4_S8_S6_Lb1EEENS_9allocatorIS4_EEED2Ev, symObjAddr: 0x20898, symBinAddr: 0x100023130, symSize: 0x48 }
  - { offset: 0x5A1CE, size: 0x8, addend: 0x0, symName: __ZNSt3__112__hash_tableINS_17__hash_value_typeINS_4pairIddEEmEENS_22__unordered_map_hasherIS3_S4_9pair_hashNS_8equal_toIS3_EELb1EEENS_21__unordered_map_equalIS3_S4_S8_S6_Lb1EEENS_9allocatorIS4_EEE17__deallocate_nodeEPNS_16__hash_node_baseIPNS_11__hash_nodeIS4_PvEEEE, symObjAddr: 0x208E0, symBinAddr: 0x100023178, symSize: 0xB8 }
  - { offset: 0x5A238, size: 0x8, addend: 0x0, symName: __ZNSt3__117__compressed_pairINS_16__hash_node_baseIPNS_11__hash_nodeINS_17__hash_value_typeINS_4pairIddEEmEEPvEEEENS_9allocatorIS8_EEE5firstB8ne180100Ev, symObjAddr: 0x20998, symBinAddr: 0x100023230, symSize: 0x24 }
  - { offset: 0x5A25E, size: 0x8, addend: 0x0, symName: __ZNSt3__110unique_ptrIA_PNS_16__hash_node_baseIPNS_11__hash_nodeINS_17__hash_value_typeINS_4pairIddEEmEEPvEEEENS_25__bucket_list_deallocatorINS_9allocatorISB_EEEEED1B8ne180100Ev, symObjAddr: 0x209BC, symBinAddr: 0x100023254, symSize: 0x2C }
  - { offset: 0x5A288, size: 0x8, addend: 0x0, symName: __ZNSt3__112__hash_tableINS_17__hash_value_typeINS_4pairIddEEmEENS_22__unordered_map_hasherIS3_S4_9pair_hashNS_8equal_toIS3_EELb1EEENS_21__unordered_map_equalIS3_S4_S8_S6_Lb1EEENS_9allocatorIS4_EEE12__node_allocB8ne180100Ev, symObjAddr: 0x209E8, symBinAddr: 0x100023280, symSize: 0x28 }
  - { offset: 0x5A2AE, size: 0x8, addend: 0x0, symName: __ZNSt3__116__hash_node_baseIPNS_11__hash_nodeINS_17__hash_value_typeINS_4pairIddEEmEEPvEEE8__upcastB8ne180100Ev, symObjAddr: 0x20A10, symBinAddr: 0x1000232A8, symSize: 0x24 }
  - { offset: 0x5A2D4, size: 0x8, addend: 0x0, symName: __ZNSt3__116allocator_traitsINS_9allocatorINS_11__hash_nodeINS_17__hash_value_typeINS_4pairIddEEmEEPvEEEEE7destroyB8ne180100INS4_IKS5_mEEvvEEvRS9_PT_, symObjAddr: 0x20A34, symBinAddr: 0x1000232CC, symSize: 0x28 }
  - { offset: 0x5A30F, size: 0x8, addend: 0x0, symName: __ZNSt3__122__hash_key_value_typesINS_17__hash_value_typeINS_4pairIddEEmEEE9__get_ptrB8ne180100ERS4_, symObjAddr: 0x20A5C, symBinAddr: 0x1000232F4, symSize: 0x24 }
  - { offset: 0x5A332, size: 0x8, addend: 0x0, symName: __ZNSt3__111__hash_nodeINS_17__hash_value_typeINS_4pairIddEEmEEPvE11__get_valueB8ne180100Ev, symObjAddr: 0x20A80, symBinAddr: 0x100023318, symSize: 0x18 }
  - { offset: 0x5A358, size: 0x8, addend: 0x0, symName: __ZNSt3__116allocator_traitsINS_9allocatorINS_11__hash_nodeINS_17__hash_value_typeINS_4pairIddEEmEEPvEEEEE10deallocateB8ne180100ERS9_PS8_m, symObjAddr: 0x20ABC, symBinAddr: 0x100023354, symSize: 0x34 }
  - { offset: 0x5A39A, size: 0x8, addend: 0x0, symName: __ZNSt3__117__compressed_pairINS_16__hash_node_baseIPNS_11__hash_nodeINS_17__hash_value_typeINS_4pairIddEEmEEPvEEEENS_9allocatorIS8_EEE6secondB8ne180100Ev, symObjAddr: 0x20AF0, symBinAddr: 0x100023388, symSize: 0x24 }
  - { offset: 0x5A3C0, size: 0x8, addend: 0x0, symName: __ZNSt3__122__compressed_pair_elemINS_9allocatorINS_11__hash_nodeINS_17__hash_value_typeINS_4pairIddEEmEEPvEEEELi1ELb1EE5__getB8ne180100Ev, symObjAddr: 0x20B14, symBinAddr: 0x1000233AC, symSize: 0x14 }
  - { offset: 0x5A3E6, size: 0x8, addend: 0x0, symName: __ZNSt3__114pointer_traitsIPNS_16__hash_node_baseIPNS_11__hash_nodeINS_17__hash_value_typeINS_4pairIddEEmEEPvEEEEE10pointer_toB8ne180100ERSA_, symObjAddr: 0x20B28, symBinAddr: 0x1000233C0, symSize: 0x14 }
  - { offset: 0x5A409, size: 0x8, addend: 0x0, symName: __ZNSt3__117__hash_value_typeINS_4pairIddEEmE11__get_valueB8ne180100Ev, symObjAddr: 0x20B4C, symBinAddr: 0x1000233E4, symSize: 0x24 }
  - { offset: 0x5A42F, size: 0x8, addend: 0x0, symName: __ZNSt3__111__hash_nodeINS_17__hash_value_typeINS_4pairIddEEmEEPvED1B8ne180100Ev, symObjAddr: 0x20BA8, symBinAddr: 0x100023440, symSize: 0x2C }
  - { offset: 0x5A459, size: 0x8, addend: 0x0, symName: __ZNSt3__111__hash_nodeINS_17__hash_value_typeINS_4pairIddEEmEEPvED2B8ne180100Ev, symObjAddr: 0x20BD4, symBinAddr: 0x10002346C, symSize: 0x14 }
  - { offset: 0x5A483, size: 0x8, addend: 0x0, symName: __ZNSt3__19allocatorINS_11__hash_nodeINS_17__hash_value_typeINS_4pairIddEEmEEPvEEE10deallocateB8ne180100EPS7_m, symObjAddr: 0x20BE8, symBinAddr: 0x100023480, symSize: 0x44 }
  - { offset: 0x5A4C5, size: 0x8, addend: 0x0, symName: __ZNSt3__122__compressed_pair_elemINS_16__hash_node_baseIPNS_11__hash_nodeINS_17__hash_value_typeINS_4pairIddEEmEEPvEEEELi0ELb0EE5__getB8ne180100Ev, symObjAddr: 0x20C2C, symBinAddr: 0x1000234C4, symSize: 0x14 }
  - { offset: 0x5A4EB, size: 0x8, addend: 0x0, symName: __ZNSt3__110unique_ptrIA_PNS_16__hash_node_baseIPNS_11__hash_nodeINS_17__hash_value_typeINS_4pairIddEEmEEPvEEEENS_25__bucket_list_deallocatorINS_9allocatorISB_EEEEED2B8ne180100Ev, symObjAddr: 0x20C40, symBinAddr: 0x1000234D8, symSize: 0x30 }
  - { offset: 0x5A515, size: 0x8, addend: 0x0, symName: __ZNSt3__110unique_ptrIA_PNS_16__hash_node_baseIPNS_11__hash_nodeINS_17__hash_value_typeINS_4pairIddEEmEEPvEEEENS_25__bucket_list_deallocatorINS_9allocatorISB_EEEEE5resetB8ne180100EDn, symObjAddr: 0x20C70, symBinAddr: 0x100023508, symSize: 0x64 }
  - { offset: 0x5A556, size: 0x8, addend: 0x0, symName: __ZNSt3__117__compressed_pairIPPNS_16__hash_node_baseIPNS_11__hash_nodeINS_17__hash_value_typeINS_4pairIddEEmEEPvEEEENS_25__bucket_list_deallocatorINS_9allocatorISB_EEEEE5firstB8ne180100Ev, symObjAddr: 0x20CD4, symBinAddr: 0x10002356C, symSize: 0x24 }
  - { offset: 0x5A57C, size: 0x8, addend: 0x0, symName: __ZNSt3__117__compressed_pairIPPNS_16__hash_node_baseIPNS_11__hash_nodeINS_17__hash_value_typeINS_4pairIddEEmEEPvEEEENS_25__bucket_list_deallocatorINS_9allocatorISB_EEEEE6secondB8ne180100Ev, symObjAddr: 0x20CF8, symBinAddr: 0x100023590, symSize: 0x28 }
  - { offset: 0x5A5A2, size: 0x8, addend: 0x0, symName: __ZNSt3__125__bucket_list_deallocatorINS_9allocatorIPNS_16__hash_node_baseIPNS_11__hash_nodeINS_17__hash_value_typeINS_4pairIddEEmEEPvEEEEEEEclB8ne180100EPSC_, symObjAddr: 0x20D20, symBinAddr: 0x1000235B8, symSize: 0x58 }
  - { offset: 0x5A5D7, size: 0x8, addend: 0x0, symName: __ZNSt3__122__compressed_pair_elemIPPNS_16__hash_node_baseIPNS_11__hash_nodeINS_17__hash_value_typeINS_4pairIddEEmEEPvEEEELi0ELb0EE5__getB8ne180100Ev, symObjAddr: 0x20D78, symBinAddr: 0x100023610, symSize: 0x14 }
  - { offset: 0x5A5FD, size: 0x8, addend: 0x0, symName: __ZNSt3__122__compressed_pair_elemINS_25__bucket_list_deallocatorINS_9allocatorIPNS_16__hash_node_baseIPNS_11__hash_nodeINS_17__hash_value_typeINS_4pairIddEEmEEPvEEEEEEEELi1ELb0EE5__getB8ne180100Ev, symObjAddr: 0x20D8C, symBinAddr: 0x100023624, symSize: 0x14 }
  - { offset: 0x5A623, size: 0x8, addend: 0x0, symName: __ZNSt3__116allocator_traitsINS_9allocatorIPNS_16__hash_node_baseIPNS_11__hash_nodeINS_17__hash_value_typeINS_4pairIddEEmEEPvEEEEEEE10deallocateB8ne180100ERSD_PSC_m, symObjAddr: 0x20DA0, symBinAddr: 0x100023638, symSize: 0x34 }
  - { offset: 0x5A665, size: 0x8, addend: 0x0, symName: __ZNSt3__125__bucket_list_deallocatorINS_9allocatorIPNS_16__hash_node_baseIPNS_11__hash_nodeINS_17__hash_value_typeINS_4pairIddEEmEEPvEEEEEEE7__allocB8ne180100Ev, symObjAddr: 0x20DD4, symBinAddr: 0x10002366C, symSize: 0x24 }
  - { offset: 0x5A68B, size: 0x8, addend: 0x0, symName: __ZNSt3__125__bucket_list_deallocatorINS_9allocatorIPNS_16__hash_node_baseIPNS_11__hash_nodeINS_17__hash_value_typeINS_4pairIddEEmEEPvEEEEEEE4sizeB8ne180100Ev, symObjAddr: 0x20DF8, symBinAddr: 0x100023690, symSize: 0x24 }
  - { offset: 0x5A6B1, size: 0x8, addend: 0x0, symName: __ZNSt3__19allocatorIPNS_16__hash_node_baseIPNS_11__hash_nodeINS_17__hash_value_typeINS_4pairIddEEmEEPvEEEEE10deallocateB8ne180100EPSB_m, symObjAddr: 0x20E1C, symBinAddr: 0x1000236B4, symSize: 0x40 }
  - { offset: 0x5A6F3, size: 0x8, addend: 0x0, symName: __ZNSt3__117__compressed_pairImNS_9allocatorIPNS_16__hash_node_baseIPNS_11__hash_nodeINS_17__hash_value_typeINS_4pairIddEEmEEPvEEEEEEE6secondB8ne180100Ev, symObjAddr: 0x20E5C, symBinAddr: 0x1000236F4, symSize: 0x24 }
  - { offset: 0x5A719, size: 0x8, addend: 0x0, symName: __ZNSt3__122__compressed_pair_elemINS_9allocatorIPNS_16__hash_node_baseIPNS_11__hash_nodeINS_17__hash_value_typeINS_4pairIddEEmEEPvEEEEEELi1ELb1EE5__getB8ne180100Ev, symObjAddr: 0x20E80, symBinAddr: 0x100023718, symSize: 0x14 }
  - { offset: 0x5A73F, size: 0x8, addend: 0x0, symName: __ZNSt3__117__compressed_pairImNS_9allocatorIPNS_16__hash_node_baseIPNS_11__hash_nodeINS_17__hash_value_typeINS_4pairIddEEmEEPvEEEEEEE5firstB8ne180100Ev, symObjAddr: 0x20E94, symBinAddr: 0x10002372C, symSize: 0x24 }
  - { offset: 0x5A765, size: 0x8, addend: 0x0, symName: __ZNSt3__112basic_stringIcNS_11char_traitsIcEENS_9allocatorIcEEE13__fits_in_ssoB8ne180100Em, symObjAddr: 0x20EB8, symBinAddr: 0x100023750, symSize: 0x1C }
  - { offset: 0x5A789, size: 0x8, addend: 0x0, symName: __ZNSt3__120__shared_ptr_emplaceI4NodeNS_9allocatorIS1_EEEC1B8ne180100IJRiS6_RmES3_TnNS_9enable_ifIXntsr7is_sameINT0_10value_typeENS_19__for_overwrite_tagEEE5valueEiE4typeELi0EEES3_DpOT_, symObjAddr: 0x20F7C, symBinAddr: 0x100023814, symSize: 0x44 }
  - { offset: 0x5A813, size: 0x8, addend: 0x0, symName: __ZNSt3__120__shared_ptr_emplaceI4NodeNS_9allocatorIS1_EEEC2B8ne180100IJRiS6_RmES3_TnNS_9enable_ifIXntsr7is_sameINT0_10value_typeENS_19__for_overwrite_tagEEE5valueEiE4typeELi0EEES3_DpOT_, symObjAddr: 0x20FC0, symBinAddr: 0x100023858, symSize: 0xCC }
  - { offset: 0x5A8BE, size: 0x8, addend: 0x0, symName: __ZNSt3__116allocator_traitsINS_9allocatorI4NodeEEE9constructB8ne180100IS2_JRiS6_RmEvEEvRS3_PT_DpOT0_, symObjAddr: 0x2108C, symBinAddr: 0x100023924, symSize: 0x44 }
  - { offset: 0x5A93D, size: 0x8, addend: 0x0, symName: __ZNSt3__19allocatorI4NodeE9constructB8ne180100IS1_JRiS4_RmEEEvPT_DpOT0_, symObjAddr: 0x210D0, symBinAddr: 0x100023968, symSize: 0x64 }
  - { offset: 0x5A9D1, size: 0x8, addend: 0x0, symName: __ZNSt3__112__hash_tableINS_17__hash_value_typeINS_4pairIddEEmEENS_22__unordered_map_hasherIS3_S4_9pair_hashNS_8equal_toIS3_EELb1EEENS_21__unordered_map_equalIS3_S4_S8_S6_Lb1EEENS_9allocatorIS4_EEE25__emplace_unique_key_argsIS3_JRKNS_21piecewise_construct_tENS_5tupleIJOS3_EEENSJ_IJEEEEEENS2_INS_15__hash_iteratorIPNS_11__hash_nodeIS4_PvEEEEbEERKT_DpOT0_, symObjAddr: 0x21134, symBinAddr: 0x1000239CC, symSize: 0x490 }
  - { offset: 0x5AAD9, size: 0x8, addend: 0x0, symName: __ZNKSt3__115__hash_iteratorIPNS_11__hash_nodeINS_17__hash_value_typeINS_4pairIddEEmEEPvEEEptB8ne180100Ev, symObjAddr: 0x215F4, symBinAddr: 0x100023E8C, symSize: 0x30 }
  - { offset: 0x5AAFF, size: 0x8, addend: 0x0, symName: __ZNSt3__112__hash_tableINS_17__hash_value_typeINS_4pairIddEEmEENS_22__unordered_map_hasherIS3_S4_9pair_hashNS_8equal_toIS3_EELb1EEENS_21__unordered_map_equalIS3_S4_S8_S6_Lb1EEENS_9allocatorIS4_EEE13hash_functionB8ne180100Ev, symObjAddr: 0x21624, symBinAddr: 0x100023EBC, symSize: 0x28 }
  - { offset: 0x5AB25, size: 0x8, addend: 0x0, symName: __ZNKSt3__122__unordered_map_hasherINS_4pairIddEENS_17__hash_value_typeIS2_mEE9pair_hashNS_8equal_toIS2_EELb1EEclB8ne180100ERKS2_, symObjAddr: 0x2164C, symBinAddr: 0x100023EE4, symSize: 0x2C }
  - { offset: 0x5AB5A, size: 0x8, addend: 0x0, symName: __ZNKSt3__112__hash_tableINS_17__hash_value_typeINS_4pairIddEEmEENS_22__unordered_map_hasherIS3_S4_9pair_hashNS_8equal_toIS3_EELb1EEENS_21__unordered_map_equalIS3_S4_S8_S6_Lb1EEENS_9allocatorIS4_EEE12bucket_countB8ne180100Ev, symObjAddr: 0x21678, symBinAddr: 0x100023F10, symSize: 0x28 }
  - { offset: 0x5AB80, size: 0x8, addend: 0x0, symName: __ZNKSt3__110unique_ptrIA_PNS_16__hash_node_baseIPNS_11__hash_nodeINS_17__hash_value_typeINS_4pairIddEEmEEPvEEEENS_25__bucket_list_deallocatorINS_9allocatorISB_EEEEEixB8ne180100Em, symObjAddr: 0x216A0, symBinAddr: 0x100023F38, symSize: 0x34 }
  - { offset: 0x5ABB5, size: 0x8, addend: 0x0, symName: __ZNKSt3__116__hash_node_baseIPNS_11__hash_nodeINS_17__hash_value_typeINS_4pairIddEEmEEPvEEE6__hashB8ne180100Ev, symObjAddr: 0x216D4, symBinAddr: 0x100023F6C, symSize: 0x18 }
  - { offset: 0x5ABDB, size: 0x8, addend: 0x0, symName: __ZNSt3__112__hash_tableINS_17__hash_value_typeINS_4pairIddEEmEENS_22__unordered_map_hasherIS3_S4_9pair_hashNS_8equal_toIS3_EELb1EEENS_21__unordered_map_equalIS3_S4_S8_S6_Lb1EEENS_9allocatorIS4_EEE6key_eqB8ne180100Ev, symObjAddr: 0x216EC, symBinAddr: 0x100023F84, symSize: 0x28 }
  - { offset: 0x5AC01, size: 0x8, addend: 0x0, symName: __ZNKSt3__121__unordered_map_equalINS_4pairIddEENS_17__hash_value_typeIS2_mEENS_8equal_toIS2_EE9pair_hashLb1EEclB8ne180100ERKS4_RKS2_, symObjAddr: 0x21714, symBinAddr: 0x100023FAC, symSize: 0x44 }
  - { offset: 0x5AC45, size: 0x8, addend: 0x0, symName: __ZNSt3__112__hash_tableINS_17__hash_value_typeINS_4pairIddEEmEENS_22__unordered_map_hasherIS3_S4_9pair_hashNS_8equal_toIS3_EELb1EEENS_21__unordered_map_equalIS3_S4_S8_S6_Lb1EEENS_9allocatorIS4_EEE21__construct_node_hashIRKNS_21piecewise_construct_tEJNS_5tupleIJOS3_EEENSJ_IJEEEEEENS_10unique_ptrINS_11__hash_nodeIS4_PvEENS_22__hash_node_destructorINSC_ISQ_EEEEEEmOT_DpOT0_, symObjAddr: 0x21758, symBinAddr: 0x100023FF0, symSize: 0x14C }
  - { offset: 0x5ACDF, size: 0x8, addend: 0x0, symName: __ZNSt3__112__hash_tableINS_17__hash_value_typeINS_4pairIddEEmEENS_22__unordered_map_hasherIS3_S4_9pair_hashNS_8equal_toIS3_EELb1EEENS_21__unordered_map_equalIS3_S4_S8_S6_Lb1EEENS_9allocatorIS4_EEE4sizeB8ne180100Ev, symObjAddr: 0x218A4, symBinAddr: 0x10002413C, symSize: 0x28 }
  - { offset: 0x5AD05, size: 0x8, addend: 0x0, symName: __ZNSt3__112__hash_tableINS_17__hash_value_typeINS_4pairIddEEmEENS_22__unordered_map_hasherIS3_S4_9pair_hashNS_8equal_toIS3_EELb1EEENS_21__unordered_map_equalIS3_S4_S8_S6_Lb1EEENS_9allocatorIS4_EEE15max_load_factorB8ne180100Ev, symObjAddr: 0x218CC, symBinAddr: 0x100024164, symSize: 0x28 }
  - { offset: 0x5AD2B, size: 0x8, addend: 0x0, symName: __ZNSt3__112__hash_tableINS_17__hash_value_typeINS_4pairIddEEmEENS_22__unordered_map_hasherIS3_S4_9pair_hashNS_8equal_toIS3_EELb1EEENS_21__unordered_map_equalIS3_S4_S8_S6_Lb1EEENS_9allocatorIS4_EEE15__rehash_uniqueB8ne180100Em, symObjAddr: 0x218F4, symBinAddr: 0x10002418C, symSize: 0x2C }
  - { offset: 0x5AD60, size: 0x8, addend: 0x0, symName: __ZNSt3__116__hash_node_baseIPNS_11__hash_nodeINS_17__hash_value_typeINS_4pairIddEEmEEPvEEE5__ptrB8ne180100Ev, symObjAddr: 0x21920, symBinAddr: 0x1000241B8, symSize: 0x24 }
  - { offset: 0x5AD86, size: 0x8, addend: 0x0, symName: __ZNKSt3__110unique_ptrINS_11__hash_nodeINS_17__hash_value_typeINS_4pairIddEEmEEPvEENS_22__hash_node_destructorINS_9allocatorIS7_EEEEEptB8ne180100Ev, symObjAddr: 0x21944, symBinAddr: 0x1000241DC, symSize: 0x28 }
  - { offset: 0x5ADAC, size: 0x8, addend: 0x0, symName: __ZNKSt3__110unique_ptrINS_11__hash_nodeINS_17__hash_value_typeINS_4pairIddEEmEEPvEENS_22__hash_node_destructorINS_9allocatorIS7_EEEEE3getB8ne180100Ev, symObjAddr: 0x2196C, symBinAddr: 0x100024204, symSize: 0x28 }
  - { offset: 0x5ADD2, size: 0x8, addend: 0x0, symName: __ZNSt3__110unique_ptrINS_11__hash_nodeINS_17__hash_value_typeINS_4pairIddEEmEEPvEENS_22__hash_node_destructorINS_9allocatorIS7_EEEEE7releaseB8ne180100Ev, symObjAddr: 0x21994, symBinAddr: 0x10002422C, symSize: 0x44 }
  - { offset: 0x5AE07, size: 0x8, addend: 0x0, symName: __ZNSt3__110unique_ptrINS_11__hash_nodeINS_17__hash_value_typeINS_4pairIddEEmEEPvEENS_22__hash_node_destructorINS_9allocatorIS7_EEEEED1B8ne180100Ev, symObjAddr: 0x219D8, symBinAddr: 0x100024270, symSize: 0x2C }
  - { offset: 0x5AE31, size: 0x8, addend: 0x0, symName: __ZNSt3__115__hash_iteratorIPNS_11__hash_nodeINS_17__hash_value_typeINS_4pairIddEEmEEPvEEEC1B8ne180100EPNS_16__hash_node_baseIS8_EE, symObjAddr: 0x21A04, symBinAddr: 0x10002429C, symSize: 0x34 }
  - { offset: 0x5AE70, size: 0x8, addend: 0x0, symName: __ZNSt3__14pairINS_15__hash_iteratorIPNS_11__hash_nodeINS_17__hash_value_typeINS0_IddEEmEEPvEEEEbEC1B8ne180100IS9_RbTnNS_9enable_ifIXclsr10_CheckArgsE17__enable_implicitIT_T0_EEEiE4typeELi0EEEOSE_OSF_, symObjAddr: 0x21A38, symBinAddr: 0x1000242D0, symSize: 0x3C }
  - { offset: 0x5AECE, size: 0x8, addend: 0x0, symName: __ZNSt3__117__compressed_pairImNS_22__unordered_map_hasherINS_4pairIddEENS_17__hash_value_typeIS3_mEE9pair_hashNS_8equal_toIS3_EELb1EEEE6secondB8ne180100Ev, symObjAddr: 0x21A74, symBinAddr: 0x10002430C, symSize: 0x24 }
  - { offset: 0x5AEF4, size: 0x8, addend: 0x0, symName: __ZNSt3__122__compressed_pair_elemINS_22__unordered_map_hasherINS_4pairIddEENS_17__hash_value_typeIS3_mEE9pair_hashNS_8equal_toIS3_EELb1EEELi1ELb1EE5__getB8ne180100Ev, symObjAddr: 0x21A98, symBinAddr: 0x100024330, symSize: 0x14 }
  - { offset: 0x5AF20, size: 0x8, addend: 0x0, symName: __ZNK9pair_hashclIddEEmRKNSt3__14pairIT_T0_EE, symObjAddr: 0x21AAC, symBinAddr: 0x100024344, symSize: 0x80 }
  - { offset: 0x5AF98, size: 0x8, addend: 0x0, symName: __ZNKSt3__14hashIdEclB8ne180100Ed, symObjAddr: 0x21B2C, symBinAddr: 0x1000243C4, symSize: 0x58 }
  - { offset: 0x5AFCD, size: 0x8, addend: 0x0, symName: __ZNKSt3__113__scalar_hashIdLm1EEclB8ne180100Ed, symObjAddr: 0x21B84, symBinAddr: 0x10002441C, symSize: 0x20 }
  - { offset: 0x5B033, size: 0x8, addend: 0x0, symName: __ZNKSt3__110unique_ptrIA_PNS_16__hash_node_baseIPNS_11__hash_nodeINS_17__hash_value_typeINS_4pairIddEEmEEPvEEEENS_25__bucket_list_deallocatorINS_9allocatorISB_EEEEE11get_deleterB8ne180100Ev, symObjAddr: 0x21BA4, symBinAddr: 0x10002443C, symSize: 0x24 }
  - { offset: 0x5B059, size: 0x8, addend: 0x0, symName: __ZNKSt3__125__bucket_list_deallocatorINS_9allocatorIPNS_16__hash_node_baseIPNS_11__hash_nodeINS_17__hash_value_typeINS_4pairIddEEmEEPvEEEEEEE4sizeB8ne180100Ev, symObjAddr: 0x21BC8, symBinAddr: 0x100024460, symSize: 0x28 }
  - { offset: 0x5B07F, size: 0x8, addend: 0x0, symName: __ZNKSt3__117__compressed_pairIPPNS_16__hash_node_baseIPNS_11__hash_nodeINS_17__hash_value_typeINS_4pairIddEEmEEPvEEEENS_25__bucket_list_deallocatorINS_9allocatorISB_EEEEE6secondB8ne180100Ev, symObjAddr: 0x21BF0, symBinAddr: 0x100024488, symSize: 0x28 }
  - { offset: 0x5B0A5, size: 0x8, addend: 0x0, symName: __ZNKSt3__122__compressed_pair_elemINS_25__bucket_list_deallocatorINS_9allocatorIPNS_16__hash_node_baseIPNS_11__hash_nodeINS_17__hash_value_typeINS_4pairIddEEmEEPvEEEEEEEELi1ELb0EE5__getB8ne180100Ev, symObjAddr: 0x21C18, symBinAddr: 0x1000244B0, symSize: 0x14 }
  - { offset: 0x5B0CB, size: 0x8, addend: 0x0, symName: __ZNKSt3__117__compressed_pairImNS_9allocatorIPNS_16__hash_node_baseIPNS_11__hash_nodeINS_17__hash_value_typeINS_4pairIddEEmEEPvEEEEEEE5firstB8ne180100Ev, symObjAddr: 0x21C2C, symBinAddr: 0x1000244C4, symSize: 0x24 }
  - { offset: 0x5B0F1, size: 0x8, addend: 0x0, symName: __ZNKSt3__117__compressed_pairIPPNS_16__hash_node_baseIPNS_11__hash_nodeINS_17__hash_value_typeINS_4pairIddEEmEEPvEEEENS_25__bucket_list_deallocatorINS_9allocatorISB_EEEEE5firstB8ne180100Ev, symObjAddr: 0x21C50, symBinAddr: 0x1000244E8, symSize: 0x24 }
  - { offset: 0x5B117, size: 0x8, addend: 0x0, symName: __ZNKSt3__122__compressed_pair_elemIPPNS_16__hash_node_baseIPNS_11__hash_nodeINS_17__hash_value_typeINS_4pairIddEEmEEPvEEEELi0ELb0EE5__getB8ne180100Ev, symObjAddr: 0x21C74, symBinAddr: 0x10002450C, symSize: 0x14 }
  - { offset: 0x5B13D, size: 0x8, addend: 0x0, symName: __ZNSt3__117__compressed_pairIfNS_21__unordered_map_equalINS_4pairIddEENS_17__hash_value_typeIS3_mEENS_8equal_toIS3_EE9pair_hashLb1EEEE6secondB8ne180100Ev, symObjAddr: 0x21C88, symBinAddr: 0x100024520, symSize: 0x24 }
  - { offset: 0x5B163, size: 0x8, addend: 0x0, symName: __ZNSt3__122__compressed_pair_elemINS_21__unordered_map_equalINS_4pairIddEENS_17__hash_value_typeIS3_mEENS_8equal_toIS3_EE9pair_hashLb1EEELi1ELb1EE5__getB8ne180100Ev, symObjAddr: 0x21CAC, symBinAddr: 0x100024544, symSize: 0x14 }
  - { offset: 0x5B189, size: 0x8, addend: 0x0, symName: __ZNKSt3__18equal_toINS_4pairIddEEEclB8ne180100ERKS2_S5_, symObjAddr: 0x21CC0, symBinAddr: 0x100024558, symSize: 0x30 }
  - { offset: 0x5B1CD, size: 0x8, addend: 0x0, symName: __ZNKSt3__117__hash_value_typeINS_4pairIddEEmE11__get_valueB8ne180100Ev, symObjAddr: 0x21CF0, symBinAddr: 0x100024588, symSize: 0x24 }
  - { offset: 0x5B1F3, size: 0x8, addend: 0x0, symName: __ZNSt3__116allocator_traitsINS_9allocatorINS_11__hash_nodeINS_17__hash_value_typeINS_4pairIddEEmEEPvEEEEE8allocateB8ne180100ERS9_m, symObjAddr: 0x21DAC, symBinAddr: 0x100024644, symSize: 0x2C }
  - { offset: 0x5B226, size: 0x8, addend: 0x0, symName: __ZNSt3__122__hash_node_destructorINS_9allocatorINS_11__hash_nodeINS_17__hash_value_typeINS_4pairIddEEmEEPvEEEEEC1B8ne180100ERS9_b, symObjAddr: 0x21DD8, symBinAddr: 0x100024670, symSize: 0x40 }
  - { offset: 0x5B274, size: 0x8, addend: 0x0, symName: __ZNSt3__110unique_ptrINS_11__hash_nodeINS_17__hash_value_typeINS_4pairIddEEmEEPvEENS_22__hash_node_destructorINS_9allocatorIS7_EEEEEC1B8ne180100ILb1EvEEPS7_NS_16__dependent_typeINS_27__unique_ptr_deleter_sfinaeISB_EEXT_EE20__good_rval_ref_typeE, symObjAddr: 0x21E18, symBinAddr: 0x1000246B0, symSize: 0x3C }
  - { offset: 0x5B2C5, size: 0x8, addend: 0x0, symName: __ZNKSt3__110unique_ptrINS_11__hash_nodeINS_17__hash_value_typeINS_4pairIddEEmEEPvEENS_22__hash_node_destructorINS_9allocatorIS7_EEEEEdeB8ne180100Ev, symObjAddr: 0x21E9C, symBinAddr: 0x100024734, symSize: 0x28 }
  - { offset: 0x5B2EB, size: 0x8, addend: 0x0, symName: __ZNSt3__116allocator_traitsINS_9allocatorINS_11__hash_nodeINS_17__hash_value_typeINS_4pairIddEEmEEPvEEEEE9constructB8ne180100INS4_IKS5_mEEJRKNS_21piecewise_construct_tENS_5tupleIJOS5_EEENSH_IJEEEEvEEvRS9_PT_DpOT0_, symObjAddr: 0x21EC4, symBinAddr: 0x10002475C, symSize: 0x44 }
  - { offset: 0x5B36A, size: 0x8, addend: 0x0, symName: __ZNSt3__110unique_ptrINS_11__hash_nodeINS_17__hash_value_typeINS_4pairIddEEmEEPvEENS_22__hash_node_destructorINS_9allocatorIS7_EEEEE11get_deleterB8ne180100Ev, symObjAddr: 0x21F08, symBinAddr: 0x1000247A0, symSize: 0x24 }
  - { offset: 0x5B390, size: 0x8, addend: 0x0, symName: __ZNSt3__19allocatorINS_11__hash_nodeINS_17__hash_value_typeINS_4pairIddEEmEEPvEEE8allocateB8ne180100Em, symObjAddr: 0x21F2C, symBinAddr: 0x1000247C4, symSize: 0x58 }
  - { offset: 0x5B3CF, size: 0x8, addend: 0x0, symName: __ZNSt3__116allocator_traitsINS_9allocatorINS_11__hash_nodeINS_17__hash_value_typeINS_4pairIddEEmEEPvEEEEE8max_sizeB8ne180100IS9_vEEmRKS9_, symObjAddr: 0x21F84, symBinAddr: 0x10002481C, symSize: 0x24 }
  - { offset: 0x5B3FD, size: 0x8, addend: 0x0, symName: __ZNKSt3__19allocatorINS_11__hash_nodeINS_17__hash_value_typeINS_4pairIddEEmEEPvEEE8max_sizeB8ne180100Ev, symObjAddr: 0x21FA8, symBinAddr: 0x100024840, symSize: 0x18 }
  - { offset: 0x5B423, size: 0x8, addend: 0x0, symName: __ZNSt3__122__hash_node_destructorINS_9allocatorINS_11__hash_nodeINS_17__hash_value_typeINS_4pairIddEEmEEPvEEEEEC2B8ne180100ERS9_b, symObjAddr: 0x21FC0, symBinAddr: 0x100024858, symSize: 0x30 }
  - { offset: 0x5B46B, size: 0x8, addend: 0x0, symName: __ZNSt3__110unique_ptrINS_11__hash_nodeINS_17__hash_value_typeINS_4pairIddEEmEEPvEENS_22__hash_node_destructorINS_9allocatorIS7_EEEEEC2B8ne180100ILb1EvEEPS7_NS_16__dependent_typeINS_27__unique_ptr_deleter_sfinaeISB_EEXT_EE20__good_rval_ref_typeE, symObjAddr: 0x21FF0, symBinAddr: 0x100024888, symSize: 0x48 }
  - { offset: 0x5B4BC, size: 0x8, addend: 0x0, symName: __ZNSt3__117__compressed_pairIPNS_11__hash_nodeINS_17__hash_value_typeINS_4pairIddEEmEEPvEENS_22__hash_node_destructorINS_9allocatorIS7_EEEEEC1B8ne180100IRS8_SC_EEOT_OT0_, symObjAddr: 0x22038, symBinAddr: 0x1000248D0, symSize: 0x3C }
  - { offset: 0x5B514, size: 0x8, addend: 0x0, symName: __ZNSt3__117__compressed_pairIPNS_11__hash_nodeINS_17__hash_value_typeINS_4pairIddEEmEEPvEENS_22__hash_node_destructorINS_9allocatorIS7_EEEEEC2B8ne180100IRS8_SC_EEOT_OT0_, symObjAddr: 0x22074, symBinAddr: 0x10002490C, symSize: 0x48 }
  - { offset: 0x5B56C, size: 0x8, addend: 0x0, symName: __ZNSt3__122__compressed_pair_elemIPNS_11__hash_nodeINS_17__hash_value_typeINS_4pairIddEEmEEPvEELi0ELb0EEC2B8ne180100IRS8_vEEOT_, symObjAddr: 0x220BC, symBinAddr: 0x100024954, symSize: 0x24 }
  - { offset: 0x5B5AE, size: 0x8, addend: 0x0, symName: __ZNSt3__122__compressed_pair_elemINS_22__hash_node_destructorINS_9allocatorINS_11__hash_nodeINS_17__hash_value_typeINS_4pairIddEEmEEPvEEEEEELi1ELb0EEC2B8ne180100ISB_vEEOT_, symObjAddr: 0x220E0, symBinAddr: 0x100024978, symSize: 0x24 }
  - { offset: 0x5B5F0, size: 0x8, addend: 0x0, symName: __ZNSt3__111__hash_nodeINS_17__hash_value_typeINS_4pairIddEEmEEPvEC1B8ne180100EPNS_16__hash_node_baseIPS6_EEm, symObjAddr: 0x22104, symBinAddr: 0x10002499C, symSize: 0x3C }
  - { offset: 0x5B636, size: 0x8, addend: 0x0, symName: __ZNSt3__111__hash_nodeINS_17__hash_value_typeINS_4pairIddEEmEEPvEC2B8ne180100EPNS_16__hash_node_baseIPS6_EEm, symObjAddr: 0x22140, symBinAddr: 0x1000249D8, symSize: 0x40 }
  - { offset: 0x5B67C, size: 0x8, addend: 0x0, symName: __ZNSt3__116__hash_node_baseIPNS_11__hash_nodeINS_17__hash_value_typeINS_4pairIddEEmEEPvEEEC2B8ne180100EPS9_, symObjAddr: 0x22180, symBinAddr: 0x100024A18, symSize: 0x20 }
  - { offset: 0x5B6B4, size: 0x8, addend: 0x0, symName: __ZNKSt3__117__compressed_pairIPNS_11__hash_nodeINS_17__hash_value_typeINS_4pairIddEEmEEPvEENS_22__hash_node_destructorINS_9allocatorIS7_EEEEE5firstB8ne180100Ev, symObjAddr: 0x221A0, symBinAddr: 0x100024A38, symSize: 0x24 }
  - { offset: 0x5B6DA, size: 0x8, addend: 0x0, symName: __ZNKSt3__122__compressed_pair_elemIPNS_11__hash_nodeINS_17__hash_value_typeINS_4pairIddEEmEEPvEELi0ELb0EE5__getB8ne180100Ev, symObjAddr: 0x221C4, symBinAddr: 0x100024A5C, symSize: 0x14 }
  - { offset: 0x5B700, size: 0x8, addend: 0x0, symName: __ZNSt3__19allocatorINS_11__hash_nodeINS_17__hash_value_typeINS_4pairIddEEmEEPvEEE9constructB8ne180100INS3_IKS4_mEEJRKNS_21piecewise_construct_tENS_5tupleIJOS4_EEENSF_IJEEEEEEvPT_DpOT0_, symObjAddr: 0x221D8, symBinAddr: 0x100024A70, symSize: 0x44 }
  - { offset: 0x5B77C, size: 0x8, addend: 0x0, symName: __ZNSt3__14pairIKNS0_IddEEmEC1B8ne180100IJOS1_EJEEENS_21piecewise_construct_tENS_5tupleIJDpT_EEENS7_IJDpT0_EEE, symObjAddr: 0x2221C, symBinAddr: 0x100024AB4, symSize: 0x44 }
  - { offset: 0x5B7E3, size: 0x8, addend: 0x0, symName: __ZNSt3__14pairIKNS0_IddEEmEC1B8ne180100IJOS1_EJEJLm0EETpTnmJEEENS_21piecewise_construct_tERNS_5tupleIJDpT_EEERNS7_IJDpT0_EEENS_15__tuple_indicesIJXspT1_EEEENSG_IJXspT2_EEEE, symObjAddr: 0x22260, symBinAddr: 0x100024AF8, symSize: 0x3C }
  - { offset: 0x5B870, size: 0x8, addend: 0x0, symName: __ZNSt3__14pairIKNS0_IddEEmEC2B8ne180100IJOS1_EJEJLm0EETpTnmJEEENS_21piecewise_construct_tERNS_5tupleIJDpT_EEERNS7_IJDpT0_EEENS_15__tuple_indicesIJXspT1_EEEENSG_IJXspT2_EEEE, symObjAddr: 0x2229C, symBinAddr: 0x100024B34, symSize: 0x48 }
  - { offset: 0x5B8FD, size: 0x8, addend: 0x0, symName: __ZNSt3__112__tuple_leafILm0EONS_4pairIddEELb0EE3getB8ne180100Ev, symObjAddr: 0x22308, symBinAddr: 0x100024BA0, symSize: 0x18 }
  - { offset: 0x5B923, size: 0x8, addend: 0x0, symName: __ZNSt3__117__compressed_pairIPNS_11__hash_nodeINS_17__hash_value_typeINS_4pairIddEEmEEPvEENS_22__hash_node_destructorINS_9allocatorIS7_EEEEE6secondB8ne180100Ev, symObjAddr: 0x22320, symBinAddr: 0x100024BB8, symSize: 0x28 }
  - { offset: 0x5B949, size: 0x8, addend: 0x0, symName: __ZNSt3__122__compressed_pair_elemINS_22__hash_node_destructorINS_9allocatorINS_11__hash_nodeINS_17__hash_value_typeINS_4pairIddEEmEEPvEEEEEELi1ELb0EE5__getB8ne180100Ev, symObjAddr: 0x22348, symBinAddr: 0x100024BE0, symSize: 0x14 }
  - { offset: 0x5B96F, size: 0x8, addend: 0x0, symName: __ZNSt3__117__compressed_pairImNS_22__unordered_map_hasherINS_4pairIddEENS_17__hash_value_typeIS3_mEE9pair_hashNS_8equal_toIS3_EELb1EEEE5firstB8ne180100Ev, symObjAddr: 0x2235C, symBinAddr: 0x100024BF4, symSize: 0x24 }
  - { offset: 0x5B995, size: 0x8, addend: 0x0, symName: __ZNSt3__117__compressed_pairIfNS_21__unordered_map_equalINS_4pairIddEENS_17__hash_value_typeIS3_mEENS_8equal_toIS3_EE9pair_hashLb1EEEE5firstB8ne180100Ev, symObjAddr: 0x22380, symBinAddr: 0x100024C18, symSize: 0x24 }
  - { offset: 0x5B9BB, size: 0x8, addend: 0x0, symName: __ZNSt3__112__hash_tableINS_17__hash_value_typeINS_4pairIddEEmEENS_22__unordered_map_hasherIS3_S4_9pair_hashNS_8equal_toIS3_EELb1EEENS_21__unordered_map_equalIS3_S4_S8_S6_Lb1EEENS_9allocatorIS4_EEE8__rehashILb1EEEvm, symObjAddr: 0x223A4, symBinAddr: 0x100024C3C, symSize: 0x194 }
  - { offset: 0x5BA09, size: 0x8, addend: 0x0, symName: __ZNSt3__112__hash_tableINS_17__hash_value_typeINS_4pairIddEEmEENS_22__unordered_map_hasherIS3_S4_9pair_hashNS_8equal_toIS3_EELb1EEENS_21__unordered_map_equalIS3_S4_S8_S6_Lb1EEENS_9allocatorIS4_EEE11__do_rehashILb1EEEvm, symObjAddr: 0x22538, symBinAddr: 0x100024DD0, symSize: 0x260 }
  - { offset: 0x5BAEE, size: 0x8, addend: 0x0, symName: __ZNSt3__110unique_ptrIA_PNS_16__hash_node_baseIPNS_11__hash_nodeINS_17__hash_value_typeINS_4pairIddEEmEEPvEEEENS_25__bucket_list_deallocatorINS_9allocatorISB_EEEEE11get_deleterB8ne180100Ev, symObjAddr: 0x22798, symBinAddr: 0x100025030, symSize: 0x24 }
  - { offset: 0x5BB14, size: 0x8, addend: 0x0, symName: __ZNSt3__110unique_ptrIA_PNS_16__hash_node_baseIPNS_11__hash_nodeINS_17__hash_value_typeINS_4pairIddEEmEEPvEEEENS_25__bucket_list_deallocatorINS_9allocatorISB_EEEEE5resetB8ne180100IPSB_TnNS_9enable_ifIXsr28_CheckArrayPointerConversionIT_EE5valueEiE4typeELi0EEEvSL_, symObjAddr: 0x227BC, symBinAddr: 0x100025054, symSize: 0x70 }
  - { offset: 0x5BB67, size: 0x8, addend: 0x0, symName: __ZNSt3__116allocator_traitsINS_9allocatorIPNS_16__hash_node_baseIPNS_11__hash_nodeINS_17__hash_value_typeINS_4pairIddEEmEEPvEEEEEEE8allocateB8ne180100ERSD_m, symObjAddr: 0x2282C, symBinAddr: 0x1000250C4, symSize: 0x2C }
  - { offset: 0x5BB9A, size: 0x8, addend: 0x0, symName: __ZNSt3__19allocatorIPNS_16__hash_node_baseIPNS_11__hash_nodeINS_17__hash_value_typeINS_4pairIddEEmEEPvEEEEE8allocateB8ne180100Em, symObjAddr: 0x22858, symBinAddr: 0x1000250F0, symSize: 0x54 }
  - { offset: 0x5BBD9, size: 0x8, addend: 0x0, symName: __ZNSt3__116allocator_traitsINS_9allocatorIPNS_16__hash_node_baseIPNS_11__hash_nodeINS_17__hash_value_typeINS_4pairIddEEmEEPvEEEEEEE8max_sizeB8ne180100ISD_vEEmRKSD_, symObjAddr: 0x228AC, symBinAddr: 0x100025144, symSize: 0x24 }
  - { offset: 0x5BC07, size: 0x8, addend: 0x0, symName: __ZNKSt3__19allocatorIPNS_16__hash_node_baseIPNS_11__hash_nodeINS_17__hash_value_typeINS_4pairIddEEmEEPvEEEEE8max_sizeB8ne180100Ev, symObjAddr: 0x228D0, symBinAddr: 0x100025168, symSize: 0x14 }
  - { offset: 0x5BC2D, size: 0x8, addend: 0x0, symName: __ZNSt3__117__compressed_pairIPNS_11__hash_nodeINS_17__hash_value_typeINS_4pairIddEEmEEPvEENS_22__hash_node_destructorINS_9allocatorIS7_EEEEE5firstB8ne180100Ev, symObjAddr: 0x228E4, symBinAddr: 0x10002517C, symSize: 0x24 }
  - { offset: 0x5BC53, size: 0x8, addend: 0x0, symName: __ZNSt3__122__compressed_pair_elemIPNS_11__hash_nodeINS_17__hash_value_typeINS_4pairIddEEmEEPvEELi0ELb0EE5__getB8ne180100Ev, symObjAddr: 0x22908, symBinAddr: 0x1000251A0, symSize: 0x14 }
  - { offset: 0x5BC79, size: 0x8, addend: 0x0, symName: __ZNSt3__110unique_ptrINS_11__hash_nodeINS_17__hash_value_typeINS_4pairIddEEmEEPvEENS_22__hash_node_destructorINS_9allocatorIS7_EEEEED2B8ne180100Ev, symObjAddr: 0x2291C, symBinAddr: 0x1000251B4, symSize: 0x30 }
  - { offset: 0x5BCA3, size: 0x8, addend: 0x0, symName: __ZNSt3__110unique_ptrINS_11__hash_nodeINS_17__hash_value_typeINS_4pairIddEEmEEPvEENS_22__hash_node_destructorINS_9allocatorIS7_EEEEE5resetB8ne180100EPS7_, symObjAddr: 0x2294C, symBinAddr: 0x1000251E4, symSize: 0x70 }
  - { offset: 0x5BCE7, size: 0x8, addend: 0x0, symName: __ZNSt3__122__hash_node_destructorINS_9allocatorINS_11__hash_nodeINS_17__hash_value_typeINS_4pairIddEEmEEPvEEEEEclB8ne180100EPS8_, symObjAddr: 0x229BC, symBinAddr: 0x100025254, symSize: 0x98 }
  - { offset: 0x5BD1C, size: 0x8, addend: 0x0, symName: __ZNSt3__115__hash_iteratorIPNS_11__hash_nodeINS_17__hash_value_typeINS_4pairIddEEmEEPvEEEC2B8ne180100EPNS_16__hash_node_baseIS8_EE, symObjAddr: 0x22A54, symBinAddr: 0x1000252EC, symSize: 0x20 }
  - { offset: 0x5BD55, size: 0x8, addend: 0x0, symName: __ZNSt3__14pairINS_15__hash_iteratorIPNS_11__hash_nodeINS_17__hash_value_typeINS0_IddEEmEEPvEEEEbEC2B8ne180100IS9_RbTnNS_9enable_ifIXclsr10_CheckArgsE17__enable_implicitIT_T0_EEEiE4typeELi0EEEOSE_OSF_, symObjAddr: 0x22A74, symBinAddr: 0x10002530C, symSize: 0x38 }
  - { offset: 0x5BDB3, size: 0x8, addend: 0x0, symName: __ZNSt3__15tupleIJONS_4pairIddEEEEC1B8ne180100IJS2_ETnNS_9enable_ifIXsr4_AndINS_17integral_constantIbXeqsZT_sZT_EEENS4_17_EnableUTypesCtorIJDpT_EEEEE5valueEiE4typeELi0EEEDpOSA_, symObjAddr: 0x22AAC, symBinAddr: 0x100025344, symSize: 0x34 }
  - { offset: 0x5BDFD, size: 0x8, addend: 0x0, symName: __ZNSt3__15tupleIJONS_4pairIddEEEEC2B8ne180100IJS2_ETnNS_9enable_ifIXsr4_AndINS_17integral_constantIbXeqsZT_sZT_EEENS4_17_EnableUTypesCtorIJDpT_EEEEE5valueEiE4typeELi0EEEDpOSA_, symObjAddr: 0x22AE0, symBinAddr: 0x100025378, symSize: 0x34 }
  - { offset: 0x5BE47, size: 0x8, addend: 0x0, symName: __ZNSt3__112__tuple_implINS_15__tuple_indicesIJLm0EEEEJONS_4pairIddEEEEC1B8ne180100IJLm0EEJS5_ETpTnmJEJEJS4_EEENS1_IJXspT_EEEENS_13__tuple_typesIJDpT0_EEENS1_IJXspT1_EEEENS9_IJDpT2_EEEDpOT3_, symObjAddr: 0x22B14, symBinAddr: 0x1000253AC, symSize: 0x34 }
  - { offset: 0x5BEDC, size: 0x8, addend: 0x0, symName: __ZNSt3__112__tuple_implINS_15__tuple_indicesIJLm0EEEEJONS_4pairIddEEEEC2B8ne180100IJLm0EEJS5_ETpTnmJEJEJS4_EEENS1_IJXspT_EEEENS_13__tuple_typesIJDpT0_EEENS1_IJXspT1_EEEENS9_IJDpT2_EEEDpOT3_, symObjAddr: 0x22B48, symBinAddr: 0x1000253E0, symSize: 0x34 }
  - { offset: 0x5BF71, size: 0x8, addend: 0x0, symName: __ZNSt3__112__tuple_leafILm0EONS_4pairIddEELb0EEC2B8ne180100IS2_vEEOT_, symObjAddr: 0x22B7C, symBinAddr: 0x100025414, symSize: 0x20 }
  - { offset: 0x5BFB4, size: 0x8, addend: 0x0, symName: __ZNSt3__114pointer_traitsIPNS_17__hash_value_typeINS_4pairIddEEmEEE10pointer_toB8ne180100ERS4_, symObjAddr: 0x22B9C, symBinAddr: 0x100025434, symSize: 0x14 }
  - { offset: 0x5BFD7, size: 0x8, addend: 0x0, symName: __ZNSt3__123mersenne_twister_engineIjLm32ELm624ELm397ELm31ELj2567483615ELm11ELj4294967295ELm7ELj2636928640ELm15ELj4022730752ELm18ELj1812433253EEC2B8ne180100Ej, symObjAddr: 0x22BB0, symBinAddr: 0x100025448, symSize: 0x34 }
  - { offset: 0x5C00F, size: 0x8, addend: 0x0, symName: __ZNSt3__123mersenne_twister_engineIjLm32ELm624ELm397ELm31ELj2567483615ELm11ELj4294967295ELm7ELj2636928640ELm15ELj4022730752ELm18ELj1812433253EE4seedEj, symObjAddr: 0x22BE4, symBinAddr: 0x10002547C, symSize: 0xC4 }
  - { offset: 0x5C063, size: 0x8, addend: 0x0, symName: __ZNSt3__123mersenne_twister_engineIjLm32ELm624ELm397ELm31ELj2567483615ELm11ELj4294967295ELm7ELj2636928640ELm15ELj4022730752ELm18ELj1812433253EE8__rshiftB8ne180100ILm30ETnNS_9enable_ifIXltT_L_ZNS1_3_DtEEEiE4typeELi0EEEjj, symObjAddr: 0x22CA8, symBinAddr: 0x100025540, symSize: 0x18 }
  - { offset: 0x5C097, size: 0x8, addend: 0x0, symName: __ZNSt3__123mersenne_twister_engineIjLm32ELm624ELm397ELm31ELj2567483615ELm11ELj4294967295ELm7ELj2636928640ELm15ELj4022730752ELm18ELj1812433253EE8__rshiftB8ne180100ILm1ETnNS_9enable_ifIXltT_L_ZNS1_3_DtEEEiE4typeELi0EEEjj, symObjAddr: 0x22CC0, symBinAddr: 0x100025558, symSize: 0x18 }
  - { offset: 0x5C0CB, size: 0x8, addend: 0x0, symName: __ZNSt3__123mersenne_twister_engineIjLm32ELm624ELm397ELm31ELj2567483615ELm11ELj4294967295ELm7ELj2636928640ELm15ELj4022730752ELm18ELj1812433253EE8__rshiftB8ne180100ILm11ETnNS_9enable_ifIXltT_L_ZNS1_3_DtEEEiE4typeELi0EEEjj, symObjAddr: 0x22CD8, symBinAddr: 0x100025570, symSize: 0x18 }
  - { offset: 0x5C0FF, size: 0x8, addend: 0x0, symName: __ZNSt3__123mersenne_twister_engineIjLm32ELm624ELm397ELm31ELj2567483615ELm11ELj4294967295ELm7ELj2636928640ELm15ELj4022730752ELm18ELj1812433253EE8__lshiftB8ne180100ILm7ETnNS_9enable_ifIXltT_Lm32EEiE4typeELi0EEEjj, symObjAddr: 0x22CF0, symBinAddr: 0x100025588, symSize: 0x1C }
  - { offset: 0x5C133, size: 0x8, addend: 0x0, symName: __ZNSt3__123mersenne_twister_engineIjLm32ELm624ELm397ELm31ELj2567483615ELm11ELj4294967295ELm7ELj2636928640ELm15ELj4022730752ELm18ELj1812433253EE8__lshiftB8ne180100ILm15ETnNS_9enable_ifIXltT_Lm32EEiE4typeELi0EEEjj, symObjAddr: 0x22D0C, symBinAddr: 0x1000255A4, symSize: 0x1C }
  - { offset: 0x5C167, size: 0x8, addend: 0x0, symName: __ZNSt3__123mersenne_twister_engineIjLm32ELm624ELm397ELm31ELj2567483615ELm11ELj4294967295ELm7ELj2636928640ELm15ELj4022730752ELm18ELj1812433253EE8__rshiftB8ne180100ILm18ETnNS_9enable_ifIXltT_L_ZNS1_3_DtEEEiE4typeELi0EEEjj, symObjAddr: 0x22D28, symBinAddr: 0x1000255C0, symSize: 0x18 }
  - { offset: 0x5C19B, size: 0x8, addend: 0x0, symName: __ZNSt3__16vectorI4EdgeNS_9allocatorIS1_EEE22__construct_one_at_endB8ne180100IJS1_EEEvDpOT_, symObjAddr: 0x22D40, symBinAddr: 0x1000255D8, symSize: 0x90 }
  - { offset: 0x5C1EA, size: 0x8, addend: 0x0, symName: __ZNSt3__16vectorI4EdgeNS_9allocatorIS1_EEE21__push_back_slow_pathIS1_EEPS1_OT_, symObjAddr: 0x22DD0, symBinAddr: 0x100025668, symSize: 0xE8 }
  - { offset: 0x5C246, size: 0x8, addend: 0x0, symName: __ZNSt3__16vectorINS0_I4EdgeNS_9allocatorIS1_EEEENS2_IS4_EEE11__make_iterB8ne180100EPS4_, symObjAddr: 0x22EB8, symBinAddr: 0x100025750, symSize: 0x30 }
  - { offset: 0x5C27B, size: 0x8, addend: 0x0, symName: __ZNSt3__111__wrap_iterIPNS_6vectorI4EdgeNS_9allocatorIS2_EEEEEC1B8ne180100ES6_, symObjAddr: 0x22EE8, symBinAddr: 0x100025780, symSize: 0x34 }
  - { offset: 0x5C2B3, size: 0x8, addend: 0x0, symName: __ZNSt3__111__wrap_iterIPNS_6vectorI4EdgeNS_9allocatorIS2_EEEEEC2B8ne180100ES6_, symObjAddr: 0x22F1C, symBinAddr: 0x1000257B4, symSize: 0x20 }
  - { offset: 0x5C2EB, size: 0x8, addend: 0x0, symName: __ZNSt3__16vectorIdNS_9allocatorIdEEE22__construct_one_at_endB8ne180100IJRKdEEEvDpOT_, symObjAddr: 0x22F3C, symBinAddr: 0x1000257D4, symSize: 0x90 }
  - { offset: 0x5C33A, size: 0x8, addend: 0x0, symName: __ZNSt3__16vectorIdNS_9allocatorIdEEE21__push_back_slow_pathIRKdEEPdOT_, symObjAddr: 0x22FCC, symBinAddr: 0x100025864, symSize: 0xE8 }
  - { offset: 0x5C396, size: 0x8, addend: 0x0, symName: __ZNKSt3__16vectorI4EdgeNS_9allocatorIS1_EEE17__annotate_shrinkB8ne180100Em, symObjAddr: 0x230B4, symBinAddr: 0x10002594C, symSize: 0x14 }
  - { offset: 0x5C3CB, size: 0x8, addend: 0x0, symName: __ZNSt3__16vectorI4EdgeNS_9allocatorIS1_EEE18__insert_with_sizeB8ne180100INS_11__wrap_iterIPS1_EES8_EES8_NS6_IPKS1_EET_T0_l, symObjAddr: 0x230C8, symBinAddr: 0x100025960, symSize: 0x310 }
  - { offset: 0x5C4F3, size: 0x8, addend: 0x0, symName: __ZNSt3__16vectorI4EdgeNS_9allocatorIS1_EEE18__construct_at_endINS_11__wrap_iterIPS1_EES8_EEvT_T0_m, symObjAddr: 0x234D0, symBinAddr: 0x100025D68, symSize: 0x9C }
  - { offset: 0x5C567, size: 0x8, addend: 0x0, symName: __ZNSt3__16vectorI4EdgeNS_9allocatorIS1_EEE12__move_rangeEPS1_S5_S5_, symObjAddr: 0x2356C, symBinAddr: 0x100025E04, symSize: 0x138 }
  - { offset: 0x5C625, size: 0x8, addend: 0x0, symName: __ZNSt3__114__split_bufferI4EdgeRNS_9allocatorIS1_EEE28__construct_at_end_with_sizeINS_11__wrap_iterIPS1_EEEEvT_m, symObjAddr: 0x236F4, symBinAddr: 0x100025F8C, symSize: 0xCC }
  - { offset: 0x5C67F, size: 0x8, addend: 0x0, symName: __ZNSt3__111__wrap_iterIP4EdgeEpLB8ne180100El, symObjAddr: 0x2394C, symBinAddr: 0x1000261E4, symSize: 0x30 }
  - { offset: 0x5C6B3, size: 0x8, addend: 0x0, symName: __ZNSt3__118__unwrap_iter_implINS_11__wrap_iterIP4EdgeEELb1EE8__unwrapB8ne180100ES4_, symObjAddr: 0x23AA8, symBinAddr: 0x100026340, symSize: 0x28 }
  - { offset: 0x5C6DC, size: 0x8, addend: 0x0, symName: __ZNSt3__119__to_address_helperINS_11__wrap_iterIP4EdgeEEvE6__callB8ne180100ERKS4_, symObjAddr: 0x23AF4, symBinAddr: 0x10002638C, symSize: 0x30 }
  - { offset: 0x5C6FF, size: 0x8, addend: 0x0, symName: __ZNSt3__114pointer_traitsINS_11__wrap_iterIP4EdgeEEE10to_addressB8ne180100ES4_, symObjAddr: 0x23B24, symBinAddr: 0x1000263BC, symSize: 0x2C }
  - { offset: 0x5C72D, size: 0x8, addend: 0x0, symName: __ZNKSt3__120__move_backward_loopINS_17_ClassicAlgPolicyEEclB8ne180100IP4EdgeS5_S5_EENS_4pairIT_T1_EES7_T0_S8_, symObjAddr: 0x23CCC, symBinAddr: 0x100026564, symSize: 0xA0 }
  - { offset: 0x5C7B4, size: 0x8, addend: 0x0, symName: __ZNSt3__18_IterOpsINS_17_ClassicAlgPolicyEE4nextB8ne180100IP4EdgeEET_S6_S6_, symObjAddr: 0x23D98, symBinAddr: 0x100026630, symSize: 0x18 }
  - { offset: 0x5C7F0, size: 0x8, addend: 0x0, symName: __ZNSt3__18_IterOpsINS_17_ClassicAlgPolicyEE11__iter_moveB8ne180100IRP4EdgeTnNS_9enable_ifIXsr12is_referenceIDTdeclsr3stdE7declvalIRT_EEEEE5valueEiE4typeELi0EEEDTclsr3stdE4movedeclsr3stdE7declvalIS9_EEEEOS8_, symObjAddr: 0x23DB0, symBinAddr: 0x100026648, symSize: 0x28 }
  - { offset: 0x5C822, size: 0x8, addend: 0x0, symName: __ZN4EdgeaSEOS_, symObjAddr: 0x23DD8, symBinAddr: 0x100026670, symSize: 0x48 }
  - { offset: 0x5C853, size: 0x8, addend: 0x0, symName: __ZNSt3__18_IterOpsINS_17_ClassicAlgPolicyEE25__validate_iter_referenceB8ne180100IRP4EdgeEEvv, symObjAddr: 0x23E20, symBinAddr: 0x1000266B8, symSize: 0x4 }
  - { offset: 0x5C87C, size: 0x8, addend: 0x0, symName: __ZNKSt3__111__copy_loopINS_17_ClassicAlgPolicyEEclB8ne180100IP4EdgeS5_S5_EENS_4pairIT_T1_EES7_T0_S8_, symObjAddr: 0x23F98, symBinAddr: 0x100026830, symSize: 0x84 }
  - { offset: 0x5C8E7, size: 0x8, addend: 0x0, symName: __ZN4EdgeaSERKS_, symObjAddr: 0x24090, symBinAddr: 0x100026928, symSize: 0x48 }
  - { offset: 0x5C918, size: 0x8, addend: 0x0, symName: __ZNSt3__16vectorIdNS_9allocatorIdEEEaSB8ne180100ERKS3_, symObjAddr: 0x240D8, symBinAddr: 0x100026970, symSize: 0x64 }
  - { offset: 0x5C94F, size: 0x8, addend: 0x0, symName: __ZNSt3__16vectorIdNS_9allocatorIdEEE19__copy_assign_allocB8ne180100ERKS3_, symObjAddr: 0x2413C, symBinAddr: 0x1000269D4, symSize: 0x2C }
  - { offset: 0x5C984, size: 0x8, addend: 0x0, symName: __ZNSt3__16vectorIdNS_9allocatorIdEEE6assignIPdTnNS_9enable_ifIXaasr31__has_forward_iterator_categoryIT_EE5valuesr16is_constructibleIdNS_15iterator_traitsIS7_E9referenceEEE5valueEiE4typeELi0EEEvS7_S7_, symObjAddr: 0x24168, symBinAddr: 0x100026A00, symSize: 0x5C }
  - { offset: 0x5C9D7, size: 0x8, addend: 0x0, symName: __ZNSt3__16vectorIdNS_9allocatorIdEEE19__copy_assign_allocB8ne180100ERKS3_NS_17integral_constantIbLb0EEE, symObjAddr: 0x241C4, symBinAddr: 0x100026A5C, symSize: 0x14 }
  - { offset: 0x5CA15, size: 0x8, addend: 0x0, symName: __ZNSt3__16vectorIdNS_9allocatorIdEEE18__assign_with_sizeB8ne180100IPdS5_EEvT_T0_l, symObjAddr: 0x241D8, symBinAddr: 0x100026A70, symSize: 0x15C }
  - { offset: 0x5CAC5, size: 0x8, addend: 0x0, symName: __ZNSt3__16vectorIdNS_9allocatorIdEEE17__destruct_at_endB8ne180100EPd, symObjAddr: 0x24394, symBinAddr: 0x100026C2C, symSize: 0x4C }
  - { offset: 0x5CB09, size: 0x8, addend: 0x0, symName: __ZNSt3__16vectorIdNS_9allocatorIdEEE13__vdeallocateEv, symObjAddr: 0x243E0, symBinAddr: 0x100026C78, symSize: 0x8C }
  - { offset: 0x5CB31, size: 0x8, addend: 0x0, symName: __ZNKSt3__16vectorIdNS_9allocatorIdEEE17__annotate_shrinkB8ne180100Em, symObjAddr: 0x244CC, symBinAddr: 0x100026D64, symSize: 0x14 }
  - { offset: 0x5CB66, size: 0x8, addend: 0x0, symName: __ZNSt3__16vectorIdNS_9allocatorIdEEE5clearB8ne180100Ev, symObjAddr: 0x244E0, symBinAddr: 0x100026D78, symSize: 0x44 }
  - { offset: 0x5CBBE, size: 0x8, addend: 0x0, symName: __ZNSt3__14pairINS_11__wrap_iterIP4EdgeEES3_EC1B8ne180100IS4_S3_TnNS_9enable_ifIXclsr10_CheckArgsE17__enable_implicitIT_T0_EEEiE4typeELi0EEEOS8_OS9_, symObjAddr: 0x2454C, symBinAddr: 0x100026DE4, symSize: 0x3C }
  - { offset: 0x5CC1C, size: 0x8, addend: 0x0, symName: __ZNSt3__14pairINS_11__wrap_iterIP4EdgeEES3_EC2B8ne180100IS4_S3_TnNS_9enable_ifIXclsr10_CheckArgsE17__enable_implicitIT_T0_EEEiE4typeELi0EEEOS8_OS9_, symObjAddr: 0x24588, symBinAddr: 0x100026E20, symSize: 0x34 }
  - { offset: 0x5CC7A, size: 0x8, addend: 0x0, symName: __ZNSt3__118__unwrap_iter_implINS_11__wrap_iterIP4EdgeEELb1EE8__rewrapB8ne180100ES4_S3_, symObjAddr: 0x24608, symBinAddr: 0x100026EA0, symSize: 0x5C }
  - { offset: 0x5CCAB, size: 0x8, addend: 0x0, symName: __ZNKSt3__111__wrap_iterIP4EdgeEplB8ne180100El, symObjAddr: 0x24664, symBinAddr: 0x100026EFC, symSize: 0x3C }
  - { offset: 0x5CCF9, size: 0x8, addend: 0x0, symName: __ZNSt3__114__split_bufferI4EdgeRNS_9allocatorIS1_EEE21_ConstructTransactionC1B8ne180100EPPS1_m, symObjAddr: 0x246A0, symBinAddr: 0x100026F38, symSize: 0x3C }
  - { offset: 0x5CD3F, size: 0x8, addend: 0x0, symName: __ZNSt3__114__split_bufferI4EdgeRNS_9allocatorIS1_EEE21_ConstructTransactionD1B8ne180100Ev, symObjAddr: 0x246DC, symBinAddr: 0x100026F74, symSize: 0x2C }
  - { offset: 0x5CD69, size: 0x8, addend: 0x0, symName: __ZNSt3__114__split_bufferI4EdgeRNS_9allocatorIS1_EEE21_ConstructTransactionC2B8ne180100EPPS1_m, symObjAddr: 0x24708, symBinAddr: 0x100026FA0, symSize: 0x4C }
  - { offset: 0x5CDAF, size: 0x8, addend: 0x0, symName: __ZNSt3__114__split_bufferI4EdgeRNS_9allocatorIS1_EEE21_ConstructTransactionD2B8ne180100Ev, symObjAddr: 0x24754, symBinAddr: 0x100026FEC, symSize: 0x20 }
  - { offset: 0x5CDD9, size: 0x8, addend: 0x0, symName: __ZNKSt3__16vectorINS0_I4EdgeNS_9allocatorIS1_EEEENS2_IS4_EEE17__annotate_shrinkB8ne180100Em, symObjAddr: 0x248DC, symBinAddr: 0x100027174, symSize: 0x14 }
  - { offset: 0x5CE0E, size: 0x8, addend: 0x0, symName: __ZNSt3__16vectorINS0_I4EdgeNS_9allocatorIS1_EEEENS2_IS4_EEE13__move_assignERS6_NS_17integral_constantIbLb1EEE, symObjAddr: 0x248F0, symBinAddr: 0x100027188, symSize: 0x94 }
  - { offset: 0x5CE51, size: 0x8, addend: 0x0, symName: __ZNSt3__16vectorINS0_I4EdgeNS_9allocatorIS1_EEEENS2_IS4_EEE13__vdeallocateEv, symObjAddr: 0x24984, symBinAddr: 0x10002721C, symSize: 0x8C }
  - { offset: 0x5CE79, size: 0x8, addend: 0x0, symName: __ZNSt3__16vectorINS0_I4EdgeNS_9allocatorIS1_EEEENS2_IS4_EEE19__move_assign_allocB8ne180100ERS6_, symObjAddr: 0x24A10, symBinAddr: 0x1000272A8, symSize: 0x2C }
  - { offset: 0x5CEAE, size: 0x8, addend: 0x0, symName: __ZNSt3__16vectorINS0_I4EdgeNS_9allocatorIS1_EEEENS2_IS4_EEE19__move_assign_allocB8ne180100ERS6_NS_17integral_constantIbLb1EEE, symObjAddr: 0x24A3C, symBinAddr: 0x1000272D4, symSize: 0x38 }
  - { offset: 0x5CEEF, size: 0x8, addend: 0x0, symName: __ZNSt3__18functionIFdRKNS_10shared_ptrI4NodeEES5_EEC2I9h_functorvEET_, symObjAddr: 0x24A74, symBinAddr: 0x10002730C, symSize: 0x38 }
  - { offset: 0x5CF32, size: 0x8, addend: 0x0, symName: __ZNSt3__110__function12__value_funcIFdRKNS_10shared_ptrI4NodeEES6_EEC1B8ne180100I9h_functorTnNS_9enable_ifIXntsr7is_sameIu7__decayIT_ES8_EE5valueEiE4typeELi0EEEOSC_, symObjAddr: 0x24AAC, symBinAddr: 0x100027344, symSize: 0x50 }
  - { offset: 0x5CF7A, size: 0x8, addend: 0x0, symName: __ZNSt3__19allocatorI9h_functorEC1B8ne180100Ev, symObjAddr: 0x24AFC, symBinAddr: 0x100027394, symSize: 0x2C }
  - { offset: 0x5CFA4, size: 0x8, addend: 0x0, symName: __ZNSt3__110__function12__value_funcIFdRKNS_10shared_ptrI4NodeEES6_EEC1B8ne180100I9h_functorNS_9allocatorISA_EEEEOT_RKT0_, symObjAddr: 0x24B28, symBinAddr: 0x1000273C0, symSize: 0x3C }
  - { offset: 0x5CFFE, size: 0x8, addend: 0x0, symName: __ZNSt3__19allocatorI9h_functorEC2B8ne180100Ev, symObjAddr: 0x24B64, symBinAddr: 0x1000273FC, symSize: 0x2C }
  - { offset: 0x5D028, size: 0x8, addend: 0x0, symName: __ZNSt3__116__non_trivial_ifILb1ENS_9allocatorI9h_functorEEEC2B8ne180100Ev, symObjAddr: 0x24B90, symBinAddr: 0x100027428, symSize: 0x14 }
  - { offset: 0x5D052, size: 0x8, addend: 0x0, symName: __ZNSt3__110__function12__value_funcIFdRKNS_10shared_ptrI4NodeEES6_EEC2B8ne180100I9h_functorNS_9allocatorISA_EEEEOT_RKT0_, symObjAddr: 0x24BA4, symBinAddr: 0x10002743C, symSize: 0x94 }
  - { offset: 0x5D0FF, size: 0x8, addend: 0x0, symName: __ZNSt3__19allocatorINS_10__function6__funcI9h_functorNS0_IS3_EEFdRKNS_10shared_ptrI4NodeEES9_EEEEC1B8ne180100IS3_EERKNS0_IT_EE, symObjAddr: 0x24C50, symBinAddr: 0x1000274E8, symSize: 0x34 }
  - { offset: 0x5D142, size: 0x8, addend: 0x0, symName: __ZNSt3__19allocatorI9h_functorEC1B8ne180100INS_10__function6__funcIS1_S2_FdRKNS_10shared_ptrI4NodeEESA_EEEEERKNS0_IT_EE, symObjAddr: 0x24C84, symBinAddr: 0x10002751C, symSize: 0x34 }
  - { offset: 0x5D17F, size: 0x8, addend: 0x0, symName: __ZNSt3__110__function6__funcI9h_functorNS_9allocatorIS2_EEFdRKNS_10shared_ptrI4NodeEES9_EEC1B8ne180100EOS2_OS4_, symObjAddr: 0x24CB8, symBinAddr: 0x100027550, symSize: 0x3C }
  - { offset: 0x5D1C7, size: 0x8, addend: 0x0, symName: __ZNSt3__19allocatorINS_10__function6__funcI9h_functorNS0_IS3_EEFdRKNS_10shared_ptrI4NodeEES9_EEEEC2B8ne180100IS3_EERKNS0_IT_EE, symObjAddr: 0x24CF4, symBinAddr: 0x10002758C, symSize: 0x30 }
  - { offset: 0x5D204, size: 0x8, addend: 0x0, symName: __ZNSt3__116__non_trivial_ifILb1ENS_9allocatorINS_10__function6__funcI9h_functorNS1_IS4_EEFdRKNS_10shared_ptrI4NodeEESA_EEEEEEC2B8ne180100Ev, symObjAddr: 0x24D24, symBinAddr: 0x1000275BC, symSize: 0x14 }
  - { offset: 0x5D22E, size: 0x8, addend: 0x0, symName: __ZNSt3__19allocatorI9h_functorEC2B8ne180100INS_10__function6__funcIS1_S2_FdRKNS_10shared_ptrI4NodeEESA_EEEEERKNS0_IT_EE, symObjAddr: 0x24D38, symBinAddr: 0x1000275D0, symSize: 0x30 }
  - { offset: 0x5D26B, size: 0x8, addend: 0x0, symName: __ZNSt3__110__function6__funcI9h_functorNS_9allocatorIS2_EEFdRKNS_10shared_ptrI4NodeEES9_EEC2B8ne180100EOS2_OS4_, symObjAddr: 0x24D68, symBinAddr: 0x100027600, symSize: 0x80 }
  - { offset: 0x5D2B3, size: 0x8, addend: 0x0, symName: __ZNSt3__110__function6__baseIFdRKNS_10shared_ptrI4NodeEES6_EEC2B8ne180100Ev, symObjAddr: 0x24DE8, symBinAddr: 0x100027680, symSize: 0x24 }
  - { offset: 0x5D2DD, size: 0x8, addend: 0x0, symName: __ZNSt3__110__function12__alloc_funcI9h_functorNS_9allocatorIS2_EEFdRKNS_10shared_ptrI4NodeEES9_EEC1B8ne180100EOS2_OS4_, symObjAddr: 0x24E0C, symBinAddr: 0x1000276A4, symSize: 0x3C }
  - { offset: 0x5D323, size: 0x8, addend: 0x0, symName: __ZNSt3__110__function6__baseIFdRKNS_10shared_ptrI4NodeEES6_EED2Ev, symObjAddr: 0x24E48, symBinAddr: 0x1000276E0, symSize: 0x14 }
  - { offset: 0x5D34D, size: 0x8, addend: 0x0, symName: __ZNSt3__110__function6__funcI9h_functorNS_9allocatorIS2_EEFdRKNS_10shared_ptrI4NodeEES9_EED1Ev, symObjAddr: 0x24E5C, symBinAddr: 0x1000276F4, symSize: 0x2C }
  - { offset: 0x5D379, size: 0x8, addend: 0x0, symName: __ZNSt3__110__function6__funcI9h_functorNS_9allocatorIS2_EEFdRKNS_10shared_ptrI4NodeEES9_EED0Ev, symObjAddr: 0x24E88, symBinAddr: 0x100027720, symSize: 0x30 }
  - { offset: 0x5D3A5, size: 0x8, addend: 0x0, symName: __ZNKSt3__110__function6__funcI9h_functorNS_9allocatorIS2_EEFdRKNS_10shared_ptrI4NodeEES9_EE7__cloneEv, symObjAddr: 0x24EB8, symBinAddr: 0x100027750, symSize: 0xFC }
  - { offset: 0x5D3F5, size: 0x8, addend: 0x0, symName: __ZNKSt3__110__function6__funcI9h_functorNS_9allocatorIS2_EEFdRKNS_10shared_ptrI4NodeEES9_EE7__cloneEPNS0_6__baseISA_EE, symObjAddr: 0x24FB4, symBinAddr: 0x10002784C, symSize: 0x58 }
  - { offset: 0x5D42A, size: 0x8, addend: 0x0, symName: __ZNSt3__110__function6__funcI9h_functorNS_9allocatorIS2_EEFdRKNS_10shared_ptrI4NodeEES9_EE7destroyEv, symObjAddr: 0x2500C, symBinAddr: 0x1000278A4, symSize: 0x28 }
  - { offset: 0x5D450, size: 0x8, addend: 0x0, symName: __ZNSt3__110__function6__funcI9h_functorNS_9allocatorIS2_EEFdRKNS_10shared_ptrI4NodeEES9_EE18destroy_deallocateEv, symObjAddr: 0x25034, symBinAddr: 0x1000278CC, symSize: 0x58 }
  - { offset: 0x5D491, size: 0x8, addend: 0x0, symName: __ZNSt3__110__function6__funcI9h_functorNS_9allocatorIS2_EEFdRKNS_10shared_ptrI4NodeEES9_EEclES9_S9_, symObjAddr: 0x2508C, symBinAddr: 0x100027924, symSize: 0x38 }
  - { offset: 0x5D4D5, size: 0x8, addend: 0x0, symName: __ZNKSt3__110__function6__funcI9h_functorNS_9allocatorIS2_EEFdRKNS_10shared_ptrI4NodeEES9_EE6targetERKSt9type_info, symObjAddr: 0x250C4, symBinAddr: 0x10002795C, symSize: 0x60 }
  - { offset: 0x5D50A, size: 0x8, addend: 0x0, symName: __ZNKSt3__110__function6__funcI9h_functorNS_9allocatorIS2_EEFdRKNS_10shared_ptrI4NodeEES9_EE11target_typeEv, symObjAddr: 0x25124, symBinAddr: 0x1000279BC, symSize: 0x18 }
  - { offset: 0x5D530, size: 0x8, addend: 0x0, symName: __ZNSt3__110__function6__baseIFdRKNS_10shared_ptrI4NodeEES6_EED1Ev, symObjAddr: 0x2513C, symBinAddr: 0x1000279D4, symSize: 0x14 }
  - { offset: 0x5D55A, size: 0x8, addend: 0x0, symName: __ZNSt3__110__function6__baseIFdRKNS_10shared_ptrI4NodeEES6_EED0Ev, symObjAddr: 0x25150, symBinAddr: 0x1000279E8, symSize: 0xC }
  - { offset: 0x5D584, size: 0x8, addend: 0x0, symName: __ZNSt3__110__function12__alloc_funcI9h_functorNS_9allocatorIS2_EEFdRKNS_10shared_ptrI4NodeEES9_EEC2B8ne180100EOS2_OS4_, symObjAddr: 0x2515C, symBinAddr: 0x1000279F4, symSize: 0x5C }
  - { offset: 0x5D5CA, size: 0x8, addend: 0x0, symName: __ZNSt3__117__compressed_pairI9h_functorNS_9allocatorIS1_EEEC1B8ne180100IJOS1_EJOS3_EEENS_21piecewise_construct_tENS_5tupleIJDpT_EEENS9_IJDpT0_EEE, symObjAddr: 0x25210, symBinAddr: 0x100027AA8, symSize: 0x3C }
  - { offset: 0x5D634, size: 0x8, addend: 0x0, symName: __ZNSt3__15tupleIJO9h_functorEEC1B8ne180100IJS1_ETnNS_9enable_ifIXsr4_AndINS_17integral_constantIbXeqsZT_sZT_EEENS3_17_EnableUTypesCtorIJDpT_EEEEE5valueEiE4typeELi0EEEDpOS9_, symObjAddr: 0x2524C, symBinAddr: 0x100027AE4, symSize: 0x34 }
  - { offset: 0x5D67E, size: 0x8, addend: 0x0, symName: __ZNSt3__15tupleIJO9h_functorEEC2B8ne180100IJS1_ETnNS_9enable_ifIXsr4_AndINS_17integral_constantIbXeqsZT_sZT_EEENS3_17_EnableUTypesCtorIJDpT_EEEEE5valueEiE4typeELi0EEEDpOS9_, symObjAddr: 0x25280, symBinAddr: 0x100027B18, symSize: 0x34 }
  - { offset: 0x5D6C8, size: 0x8, addend: 0x0, symName: __ZNSt3__112__tuple_implINS_15__tuple_indicesIJLm0EEEEJO9h_functorEEC1B8ne180100IJLm0EEJS4_ETpTnmJEJEJS3_EEENS1_IJXspT_EEEENS_13__tuple_typesIJDpT0_EEENS1_IJXspT1_EEEENS8_IJDpT2_EEEDpOT3_, symObjAddr: 0x252B4, symBinAddr: 0x100027B4C, symSize: 0x34 }
  - { offset: 0x5D75D, size: 0x8, addend: 0x0, symName: __ZNSt3__112__tuple_implINS_15__tuple_indicesIJLm0EEEEJO9h_functorEEC2B8ne180100IJLm0EEJS4_ETpTnmJEJEJS3_EEENS1_IJXspT_EEEENS_13__tuple_typesIJDpT0_EEENS1_IJXspT1_EEEENS8_IJDpT2_EEEDpOT3_, symObjAddr: 0x252E8, symBinAddr: 0x100027B80, symSize: 0x34 }
  - { offset: 0x5D7F2, size: 0x8, addend: 0x0, symName: __ZNSt3__112__tuple_leafILm0EO9h_functorLb0EEC2B8ne180100IS1_vEEOT_, symObjAddr: 0x2531C, symBinAddr: 0x100027BB4, symSize: 0x20 }
  - { offset: 0x5D835, size: 0x8, addend: 0x0, symName: __ZNSt3__15tupleIJONS_9allocatorI9h_functorEEEEC1B8ne180100IJS3_ETnNS_9enable_ifIXsr4_AndINS_17integral_constantIbXeqsZT_sZT_EEENS5_17_EnableUTypesCtorIJDpT_EEEEE5valueEiE4typeELi0EEEDpOSB_, symObjAddr: 0x2533C, symBinAddr: 0x100027BD4, symSize: 0x34 }
  - { offset: 0x5D87F, size: 0x8, addend: 0x0, symName: __ZNSt3__15tupleIJONS_9allocatorI9h_functorEEEEC2B8ne180100IJS3_ETnNS_9enable_ifIXsr4_AndINS_17integral_constantIbXeqsZT_sZT_EEENS5_17_EnableUTypesCtorIJDpT_EEEEE5valueEiE4typeELi0EEEDpOSB_, symObjAddr: 0x25370, symBinAddr: 0x100027C08, symSize: 0x34 }
  - { offset: 0x5D8C9, size: 0x8, addend: 0x0, symName: __ZNSt3__112__tuple_implINS_15__tuple_indicesIJLm0EEEEJONS_9allocatorI9h_functorEEEEC1B8ne180100IJLm0EEJS6_ETpTnmJEJEJS5_EEENS1_IJXspT_EEEENS_13__tuple_typesIJDpT0_EEENS1_IJXspT1_EEEENSA_IJDpT2_EEEDpOT3_, symObjAddr: 0x253A4, symBinAddr: 0x100027C3C, symSize: 0x34 }
  - { offset: 0x5D95E, size: 0x8, addend: 0x0, symName: __ZNSt3__112__tuple_implINS_15__tuple_indicesIJLm0EEEEJONS_9allocatorI9h_functorEEEEC2B8ne180100IJLm0EEJS6_ETpTnmJEJEJS5_EEENS1_IJXspT_EEEENS_13__tuple_typesIJDpT0_EEENS1_IJXspT1_EEEENSA_IJDpT2_EEEDpOT3_, symObjAddr: 0x253D8, symBinAddr: 0x100027C70, symSize: 0x34 }
  - { offset: 0x5D9F3, size: 0x8, addend: 0x0, symName: __ZNSt3__112__tuple_leafILm0EONS_9allocatorI9h_functorEELb0EEC2B8ne180100IS3_vEEOT_, symObjAddr: 0x2540C, symBinAddr: 0x100027CA4, symSize: 0x20 }
  - { offset: 0x5DA36, size: 0x8, addend: 0x0, symName: __ZNSt3__117__compressed_pairI9h_functorNS_9allocatorIS1_EEEC2B8ne180100IJOS1_EJOS3_EEENS_21piecewise_construct_tENS_5tupleIJDpT_EEENS9_IJDpT0_EEE, symObjAddr: 0x2542C, symBinAddr: 0x100027CC4, symSize: 0x54 }
  - { offset: 0x5DAA0, size: 0x8, addend: 0x0, symName: __ZNSt3__122__compressed_pair_elemI9h_functorLi0ELb0EEC2B8ne180100IJOS1_EJLm0EEEENS_21piecewise_construct_tENS_5tupleIJDpT_EEENS_15__tuple_indicesIJXspT0_EEEE, symObjAddr: 0x25480, symBinAddr: 0x100027D18, symSize: 0x44 }
  - { offset: 0x5DB03, size: 0x8, addend: 0x0, symName: __ZNSt3__122__compressed_pair_elemINS_9allocatorI9h_functorEELi1ELb1EEC2B8ne180100IJOS3_EJLm0EEEENS_21piecewise_construct_tENS_5tupleIJDpT_EEENS_15__tuple_indicesIJXspT0_EEEE, symObjAddr: 0x254C4, symBinAddr: 0x100027D5C, symSize: 0x38 }
  - { offset: 0x5DB66, size: 0x8, addend: 0x0, symName: __ZNSt3__112__tuple_leafILm0EO9h_functorLb0EE3getB8ne180100Ev, symObjAddr: 0x25520, symBinAddr: 0x100027DB8, symSize: 0x18 }
  - { offset: 0x5DB8C, size: 0x8, addend: 0x0, symName: __ZNSt3__112__tuple_leafILm0EONS_9allocatorI9h_functorEELb0EE3getB8ne180100Ev, symObjAddr: 0x2555C, symBinAddr: 0x100027DF4, symSize: 0x18 }
  - { offset: 0x5DBB2, size: 0x8, addend: 0x0, symName: __ZNSt3__110__function6__funcI9h_functorNS_9allocatorIS2_EEFdRKNS_10shared_ptrI4NodeEES9_EED2Ev, symObjAddr: 0x25574, symBinAddr: 0x100027E0C, symSize: 0x2C }
  - { offset: 0x5DBDE, size: 0x8, addend: 0x0, symName: __ZNKSt3__110__function12__alloc_funcI9h_functorNS_9allocatorIS2_EEFdRKNS_10shared_ptrI4NodeEES9_EE15__get_allocatorB8ne180100Ev, symObjAddr: 0x255A0, symBinAddr: 0x100027E38, symSize: 0x24 }
  - { offset: 0x5DC04, size: 0x8, addend: 0x0, symName: __ZNSt3__19allocatorINS_10__function6__funcI9h_functorNS0_IS3_EEFdRKNS_10shared_ptrI4NodeEES9_EEEE8allocateB8ne180100Em, symObjAddr: 0x255C4, symBinAddr: 0x100027E5C, symSize: 0x54 }
  - { offset: 0x5DC4A, size: 0x8, addend: 0x0, symName: __ZNSt3__122__allocator_destructorINS_9allocatorINS_10__function6__funcI9h_functorNS1_IS4_EEFdRKNS_10shared_ptrI4NodeEESA_EEEEEEC1B8ne180100ERSD_m, symObjAddr: 0x25618, symBinAddr: 0x100027EB0, symSize: 0x3C }
  - { offset: 0x5DD31, size: 0x8, addend: 0x0, symName: __ZNSt3__110unique_ptrINS_10__function6__funcI9h_functorNS_9allocatorIS3_EEFdRKNS_10shared_ptrI4NodeEESA_EEENS_22__allocator_destructorINS4_ISC_EEEEEC1B8ne180100ILb1EvEEPSC_NS_16__dependent_typeINS_27__unique_ptr_deleter_sfinaeISF_EEXT_EE20__good_rval_ref_typeE, symObjAddr: 0x25654, symBinAddr: 0x100027EEC, symSize: 0x3C }
  - { offset: 0x5DD82, size: 0x8, addend: 0x0, symName: __ZNKSt3__110unique_ptrINS_10__function6__funcI9h_functorNS_9allocatorIS3_EEFdRKNS_10shared_ptrI4NodeEESA_EEENS_22__allocator_destructorINS4_ISC_EEEEE3getB8ne180100Ev, symObjAddr: 0x25690, symBinAddr: 0x100027F28, symSize: 0x28 }
  - { offset: 0x5DDA8, size: 0x8, addend: 0x0, symName: __ZNKSt3__110__function12__alloc_funcI9h_functorNS_9allocatorIS2_EEFdRKNS_10shared_ptrI4NodeEES9_EE8__targetB8ne180100Ev, symObjAddr: 0x256B8, symBinAddr: 0x100027F50, symSize: 0x24 }
  - { offset: 0x5DDCE, size: 0x8, addend: 0x0, symName: __ZNSt3__110__function6__funcI9h_functorNS_9allocatorIS2_EEFdRKNS_10shared_ptrI4NodeEES9_EEC1B8ne180100ERKS2_OS4_, symObjAddr: 0x256DC, symBinAddr: 0x100027F74, symSize: 0x3C }
  - { offset: 0x5DE16, size: 0x8, addend: 0x0, symName: __ZNSt3__110unique_ptrINS_10__function6__funcI9h_functorNS_9allocatorIS3_EEFdRKNS_10shared_ptrI4NodeEESA_EEENS_22__allocator_destructorINS4_ISC_EEEEE7releaseB8ne180100Ev, symObjAddr: 0x25718, symBinAddr: 0x100027FB0, symSize: 0x44 }
  - { offset: 0x5DE4B, size: 0x8, addend: 0x0, symName: __ZNSt3__110unique_ptrINS_10__function6__funcI9h_functorNS_9allocatorIS3_EEFdRKNS_10shared_ptrI4NodeEESA_EEENS_22__allocator_destructorINS4_ISC_EEEEED1B8ne180100Ev, symObjAddr: 0x2575C, symBinAddr: 0x100027FF4, symSize: 0x2C }
  - { offset: 0x5DE75, size: 0x8, addend: 0x0, symName: __ZNKSt3__117__compressed_pairI9h_functorNS_9allocatorIS1_EEE6secondB8ne180100Ev, symObjAddr: 0x25788, symBinAddr: 0x100028020, symSize: 0x24 }
  - { offset: 0x5DE9B, size: 0x8, addend: 0x0, symName: __ZNKSt3__122__compressed_pair_elemINS_9allocatorI9h_functorEELi1ELb1EE5__getB8ne180100Ev, symObjAddr: 0x257AC, symBinAddr: 0x100028044, symSize: 0x14 }
  - { offset: 0x5DECC, size: 0x8, addend: 0x0, symName: __ZNSt3__116allocator_traitsINS_9allocatorINS_10__function6__funcI9h_functorNS1_IS4_EEFdRKNS_10shared_ptrI4NodeEESA_EEEEEE8max_sizeB8ne180100ISD_vEEmRKSD_, symObjAddr: 0x257C0, symBinAddr: 0x100028058, symSize: 0x24 }
  - { offset: 0x5DEFA, size: 0x8, addend: 0x0, symName: __ZNKSt3__19allocatorINS_10__function6__funcI9h_functorNS0_IS3_EEFdRKNS_10shared_ptrI4NodeEES9_EEEE8max_sizeB8ne180100Ev, symObjAddr: 0x257E4, symBinAddr: 0x10002807C, symSize: 0x14 }
  - { offset: 0x5DF20, size: 0x8, addend: 0x0, symName: __ZNSt3__122__allocator_destructorINS_9allocatorINS_10__function6__funcI9h_functorNS1_IS4_EEFdRKNS_10shared_ptrI4NodeEESA_EEEEEEC2B8ne180100ERSD_m, symObjAddr: 0x257F8, symBinAddr: 0x100028090, symSize: 0x2C }
  - { offset: 0x5DF66, size: 0x8, addend: 0x0, symName: __ZNSt3__110unique_ptrINS_10__function6__funcI9h_functorNS_9allocatorIS3_EEFdRKNS_10shared_ptrI4NodeEESA_EEENS_22__allocator_destructorINS4_ISC_EEEEEC2B8ne180100ILb1EvEEPSC_NS_16__dependent_typeINS_27__unique_ptr_deleter_sfinaeISF_EEXT_EE20__good_rval_ref_typeE, symObjAddr: 0x25824, symBinAddr: 0x1000280BC, symSize: 0x48 }
  - { offset: 0x5DFB7, size: 0x8, addend: 0x0, symName: __ZNSt3__117__compressed_pairIPNS_10__function6__funcI9h_functorNS_9allocatorIS3_EEFdRKNS_10shared_ptrI4NodeEESA_EEENS_22__allocator_destructorINS4_ISC_EEEEEC1B8ne180100IRSD_SG_EEOT_OT0_, symObjAddr: 0x2586C, symBinAddr: 0x100028104, symSize: 0x3C }
  - { offset: 0x5E00F, size: 0x8, addend: 0x0, symName: __ZNSt3__117__compressed_pairIPNS_10__function6__funcI9h_functorNS_9allocatorIS3_EEFdRKNS_10shared_ptrI4NodeEESA_EEENS_22__allocator_destructorINS4_ISC_EEEEEC2B8ne180100IRSD_SG_EEOT_OT0_, symObjAddr: 0x258A8, symBinAddr: 0x100028140, symSize: 0x48 }
  - { offset: 0x5E067, size: 0x8, addend: 0x0, symName: __ZNSt3__122__compressed_pair_elemIPNS_10__function6__funcI9h_functorNS_9allocatorIS3_EEFdRKNS_10shared_ptrI4NodeEESA_EEELi0ELb0EEC2B8ne180100IRSD_vEEOT_, symObjAddr: 0x258F0, symBinAddr: 0x100028188, symSize: 0x24 }
  - { offset: 0x5E0A9, size: 0x8, addend: 0x0, symName: __ZNSt3__122__compressed_pair_elemINS_22__allocator_destructorINS_9allocatorINS_10__function6__funcI9h_functorNS2_IS5_EEFdRKNS_10shared_ptrI4NodeEESB_EEEEEEELi1ELb0EEC2B8ne180100ISF_vEEOT_, symObjAddr: 0x25914, symBinAddr: 0x1000281AC, symSize: 0x24 }
  - { offset: 0x5E0EB, size: 0x8, addend: 0x0, symName: __ZNKSt3__117__compressed_pairIPNS_10__function6__funcI9h_functorNS_9allocatorIS3_EEFdRKNS_10shared_ptrI4NodeEESA_EEENS_22__allocator_destructorINS4_ISC_EEEEE5firstB8ne180100Ev, symObjAddr: 0x25938, symBinAddr: 0x1000281D0, symSize: 0x24 }
  - { offset: 0x5E111, size: 0x8, addend: 0x0, symName: __ZNKSt3__122__compressed_pair_elemIPNS_10__function6__funcI9h_functorNS_9allocatorIS3_EEFdRKNS_10shared_ptrI4NodeEESA_EEELi0ELb0EE5__getB8ne180100Ev, symObjAddr: 0x2595C, symBinAddr: 0x1000281F4, symSize: 0x14 }
  - { offset: 0x5E137, size: 0x8, addend: 0x0, symName: __ZNKSt3__117__compressed_pairI9h_functorNS_9allocatorIS1_EEE5firstB8ne180100Ev, symObjAddr: 0x25970, symBinAddr: 0x100028208, symSize: 0x24 }
  - { offset: 0x5E15D, size: 0x8, addend: 0x0, symName: __ZNKSt3__122__compressed_pair_elemI9h_functorLi0ELb0EE5__getB8ne180100Ev, symObjAddr: 0x25994, symBinAddr: 0x10002822C, symSize: 0x14 }
  - { offset: 0x5E183, size: 0x8, addend: 0x0, symName: __ZNSt3__110__function6__funcI9h_functorNS_9allocatorIS2_EEFdRKNS_10shared_ptrI4NodeEES9_EEC2B8ne180100ERKS2_OS4_, symObjAddr: 0x259A8, symBinAddr: 0x100028240, symSize: 0x80 }
  - { offset: 0x5E1CB, size: 0x8, addend: 0x0, symName: __ZNSt3__110__function12__alloc_funcI9h_functorNS_9allocatorIS2_EEFdRKNS_10shared_ptrI4NodeEES9_EEC1B8ne180100ERKS2_OS4_, symObjAddr: 0x25A28, symBinAddr: 0x1000282C0, symSize: 0x3C }
  - { offset: 0x5E211, size: 0x8, addend: 0x0, symName: __ZNSt3__110__function12__alloc_funcI9h_functorNS_9allocatorIS2_EEFdRKNS_10shared_ptrI4NodeEES9_EEC2B8ne180100ERKS2_OS4_, symObjAddr: 0x25A64, symBinAddr: 0x1000282FC, symSize: 0x5C }
  - { offset: 0x5E257, size: 0x8, addend: 0x0, symName: __ZNSt3__117__compressed_pairI9h_functorNS_9allocatorIS1_EEEC1B8ne180100IJRKS1_EJOS3_EEENS_21piecewise_construct_tENS_5tupleIJDpT_EEENSA_IJDpT0_EEE, symObjAddr: 0x25AEC, symBinAddr: 0x100028384, symSize: 0x3C }
  - { offset: 0x5E2C1, size: 0x8, addend: 0x0, symName: __ZNSt3__15tupleIJRK9h_functorEEC1B8ne180100INS_4_AndETnNS_9enable_ifIXsrT_IJNS_17integral_constantIbLb1EEENS_21is_copy_constructibleIS3_EEEE5valueEiE4typeELi0EEES3_, symObjAddr: 0x25B28, symBinAddr: 0x1000283C0, symSize: 0x34 }
  - { offset: 0x5E309, size: 0x8, addend: 0x0, symName: __ZNSt3__15tupleIJRK9h_functorEEC2B8ne180100INS_4_AndETnNS_9enable_ifIXsrT_IJNS_17integral_constantIbLb1EEENS_21is_copy_constructibleIS3_EEEE5valueEiE4typeELi0EEES3_, symObjAddr: 0x25B5C, symBinAddr: 0x1000283F4, symSize: 0x34 }
  - { offset: 0x5E351, size: 0x8, addend: 0x0, symName: __ZNSt3__112__tuple_implINS_15__tuple_indicesIJLm0EEEEJRK9h_functorEEC1B8ne180100IJLm0EEJS5_ETpTnmJEJEJS5_EEENS1_IJXspT_EEEENS_13__tuple_typesIJDpT0_EEENS1_IJXspT1_EEEENS9_IJDpT2_EEEDpOT3_, symObjAddr: 0x25B90, symBinAddr: 0x100028428, symSize: 0x34 }
  - { offset: 0x5E3E6, size: 0x8, addend: 0x0, symName: __ZNSt3__112__tuple_implINS_15__tuple_indicesIJLm0EEEEJRK9h_functorEEC2B8ne180100IJLm0EEJS5_ETpTnmJEJEJS5_EEENS1_IJXspT_EEEENS_13__tuple_typesIJDpT0_EEENS1_IJXspT1_EEEENS9_IJDpT2_EEEDpOT3_, symObjAddr: 0x25BC4, symBinAddr: 0x10002845C, symSize: 0x34 }
  - { offset: 0x5E47B, size: 0x8, addend: 0x0, symName: __ZNSt3__112__tuple_leafILm0ERK9h_functorLb0EEC2B8ne180100IS3_vEEOT_, symObjAddr: 0x25BF8, symBinAddr: 0x100028490, symSize: 0x20 }
  - { offset: 0x5E4BE, size: 0x8, addend: 0x0, symName: __ZNSt3__117__compressed_pairI9h_functorNS_9allocatorIS1_EEEC2B8ne180100IJRKS1_EJOS3_EEENS_21piecewise_construct_tENS_5tupleIJDpT_EEENSA_IJDpT0_EEE, symObjAddr: 0x25C18, symBinAddr: 0x1000284B0, symSize: 0x54 }
  - { offset: 0x5E528, size: 0x8, addend: 0x0, symName: __ZNSt3__122__compressed_pair_elemI9h_functorLi0ELb0EEC2B8ne180100IJRKS1_EJLm0EEEENS_21piecewise_construct_tENS_5tupleIJDpT_EEENS_15__tuple_indicesIJXspT0_EEEE, symObjAddr: 0x25C6C, symBinAddr: 0x100028504, symSize: 0x44 }
  - { offset: 0x5E58B, size: 0x8, addend: 0x0, symName: __ZNSt3__112__tuple_leafILm0ERK9h_functorLb0EE3getB8ne180100Ev, symObjAddr: 0x25CD4, symBinAddr: 0x10002856C, symSize: 0x18 }
  - { offset: 0x5E5B1, size: 0x8, addend: 0x0, symName: __ZNSt3__117__compressed_pairIPNS_10__function6__funcI9h_functorNS_9allocatorIS3_EEFdRKNS_10shared_ptrI4NodeEESA_EEENS_22__allocator_destructorINS4_ISC_EEEEE5firstB8ne180100Ev, symObjAddr: 0x25CEC, symBinAddr: 0x100028584, symSize: 0x24 }
  - { offset: 0x5E5D7, size: 0x8, addend: 0x0, symName: __ZNSt3__122__compressed_pair_elemIPNS_10__function6__funcI9h_functorNS_9allocatorIS3_EEFdRKNS_10shared_ptrI4NodeEESA_EEELi0ELb0EE5__getB8ne180100Ev, symObjAddr: 0x25D10, symBinAddr: 0x1000285A8, symSize: 0x14 }
  - { offset: 0x5E5FD, size: 0x8, addend: 0x0, symName: __ZNSt3__110unique_ptrINS_10__function6__funcI9h_functorNS_9allocatorIS3_EEFdRKNS_10shared_ptrI4NodeEESA_EEENS_22__allocator_destructorINS4_ISC_EEEEED2B8ne180100Ev, symObjAddr: 0x25D24, symBinAddr: 0x1000285BC, symSize: 0x30 }
  - { offset: 0x5E627, size: 0x8, addend: 0x0, symName: __ZNSt3__110unique_ptrINS_10__function6__funcI9h_functorNS_9allocatorIS3_EEFdRKNS_10shared_ptrI4NodeEESA_EEENS_22__allocator_destructorINS4_ISC_EEEEE5resetB8ne180100EPSC_, symObjAddr: 0x25D54, symBinAddr: 0x1000285EC, symSize: 0x70 }
  - { offset: 0x5E66B, size: 0x8, addend: 0x0, symName: __ZNSt3__117__compressed_pairIPNS_10__function6__funcI9h_functorNS_9allocatorIS3_EEFdRKNS_10shared_ptrI4NodeEESA_EEENS_22__allocator_destructorINS4_ISC_EEEEE6secondB8ne180100Ev, symObjAddr: 0x25DC4, symBinAddr: 0x10002865C, symSize: 0x28 }
  - { offset: 0x5E691, size: 0x8, addend: 0x0, symName: __ZNSt3__122__allocator_destructorINS_9allocatorINS_10__function6__funcI9h_functorNS1_IS4_EEFdRKNS_10shared_ptrI4NodeEESA_EEEEEEclB8ne180100EPSC_, symObjAddr: 0x25DEC, symBinAddr: 0x100028684, symSize: 0x34 }
  - { offset: 0x5E6C5, size: 0x8, addend: 0x0, symName: __ZNSt3__122__compressed_pair_elemINS_22__allocator_destructorINS_9allocatorINS_10__function6__funcI9h_functorNS2_IS5_EEFdRKNS_10shared_ptrI4NodeEESB_EEEEEEELi1ELb0EE5__getB8ne180100Ev, symObjAddr: 0x25E20, symBinAddr: 0x1000286B8, symSize: 0x14 }
  - { offset: 0x5E6EB, size: 0x8, addend: 0x0, symName: __ZNSt3__116allocator_traitsINS_9allocatorINS_10__function6__funcI9h_functorNS1_IS4_EEFdRKNS_10shared_ptrI4NodeEESA_EEEEEE10deallocateB8ne180100ERSD_PSC_m, symObjAddr: 0x25E34, symBinAddr: 0x1000286CC, symSize: 0x34 }
  - { offset: 0x5E72D, size: 0x8, addend: 0x0, symName: __ZNSt3__19allocatorINS_10__function6__funcI9h_functorNS0_IS3_EEFdRKNS_10shared_ptrI4NodeEES9_EEEE10deallocateB8ne180100EPSB_m, symObjAddr: 0x25E68, symBinAddr: 0x100028700, symSize: 0x40 }
  - { offset: 0x5E76F, size: 0x8, addend: 0x0, symName: __ZNSt3__110__function6__funcI9h_functorNS_9allocatorIS2_EEFdRKNS_10shared_ptrI4NodeEES9_EEC1B8ne180100ERKS2_RKS4_, symObjAddr: 0x25EA8, symBinAddr: 0x100028740, symSize: 0x3C }
  - { offset: 0x5E7B7, size: 0x8, addend: 0x0, symName: __ZNSt3__110__function6__funcI9h_functorNS_9allocatorIS2_EEFdRKNS_10shared_ptrI4NodeEES9_EEC2B8ne180100ERKS2_RKS4_, symObjAddr: 0x25EE4, symBinAddr: 0x10002877C, symSize: 0x80 }
  - { offset: 0x5E7FF, size: 0x8, addend: 0x0, symName: __ZNSt3__110__function12__alloc_funcI9h_functorNS_9allocatorIS2_EEFdRKNS_10shared_ptrI4NodeEES9_EEC1B8ne180100ERKS2_RKS4_, symObjAddr: 0x25F64, symBinAddr: 0x1000287FC, symSize: 0x3C }
  - { offset: 0x5E845, size: 0x8, addend: 0x0, symName: __ZNSt3__110__function12__alloc_funcI9h_functorNS_9allocatorIS2_EEFdRKNS_10shared_ptrI4NodeEES9_EEC2B8ne180100ERKS2_RKS4_, symObjAddr: 0x25FA0, symBinAddr: 0x100028838, symSize: 0x5C }
  - { offset: 0x5E88B, size: 0x8, addend: 0x0, symName: __ZNSt3__117__compressed_pairI9h_functorNS_9allocatorIS1_EEEC1B8ne180100IJRKS1_EJRKS3_EEENS_21piecewise_construct_tENS_5tupleIJDpT_EEENSB_IJDpT0_EEE, symObjAddr: 0x26028, symBinAddr: 0x1000288C0, symSize: 0x3C }
  - { offset: 0x5E8F5, size: 0x8, addend: 0x0, symName: __ZNSt3__15tupleIJRKNS_9allocatorI9h_functorEEEEC1B8ne180100INS_4_AndETnNS_9enable_ifIXsrT_IJNS_17integral_constantIbLb1EEENS_21is_copy_constructibleIS5_EEEE5valueEiE4typeELi0EEES5_, symObjAddr: 0x26064, symBinAddr: 0x1000288FC, symSize: 0x34 }
  - { offset: 0x5E93D, size: 0x8, addend: 0x0, symName: __ZNSt3__15tupleIJRKNS_9allocatorI9h_functorEEEEC2B8ne180100INS_4_AndETnNS_9enable_ifIXsrT_IJNS_17integral_constantIbLb1EEENS_21is_copy_constructibleIS5_EEEE5valueEiE4typeELi0EEES5_, symObjAddr: 0x26098, symBinAddr: 0x100028930, symSize: 0x34 }
  - { offset: 0x5E985, size: 0x8, addend: 0x0, symName: __ZNSt3__112__tuple_implINS_15__tuple_indicesIJLm0EEEEJRKNS_9allocatorI9h_functorEEEEC1B8ne180100IJLm0EEJS7_ETpTnmJEJEJS7_EEENS1_IJXspT_EEEENS_13__tuple_typesIJDpT0_EEENS1_IJXspT1_EEEENSB_IJDpT2_EEEDpOT3_, symObjAddr: 0x260CC, symBinAddr: 0x100028964, symSize: 0x34 }
  - { offset: 0x5EA1A, size: 0x8, addend: 0x0, symName: __ZNSt3__112__tuple_implINS_15__tuple_indicesIJLm0EEEEJRKNS_9allocatorI9h_functorEEEEC2B8ne180100IJLm0EEJS7_ETpTnmJEJEJS7_EEENS1_IJXspT_EEEENS_13__tuple_typesIJDpT0_EEENS1_IJXspT1_EEEENSB_IJDpT2_EEEDpOT3_, symObjAddr: 0x26100, symBinAddr: 0x100028998, symSize: 0x34 }
  - { offset: 0x5EAAF, size: 0x8, addend: 0x0, symName: __ZNSt3__112__tuple_leafILm0ERKNS_9allocatorI9h_functorEELb0EEC2B8ne180100IS5_vEEOT_, symObjAddr: 0x26134, symBinAddr: 0x1000289CC, symSize: 0x20 }
  - { offset: 0x5EAF2, size: 0x8, addend: 0x0, symName: __ZNSt3__117__compressed_pairI9h_functorNS_9allocatorIS1_EEEC2B8ne180100IJRKS1_EJRKS3_EEENS_21piecewise_construct_tENS_5tupleIJDpT_EEENSB_IJDpT0_EEE, symObjAddr: 0x26154, symBinAddr: 0x1000289EC, symSize: 0x54 }
  - { offset: 0x5EB5C, size: 0x8, addend: 0x0, symName: __ZNSt3__122__compressed_pair_elemINS_9allocatorI9h_functorEELi1ELb1EEC2B8ne180100IJRKS3_EJLm0EEEENS_21piecewise_construct_tENS_5tupleIJDpT_EEENS_15__tuple_indicesIJXspT0_EEEE, symObjAddr: 0x261A8, symBinAddr: 0x100028A40, symSize: 0x38 }
  - { offset: 0x5EBBF, size: 0x8, addend: 0x0, symName: __ZNSt3__112__tuple_leafILm0ERKNS_9allocatorI9h_functorEELb0EE3getB8ne180100Ev, symObjAddr: 0x26204, symBinAddr: 0x100028A9C, symSize: 0x18 }
  - { offset: 0x5EBE5, size: 0x8, addend: 0x0, symName: __ZNSt3__110__function12__alloc_funcI9h_functorNS_9allocatorIS2_EEFdRKNS_10shared_ptrI4NodeEES9_EE7destroyB8ne180100Ev, symObjAddr: 0x2621C, symBinAddr: 0x100028AB4, symSize: 0x10 }
  - { offset: 0x5EC0B, size: 0x8, addend: 0x0, symName: __ZNSt3__110__function12__alloc_funcI9h_functorNS_9allocatorIS2_EEFdRKNS_10shared_ptrI4NodeEES9_EEclB8ne180100ES9_S9_, symObjAddr: 0x2622C, symBinAddr: 0x100028AC4, symSize: 0x38 }
  - { offset: 0x5EC4D, size: 0x8, addend: 0x0, symName: __ZNSt3__128__invoke_void_return_wrapperIdLb0EE6__callB8ne180100IJR9h_functorRKNS_10shared_ptrI4NodeEES9_EEEdDpOT_, symObjAddr: 0x26264, symBinAddr: 0x100028AFC, symSize: 0x34 }
  - { offset: 0x5ECA4, size: 0x8, addend: 0x0, symName: __ZNSt3__117__compressed_pairI9h_functorNS_9allocatorIS1_EEE5firstB8ne180100Ev, symObjAddr: 0x26298, symBinAddr: 0x100028B30, symSize: 0x24 }
  - { offset: 0x5ECCA, size: 0x8, addend: 0x0, symName: __ZN9h_functorclERKNSt3__110shared_ptrI4NodeEES5_, symObjAddr: 0x262F0, symBinAddr: 0x100028B88, symSize: 0x23C }
  - { offset: 0x5EDC9, size: 0x8, addend: 0x0, symName: __ZNKSt3__110shared_ptrI4NodeE3getB8ne180100Ev, symObjAddr: 0x26564, symBinAddr: 0x100028DFC, symSize: 0x18 }
  - { offset: 0x5EDEF, size: 0x8, addend: 0x0, symName: __ZNSt3__122__compressed_pair_elemI9h_functorLi0ELb0EE5__getB8ne180100Ev, symObjAddr: 0x265A8, symBinAddr: 0x100028E40, symSize: 0x14 }
  - { offset: 0x5EE49, size: 0x8, addend: 0x0, symName: __ZNKSt9type_infoeqB8ne180100ERKS_, symObjAddr: 0x265BC, symBinAddr: 0x100028E54, symSize: 0xD4 }
  - { offset: 0x5EEE5, size: 0x8, addend: 0x0, symName: __ZNSt27__type_info_implementations30__non_unique_arm_rtti_bit_impl21__is_type_name_uniqueB8ne180100Em, symObjAddr: 0x26690, symBinAddr: 0x100028F28, symSize: 0x1C }
  - { offset: 0x5EF09, size: 0x8, addend: 0x0, symName: __ZNSt3__18functionIFdRKNS_10shared_ptrI4NodeEES5_EED2Ev, symObjAddr: 0x266AC, symBinAddr: 0x100028F44, symSize: 0x2C }
  - { offset: 0x5EF35, size: 0x8, addend: 0x0, symName: __ZNSt3__110__function12__value_funcIFdRKNS_10shared_ptrI4NodeEES6_EED1B8ne180100Ev, symObjAddr: 0x266D8, symBinAddr: 0x100028F70, symSize: 0x2C }
  - { offset: 0x5EF5F, size: 0x8, addend: 0x0, symName: __ZNSt3__110__function12__value_funcIFdRKNS_10shared_ptrI4NodeEES6_EED2B8ne180100Ev, symObjAddr: 0x26704, symBinAddr: 0x100028F9C, symSize: 0x84 }
  - { offset: 0x5EF89, size: 0x8, addend: 0x0, symName: __ZNSt3__14__fs10filesystem4pathC2B8ne180100INS_12basic_stringIcNS_11char_traitsIcEENS_9allocatorIcEEEEvEERKT_NS2_6formatE, symObjAddr: 0x26788, symBinAddr: 0x100029020, symSize: 0x68 }
  - { offset: 0x5EFDE, size: 0x8, addend: 0x0, symName: __ZNSt3__14__fs10filesystem8_PathCVTIcE15__append_sourceB8ne180100INS_12basic_stringIcNS_11char_traitsIcEENS_9allocatorIcEEEEEEvRSA_RKT_, symObjAddr: 0x267F0, symBinAddr: 0x100029088, symSize: 0x4C }
  - { offset: 0x5F01A, size: 0x8, addend: 0x0, symName: __ZNSt3__14__fs10filesystem8_PathCVTIcE14__append_rangeB8ne180100IPKcTnNS_9enable_ifIXsr31__has_forward_iterator_categoryIT_EE5valueEiE4typeELi0EEEvRNS_12basic_stringIcNS_11char_traitsIcEENS_9allocatorIcEEEES8_S8_, symObjAddr: 0x2683C, symBinAddr: 0x1000290D4, symSize: 0x34 }
  - { offset: 0x5F076, size: 0x8, addend: 0x0, symName: __ZNSt3__14__fs10filesystem20__is_pathable_stringINS_12basic_stringIcNS_11char_traitsIcEENS_9allocatorIcEEEEvE13__range_beginB8ne180100ERKS8_, symObjAddr: 0x26870, symBinAddr: 0x100029108, symSize: 0x24 }
  - { offset: 0x5F099, size: 0x8, addend: 0x0, symName: __ZNSt3__14__fs10filesystem20__is_pathable_stringINS_12basic_stringIcNS_11char_traitsIcEENS_9allocatorIcEEEEvE11__range_endB8ne180100ERKS8_, symObjAddr: 0x26894, symBinAddr: 0x10002912C, symSize: 0x3C }
  - { offset: 0x5F0BC, size: 0x8, addend: 0x0, symName: __ZNSt3__112basic_stringIcNS_11char_traitsIcEENS_9allocatorIcEEE6appendB8ne180100IPKcTnNS_9enable_ifIXsr31__has_forward_iterator_categoryIT_EE5valueEiE4typeELi0EEERS5_SA_SA_, symObjAddr: 0x268D0, symBinAddr: 0x100029168, symSize: 0x1E0 }
  - { offset: 0x5F16F, size: 0x8, addend: 0x0, symName: __ZNKSt3__112basic_stringIcNS_11char_traitsIcEENS_9allocatorIcEEE8capacityB8ne180100Ev, symObjAddr: 0x26AB0, symBinAddr: 0x100029348, symSize: 0x54 }
  - { offset: 0x5F195, size: 0x8, addend: 0x0, symName: __ZNKSt3__112basic_stringIcNS_11char_traitsIcEENS_9allocatorIcEEE15__addr_in_rangeB8ne180100IcEEbRKT_, symObjAddr: 0x26B30, symBinAddr: 0x1000293C8, symSize: 0x68 }
  - { offset: 0x5F1D3, size: 0x8, addend: 0x0, symName: __ZNSt3__112basic_stringIcNS_11char_traitsIcEENS_9allocatorIcEEE25__grow_by_without_replaceB8ne180100Emmmmmm, symObjAddr: 0x26B98, symBinAddr: 0x100029430, symSize: 0x90 }
  - { offset: 0x5F255, size: 0x8, addend: 0x0, symName: __ZNKSt3__112basic_stringIcNS_11char_traitsIcEENS_9allocatorIcEEE19__annotate_increaseB8ne180100Em, symObjAddr: 0x26C28, symBinAddr: 0x1000294C0, symSize: 0x14 }
  - { offset: 0x5F28A, size: 0x8, addend: 0x0, symName: __ZNSt3__112basic_stringIcNS_11char_traitsIcEENS_9allocatorIcEEE10__set_sizeB8ne180100Em, symObjAddr: 0x26C3C, symBinAddr: 0x1000294D4, symSize: 0x54 }
  - { offset: 0x5F2BF, size: 0x8, addend: 0x0, symName: __ZNSt3__112basic_stringIcNS_11char_traitsIcEENS_9allocatorIcEEEC1B8ne180100IPKcTnNS_9enable_ifIXsr29__has_input_iterator_categoryIT_EE5valueEiE4typeELi0EEESA_SA_RKS4_, symObjAddr: 0x26C90, symBinAddr: 0x100029528, symSize: 0x44 }
  - { offset: 0x5F330, size: 0x8, addend: 0x0, symName: __ZNKSt3__16__lessIvvEclB8ne180100IPKcS4_EEbRKT_RKT0_, symObjAddr: 0x26D5C, symBinAddr: 0x1000295F4, symSize: 0x30 }
  - { offset: 0x5F384, size: 0x8, addend: 0x0, symName: __ZNSt3__112basic_stringIcNS_11char_traitsIcEENS_9allocatorIcEEEC2B8ne180100IPKcTnNS_9enable_ifIXsr29__has_input_iterator_categoryIT_EE5valueEiE4typeELi0EEESA_SA_RKS4_, symObjAddr: 0x26D8C, symBinAddr: 0x100029624, symSize: 0x50 }
  - { offset: 0x5F3EA, size: 0x8, addend: 0x0, symName: __ZNSt3__117__compressed_pairINS_12basic_stringIcNS_11char_traitsIcEENS_9allocatorIcEEE5__repES5_EC1B8ne180100INS_18__default_init_tagERKS5_EEOT_OT0_, symObjAddr: 0x26DDC, symBinAddr: 0x100029674, symSize: 0x3C }
  - { offset: 0x5F442, size: 0x8, addend: 0x0, symName: __ZNSt3__112basic_stringIcNS_11char_traitsIcEENS_9allocatorIcEEE6__initIPKcTnNS_9enable_ifIXsr31__has_forward_iterator_categoryIT_EE5valueEiE4typeELi0EEEvSA_SA_, symObjAddr: 0x26E18, symBinAddr: 0x1000296B0, symSize: 0x54 }
  - { offset: 0x5F4A4, size: 0x8, addend: 0x0, symName: __ZNSt3__117__compressed_pairINS_12basic_stringIcNS_11char_traitsIcEENS_9allocatorIcEEE5__repES5_EC2B8ne180100INS_18__default_init_tagERKS5_EEOT_OT0_, symObjAddr: 0x26E6C, symBinAddr: 0x100029704, symSize: 0x40 }
  - { offset: 0x5F4FC, size: 0x8, addend: 0x0, symName: __ZNSt3__122__compressed_pair_elemINS_9allocatorIcEELi1ELb1EEC2B8ne180100IRKS2_vEEOT_, symObjAddr: 0x26EAC, symBinAddr: 0x100029744, symSize: 0x18 }
  - { offset: 0x5F53E, size: 0x8, addend: 0x0, symName: __ZNSt3__112basic_stringIcNS_11char_traitsIcEENS_9allocatorIcEEE16__init_with_sizeB8ne180100IPKcS8_EEvT_T0_m, symObjAddr: 0x26EC4, symBinAddr: 0x10002975C, symSize: 0x148 }
  - { offset: 0x5F5D0, size: 0x8, addend: 0x0, symName: __ZNKSt3__112basic_stringIcNS_11char_traitsIcEENS_9allocatorIcEEE20__throw_length_errorB8ne180100Ev, symObjAddr: 0x2700C, symBinAddr: 0x1000298A4, symSize: 0x1C }
  - { offset: 0x5F5F6, size: 0x8, addend: 0x0, symName: __ZNSt3__112basic_stringIcNS_11char_traitsIcEENS_9allocatorIcEEE11__recommendB8ne180100Em, symObjAddr: 0x27028, symBinAddr: 0x1000298C0, symSize: 0x7C }
  - { offset: 0x5F629, size: 0x8, addend: 0x0, symName: __ZNSt3__112basic_stringIcNS_11char_traitsIcEENS_9allocatorIcEEE16__begin_lifetimeB8ne180100EPcm, symObjAddr: 0x270A4, symBinAddr: 0x10002993C, symSize: 0x14 }
  - { offset: 0x5F65C, size: 0x8, addend: 0x0, symName: __ZNSt3__112basic_stringIcNS_11char_traitsIcEENS_9allocatorIcEEE18__set_long_pointerB8ne180100EPc, symObjAddr: 0x270B8, symBinAddr: 0x100029950, symSize: 0x38 }
  - { offset: 0x5F691, size: 0x8, addend: 0x0, symName: __ZNSt3__112basic_stringIcNS_11char_traitsIcEENS_9allocatorIcEEE14__set_long_capB8ne180100Em, symObjAddr: 0x270F0, symBinAddr: 0x100029988, symSize: 0x70 }
  - { offset: 0x5F6C6, size: 0x8, addend: 0x0, symName: __ZNSt3__112basic_stringIcNS_11char_traitsIcEENS_9allocatorIcEEE10__align_itB8ne180100ILm8EEEmm, symObjAddr: 0x27160, symBinAddr: 0x1000299F8, symSize: 0x1C }
  - { offset: 0x5F6F4, size: 0x8, addend: 0x0, symName: __ZNKSt3__112basic_stringIcNS_11char_traitsIcEENS_9allocatorIcEEE15__get_long_sizeB8ne180100Ev, symObjAddr: 0x2717C, symBinAddr: 0x100029A14, symSize: 0x28 }
  - { offset: 0x5F71A, size: 0x8, addend: 0x0, symName: __ZNKSt3__16vectorINS_12basic_stringIcNS_11char_traitsIcEENS_9allocatorIcEEEENS4_IS6_EEE6cbeginB8ne180100Ev, symObjAddr: 0x271EC, symBinAddr: 0x100029A84, symSize: 0x2C }
  - { offset: 0x5F740, size: 0x8, addend: 0x0, symName: __ZNSt3__16vectorINS_12basic_stringIcNS_11char_traitsIcEENS_9allocatorIcEEEENS4_IS6_EEE17__destruct_at_endB8ne180100EPS6_, symObjAddr: 0x27218, symBinAddr: 0x100029AB0, symSize: 0x4C }
  - { offset: 0x5F784, size: 0x8, addend: 0x0, symName: __ZNKSt3__111__wrap_iterIPKNS_12basic_stringIcNS_11char_traitsIcEENS_9allocatorIcEEEEE4baseB8ne180100Ev, symObjAddr: 0x272A4, symBinAddr: 0x100029B3C, symSize: 0x18 }
  - { offset: 0x5F7AA, size: 0x8, addend: 0x0, symName: __ZNKSt3__16vectorINS_12basic_stringIcNS_11char_traitsIcEENS_9allocatorIcEEEENS4_IS6_EEE5beginB8ne180100Ev, symObjAddr: 0x272BC, symBinAddr: 0x100029B54, symSize: 0x30 }
  - { offset: 0x5F7D2, size: 0x8, addend: 0x0, symName: __ZNKSt3__16vectorINS_12basic_stringIcNS_11char_traitsIcEENS_9allocatorIcEEEENS4_IS6_EEE11__make_iterB8ne180100EPKS6_, symObjAddr: 0x272EC, symBinAddr: 0x100029B84, symSize: 0x30 }
  - { offset: 0x5F807, size: 0x8, addend: 0x0, symName: __ZNSt3__111__wrap_iterIPKNS_12basic_stringIcNS_11char_traitsIcEENS_9allocatorIcEEEEEC1B8ne180100ES8_, symObjAddr: 0x2731C, symBinAddr: 0x100029BB4, symSize: 0x34 }
  - { offset: 0x5F83F, size: 0x8, addend: 0x0, symName: __ZNSt3__111__wrap_iterIPKNS_12basic_stringIcNS_11char_traitsIcEENS_9allocatorIcEEEEEC2B8ne180100ES8_, symObjAddr: 0x27350, symBinAddr: 0x100029BE8, symSize: 0x20 }
  - { offset: 0x5F877, size: 0x8, addend: 0x0, symName: __ZNKSt3__16vectorINS_12basic_stringIcNS_11char_traitsIcEENS_9allocatorIcEEEENS4_IS6_EEE17__annotate_shrinkB8ne180100Em, symObjAddr: 0x27370, symBinAddr: 0x100029C08, symSize: 0x14 }
  - { offset: 0x5F8C9, size: 0x8, addend: 0x0, symName: __ZNKSt3__111__move_loopINS_17_ClassicAlgPolicyEEclB8ne180100IPNS_12basic_stringIcNS_11char_traitsIcEENS_9allocatorIcEEEESA_SA_EENS_4pairIT_T1_EESC_T0_SD_, symObjAddr: 0x27520, symBinAddr: 0x100029DB8, symSize: 0x8C }
  - { offset: 0x5F93A, size: 0x8, addend: 0x0, symName: __ZNSt3__18_IterOpsINS_17_ClassicAlgPolicyEE11__iter_moveB8ne180100IRPNS_12basic_stringIcNS_11char_traitsIcEENS_9allocatorIcEEEETnNS_9enable_ifIXsr12is_referenceIDTdeclsr3stdE7declvalIRT_EEEEE5valueEiE4typeELi0EEEDTclsr3stdE4movedeclsr3stdE7declvalISE_EEEEOSD_, symObjAddr: 0x27670, symBinAddr: 0x100029F08, symSize: 0x28 }
  - { offset: 0x5F96C, size: 0x8, addend: 0x0, symName: __ZNSt3__18_IterOpsINS_17_ClassicAlgPolicyEE25__validate_iter_referenceB8ne180100IRPNS_12basic_stringIcNS_11char_traitsIcEENS_9allocatorIcEEEEEEvv, symObjAddr: 0x27698, symBinAddr: 0x100029F30, symSize: 0x4 }
  - { offset: 0x5F98A, size: 0x8, addend: 0x0, symName: __ZNSt3__118__unwrap_iter_implIPNS_12basic_stringIcNS_11char_traitsIcEENS_9allocatorIcEEEELb1EE8__unwrapB8ne180100ES7_, symObjAddr: 0x2769C, symBinAddr: 0x100029F34, symSize: 0x24 }
  - { offset: 0x5F9B3, size: 0x8, addend: 0x0, symName: __ZNSt3__14pairIPNS_12basic_stringIcNS_11char_traitsIcEENS_9allocatorIcEEEES7_EC1B8ne180100IS7_S7_TnNS_9enable_ifIXclsr10_CheckArgsE17__enable_implicitIT_T0_EEEiE4typeELi0EEEOSB_OSC_, symObjAddr: 0x276C0, symBinAddr: 0x100029F58, symSize: 0x3C }
  - { offset: 0x5FA11, size: 0x8, addend: 0x0, symName: __ZNSt3__14pairIPNS_12basic_stringIcNS_11char_traitsIcEENS_9allocatorIcEEEES7_EC2B8ne180100IS7_S7_TnNS_9enable_ifIXclsr10_CheckArgsE17__enable_implicitIT_T0_EEEiE4typeELi0EEEOSB_OSC_, symObjAddr: 0x276FC, symBinAddr: 0x100029F94, symSize: 0x34 }
  - { offset: 0x5FA6F, size: 0x8, addend: 0x0, symName: __ZNSt3__118__unwrap_iter_implIPNS_12basic_stringIcNS_11char_traitsIcEENS_9allocatorIcEEEELb1EE8__rewrapB8ne180100ES7_S7_, symObjAddr: 0x27730, symBinAddr: 0x100029FC8, symSize: 0x58 }
  - { offset: 0x5FAA0, size: 0x8, addend: 0x0, symName: __ZNSt3__16vectorINS_12basic_stringIcNS_11char_traitsIcEENS_9allocatorIcEEEENS4_IS6_EEEC2ERKS8_, symObjAddr: 0x27788, symBinAddr: 0x10002A020, symSize: 0x94 }
  - { offset: 0x5FADB, size: 0x8, addend: 0x0, symName: __ZNSt3__116allocator_traitsINS_9allocatorINS_12basic_stringIcNS_11char_traitsIcEENS1_IcEEEEEEE37select_on_container_copy_constructionB8ne180100IS7_vvEES7_RKS7_, symObjAddr: 0x2781C, symBinAddr: 0x10002A0B4, symSize: 0x10 }
  - { offset: 0x5FB10, size: 0x8, addend: 0x0, symName: __ZNSt3__117__compressed_pairIPNS_12basic_stringIcNS_11char_traitsIcEENS_9allocatorIcEEEENS4_IS6_EEEC1B8ne180100IDnS8_EEOT_OT0_, symObjAddr: 0x2782C, symBinAddr: 0x10002A0C4, symSize: 0x3C }
  - { offset: 0x5FB68, size: 0x8, addend: 0x0, symName: __ZNSt3__16vectorINS_12basic_stringIcNS_11char_traitsIcEENS_9allocatorIcEEEENS4_IS6_EEE16__init_with_sizeB8ne180100IPS6_SA_EEvT_T0_m, symObjAddr: 0x27868, symBinAddr: 0x10002A100, symSize: 0xB4 }
  - { offset: 0x5FBDC, size: 0x8, addend: 0x0, symName: __ZNSt3__117__compressed_pairIPNS_12basic_stringIcNS_11char_traitsIcEENS_9allocatorIcEEEENS4_IS6_EEEC2B8ne180100IDnS8_EEOT_OT0_, symObjAddr: 0x2791C, symBinAddr: 0x10002A1B4, symSize: 0x44 }
  - { offset: 0x5FC34, size: 0x8, addend: 0x0, symName: __ZNSt3__122__compressed_pair_elemINS_9allocatorINS_12basic_stringIcNS_11char_traitsIcEENS1_IcEEEEEELi1ELb1EEC2B8ne180100IS7_vEEOT_, symObjAddr: 0x27960, symBinAddr: 0x10002A1F8, symSize: 0x18 }
  - { offset: 0x5FC76, size: 0x8, addend: 0x0, symName: __ZNSt3__16vectorINS_12basic_stringIcNS_11char_traitsIcEENS_9allocatorIcEEEENS4_IS6_EEE11__vallocateB8ne180100Em, symObjAddr: 0x279B8, symBinAddr: 0x10002A250, symSize: 0xB0 }
  - { offset: 0x5FCBA, size: 0x8, addend: 0x0, symName: __ZNSt3__16vectorINS_12basic_stringIcNS_11char_traitsIcEENS_9allocatorIcEEEENS4_IS6_EEE18__construct_at_endIPS6_SA_EEvT_T0_m, symObjAddr: 0x27A68, symBinAddr: 0x10002A300, symSize: 0x8C }
  - { offset: 0x5FD2E, size: 0x8, addend: 0x0, symName: __ZNSt3__128__exception_guard_exceptionsINS_6vectorINS_12basic_stringIcNS_11char_traitsIcEENS_9allocatorIcEEEENS5_IS7_EEE16__destroy_vectorEE10__completeB8ne180100Ev, symObjAddr: 0x27AF4, symBinAddr: 0x10002A38C, symSize: 0x1C }
  - { offset: 0x5FD54, size: 0x8, addend: 0x0, symName: __ZNSt3__128__exception_guard_exceptionsINS_6vectorINS_12basic_stringIcNS_11char_traitsIcEENS_9allocatorIcEEEENS5_IS7_EEE16__destroy_vectorEED1B8ne180100Ev, symObjAddr: 0x27B10, symBinAddr: 0x10002A3A8, symSize: 0x2C }
  - { offset: 0x5FD7E, size: 0x8, addend: 0x0, symName: __ZNSt3__128__exception_guard_exceptionsINS_6vectorINS_12basic_stringIcNS_11char_traitsIcEENS_9allocatorIcEEEENS5_IS7_EEE16__destroy_vectorEEC1B8ne180100ESA_, symObjAddr: 0x27B3C, symBinAddr: 0x10002A3D4, symSize: 0x34 }
  - { offset: 0x5FDB6, size: 0x8, addend: 0x0, symName: __ZNSt3__128__exception_guard_exceptionsINS_6vectorINS_12basic_stringIcNS_11char_traitsIcEENS_9allocatorIcEEEENS5_IS7_EEE16__destroy_vectorEEC2B8ne180100ESA_, symObjAddr: 0x27B70, symBinAddr: 0x10002A408, symSize: 0x24 }
  - { offset: 0x5FDEE, size: 0x8, addend: 0x0, symName: __ZNSt3__129_AllocatorDestroyRangeReverseINS_9allocatorINS_12basic_stringIcNS_11char_traitsIcEENS1_IcEEEEEEPS6_EC1B8ne180100ERS7_RS8_SB_, symObjAddr: 0x27D50, symBinAddr: 0x10002A5E8, symSize: 0x44 }
  - { offset: 0x5FE45, size: 0x8, addend: 0x0, symName: __ZNSt3__116allocator_traitsINS_9allocatorINS_12basic_stringIcNS_11char_traitsIcEENS1_IcEEEEEEE9constructB8ne180100IS6_JRS6_EvEEvRS7_PT_DpOT0_, symObjAddr: 0x27D94, symBinAddr: 0x10002A62C, symSize: 0x34 }
  - { offset: 0x5FE9C, size: 0x8, addend: 0x0, symName: __ZNSt3__128__exception_guard_exceptionsINS_29_AllocatorDestroyRangeReverseINS_9allocatorINS_12basic_stringIcNS_11char_traitsIcEENS2_IcEEEEEEPS7_EEE10__completeB8ne180100Ev, symObjAddr: 0x27DC8, symBinAddr: 0x10002A660, symSize: 0x1C }
  - { offset: 0x5FEC2, size: 0x8, addend: 0x0, symName: __ZNSt3__128__exception_guard_exceptionsINS_29_AllocatorDestroyRangeReverseINS_9allocatorINS_12basic_stringIcNS_11char_traitsIcEENS2_IcEEEEEEPS7_EEED1B8ne180100Ev, symObjAddr: 0x27DE4, symBinAddr: 0x10002A67C, symSize: 0x2C }
  - { offset: 0x5FEEC, size: 0x8, addend: 0x0, symName: __ZNSt3__128__exception_guard_exceptionsINS_29_AllocatorDestroyRangeReverseINS_9allocatorINS_12basic_stringIcNS_11char_traitsIcEENS2_IcEEEEEEPS7_EEEC1B8ne180100ESA_, symObjAddr: 0x27E10, symBinAddr: 0x10002A6A8, symSize: 0x34 }
  - { offset: 0x5FF25, size: 0x8, addend: 0x0, symName: __ZNSt3__128__exception_guard_exceptionsINS_29_AllocatorDestroyRangeReverseINS_9allocatorINS_12basic_stringIcNS_11char_traitsIcEENS2_IcEEEEEEPS7_EEEC2B8ne180100ESA_, symObjAddr: 0x27E44, symBinAddr: 0x10002A6DC, symSize: 0x30 }
  - { offset: 0x5FF5E, size: 0x8, addend: 0x0, symName: __ZNSt3__129_AllocatorDestroyRangeReverseINS_9allocatorINS_12basic_stringIcNS_11char_traitsIcEENS1_IcEEEEEEPS6_EC2B8ne180100ERS7_RS8_SB_, symObjAddr: 0x27E74, symBinAddr: 0x10002A70C, symSize: 0x38 }
  - { offset: 0x5FFB5, size: 0x8, addend: 0x0, symName: __ZNSt3__19allocatorINS_12basic_stringIcNS_11char_traitsIcEENS0_IcEEEEE9constructB8ne180100IS5_JRS5_EEEvPT_DpOT0_, symObjAddr: 0x27EAC, symBinAddr: 0x10002A744, symSize: 0x30 }
  - { offset: 0x6000B, size: 0x8, addend: 0x0, symName: __ZNSt3__128__exception_guard_exceptionsINS_29_AllocatorDestroyRangeReverseINS_9allocatorINS_12basic_stringIcNS_11char_traitsIcEENS2_IcEEEEEEPS7_EEED2B8ne180100Ev, symObjAddr: 0x27EDC, symBinAddr: 0x10002A774, symSize: 0x50 }
  - { offset: 0x60035, size: 0x8, addend: 0x0, symName: __ZNKSt3__129_AllocatorDestroyRangeReverseINS_9allocatorINS_12basic_stringIcNS_11char_traitsIcEENS1_IcEEEEEEPS6_EclB8ne180100Ev, symObjAddr: 0x27F2C, symBinAddr: 0x10002A7C4, symSize: 0x68 }
  - { offset: 0x6005B, size: 0x8, addend: 0x0, symName: __ZNSt3__128__exception_guard_exceptionsINS_6vectorINS_12basic_stringIcNS_11char_traitsIcEENS_9allocatorIcEEEENS5_IS7_EEE16__destroy_vectorEED2B8ne180100Ev, symObjAddr: 0x28004, symBinAddr: 0x10002A89C, symSize: 0x48 }
  - { offset: 0x60085, size: 0x8, addend: 0x0, symName: __ZNSt3__113unordered_mapINS_12basic_stringIcNS_11char_traitsIcEENS_9allocatorIcEEEENS_6vectorINS7_ImNS4_ImEEEENS4_IS9_EEEENS_4hashIS6_EENS_8equal_toIS6_EENS4_INS_4pairIKS6_SB_EEEEEC2B8ne180100Ev, symObjAddr: 0x2804C, symBinAddr: 0x10002A8E4, symSize: 0x2C }
  - { offset: 0x600AF, size: 0x8, addend: 0x0, symName: __ZNSt3__112__hash_tableINS_17__hash_value_typeINS_12basic_stringIcNS_11char_traitsIcEENS_9allocatorIcEEEENS_6vectorINS8_ImNS5_ImEEEENS5_ISA_EEEEEENS_22__unordered_map_hasherIS7_SD_NS_4hashIS7_EENS_8equal_toIS7_EELb1EEENS_21__unordered_map_equalIS7_SD_SI_SG_Lb1EEENS5_ISD_EEEC1Ev, symObjAddr: 0x28078, symBinAddr: 0x10002A910, symSize: 0x2C }
  - { offset: 0x600DB, size: 0x8, addend: 0x0, symName: __ZNSt3__112__hash_tableINS_17__hash_value_typeINS_12basic_stringIcNS_11char_traitsIcEENS_9allocatorIcEEEENS_6vectorINS8_ImNS5_ImEEEENS5_ISA_EEEEEENS_22__unordered_map_hasherIS7_SD_NS_4hashIS7_EENS_8equal_toIS7_EELb1EEENS_21__unordered_map_equalIS7_SD_SI_SG_Lb1EEENS5_ISD_EEEC2Ev, symObjAddr: 0x280A4, symBinAddr: 0x10002A93C, symSize: 0x7C }
  - { offset: 0x60107, size: 0x8, addend: 0x0, symName: __ZNSt3__110unique_ptrIA_PNS_16__hash_node_baseIPNS_11__hash_nodeINS_17__hash_value_typeINS_12basic_stringIcNS_11char_traitsIcEENS_9allocatorIcEEEENS_6vectorINSA_ImNS7_ImEEEENS7_ISC_EEEEEEPvEEEENS_25__bucket_list_deallocatorINS7_ISK_EEEEEC1B8ne180100ILb1EvEEv, symObjAddr: 0x28120, symBinAddr: 0x10002A9B8, symSize: 0x2C }
  - { offset: 0x6013C, size: 0x8, addend: 0x0, symName: __ZNSt3__117__compressed_pairINS_16__hash_node_baseIPNS_11__hash_nodeINS_17__hash_value_typeINS_12basic_stringIcNS_11char_traitsIcEENS_9allocatorIcEEEENS_6vectorINSA_ImNS7_ImEEEENS7_ISC_EEEEEEPvEEEENS7_ISH_EEEC1B8ne180100ILb1EvEEv, symObjAddr: 0x2814C, symBinAddr: 0x10002A9E4, symSize: 0x2C }
  - { offset: 0x60171, size: 0x8, addend: 0x0, symName: __ZNSt3__117__compressed_pairImNS_22__unordered_map_hasherINS_12basic_stringIcNS_11char_traitsIcEENS_9allocatorIcEEEENS_17__hash_value_typeIS7_NS_6vectorINS9_ImNS5_ImEEEENS5_ISB_EEEEEENS_4hashIS7_EENS_8equal_toIS7_EELb1EEEEC1B8ne180100IiNS_18__default_init_tagEEEOT_OT0_, symObjAddr: 0x28178, symBinAddr: 0x10002AA10, symSize: 0x3C }
  - { offset: 0x601C9, size: 0x8, addend: 0x0, symName: __ZNSt3__117__compressed_pairIfNS_21__unordered_map_equalINS_12basic_stringIcNS_11char_traitsIcEENS_9allocatorIcEEEENS_17__hash_value_typeIS7_NS_6vectorINS9_ImNS5_ImEEEENS5_ISB_EEEEEENS_8equal_toIS7_EENS_4hashIS7_EELb1EEEEC1B8ne180100IfNS_18__default_init_tagEEEOT_OT0_, symObjAddr: 0x281B4, symBinAddr: 0x10002AA4C, symSize: 0x3C }
  - { offset: 0x60221, size: 0x8, addend: 0x0, symName: __ZNSt3__110unique_ptrIA_PNS_16__hash_node_baseIPNS_11__hash_nodeINS_17__hash_value_typeINS_12basic_stringIcNS_11char_traitsIcEENS_9allocatorIcEEEENS_6vectorINSA_ImNS7_ImEEEENS7_ISC_EEEEEEPvEEEENS_25__bucket_list_deallocatorINS7_ISK_EEEEEC2B8ne180100ILb1EvEEv, symObjAddr: 0x281F0, symBinAddr: 0x10002AA88, symSize: 0x3C }
  - { offset: 0x60256, size: 0x8, addend: 0x0, symName: __ZNSt3__117__compressed_pairIPPNS_16__hash_node_baseIPNS_11__hash_nodeINS_17__hash_value_typeINS_12basic_stringIcNS_11char_traitsIcEENS_9allocatorIcEEEENS_6vectorINSA_ImNS7_ImEEEENS7_ISC_EEEEEEPvEEEENS_25__bucket_list_deallocatorINS7_ISK_EEEEEC1B8ne180100INS_16__value_init_tagESR_EEOT_OT0_, symObjAddr: 0x2822C, symBinAddr: 0x10002AAC4, symSize: 0x3C }
  - { offset: 0x602AE, size: 0x8, addend: 0x0, symName: __ZNSt3__117__compressed_pairIPPNS_16__hash_node_baseIPNS_11__hash_nodeINS_17__hash_value_typeINS_12basic_stringIcNS_11char_traitsIcEENS_9allocatorIcEEEENS_6vectorINSA_ImNS7_ImEEEENS7_ISC_EEEEEEPvEEEENS_25__bucket_list_deallocatorINS7_ISK_EEEEEC2B8ne180100INS_16__value_init_tagESR_EEOT_OT0_, symObjAddr: 0x28268, symBinAddr: 0x10002AB00, symSize: 0x40 }
  - { offset: 0x60306, size: 0x8, addend: 0x0, symName: __ZNSt3__122__compressed_pair_elemIPPNS_16__hash_node_baseIPNS_11__hash_nodeINS_17__hash_value_typeINS_12basic_stringIcNS_11char_traitsIcEENS_9allocatorIcEEEENS_6vectorINSA_ImNS7_ImEEEENS7_ISC_EEEEEEPvEEEELi0ELb0EEC2B8ne180100ENS_16__value_init_tagE, symObjAddr: 0x282A8, symBinAddr: 0x10002AB40, symSize: 0x18 }
  - { offset: 0x6033A, size: 0x8, addend: 0x0, symName: __ZNSt3__122__compressed_pair_elemINS_25__bucket_list_deallocatorINS_9allocatorIPNS_16__hash_node_baseIPNS_11__hash_nodeINS_17__hash_value_typeINS_12basic_stringIcNS_11char_traitsIcEENS2_IcEEEENS_6vectorINSB_ImNS2_ImEEEENS2_ISD_EEEEEEPvEEEEEEEELi1ELb0EEC2B8ne180100ENS_16__value_init_tagE, symObjAddr: 0x282C0, symBinAddr: 0x10002AB58, symSize: 0x2C }
  - { offset: 0x6036E, size: 0x8, addend: 0x0, symName: __ZNSt3__125__bucket_list_deallocatorINS_9allocatorIPNS_16__hash_node_baseIPNS_11__hash_nodeINS_17__hash_value_typeINS_12basic_stringIcNS_11char_traitsIcEENS1_IcEEEENS_6vectorINSA_ImNS1_ImEEEENS1_ISC_EEEEEEPvEEEEEEEC1B8ne180100Ev, symObjAddr: 0x282EC, symBinAddr: 0x10002AB84, symSize: 0x2C }
  - { offset: 0x60398, size: 0x8, addend: 0x0, symName: __ZNSt3__125__bucket_list_deallocatorINS_9allocatorIPNS_16__hash_node_baseIPNS_11__hash_nodeINS_17__hash_value_typeINS_12basic_stringIcNS_11char_traitsIcEENS1_IcEEEENS_6vectorINSA_ImNS1_ImEEEENS1_ISC_EEEEEEPvEEEEEEEC2B8ne180100Ev, symObjAddr: 0x28318, symBinAddr: 0x10002ABB0, symSize: 0x40 }
  - { offset: 0x603C2, size: 0x8, addend: 0x0, symName: __ZNSt3__117__compressed_pairImNS_9allocatorIPNS_16__hash_node_baseIPNS_11__hash_nodeINS_17__hash_value_typeINS_12basic_stringIcNS_11char_traitsIcEENS1_IcEEEENS_6vectorINSA_ImNS1_ImEEEENS1_ISC_EEEEEEPvEEEEEEEC1B8ne180100IiNS_18__default_init_tagEEEOT_OT0_, symObjAddr: 0x28358, symBinAddr: 0x10002ABF0, symSize: 0x3C }
  - { offset: 0x6041A, size: 0x8, addend: 0x0, symName: __ZNSt3__117__compressed_pairImNS_9allocatorIPNS_16__hash_node_baseIPNS_11__hash_nodeINS_17__hash_value_typeINS_12basic_stringIcNS_11char_traitsIcEENS1_IcEEEENS_6vectorINSA_ImNS1_ImEEEENS1_ISC_EEEEEEPvEEEEEEEC2B8ne180100IiNS_18__default_init_tagEEEOT_OT0_, symObjAddr: 0x28394, symBinAddr: 0x10002AC2C, symSize: 0x40 }
  - { offset: 0x60472, size: 0x8, addend: 0x0, symName: __ZNSt3__122__compressed_pair_elemINS_9allocatorIPNS_16__hash_node_baseIPNS_11__hash_nodeINS_17__hash_value_typeINS_12basic_stringIcNS_11char_traitsIcEENS1_IcEEEENS_6vectorINSA_ImNS1_ImEEEENS1_ISC_EEEEEEPvEEEEEELi1ELb1EEC2B8ne180100ENS_18__default_init_tagE, symObjAddr: 0x283D4, symBinAddr: 0x10002AC6C, symSize: 0x2C }
  - { offset: 0x604A6, size: 0x8, addend: 0x0, symName: __ZNSt3__19allocatorIPNS_16__hash_node_baseIPNS_11__hash_nodeINS_17__hash_value_typeINS_12basic_stringIcNS_11char_traitsIcEENS0_IcEEEENS_6vectorINS9_ImNS0_ImEEEENS0_ISB_EEEEEEPvEEEEEC2B8ne180100Ev, symObjAddr: 0x28400, symBinAddr: 0x10002AC98, symSize: 0x2C }
  - { offset: 0x604D0, size: 0x8, addend: 0x0, symName: __ZNSt3__116__non_trivial_ifILb1ENS_9allocatorIPNS_16__hash_node_baseIPNS_11__hash_nodeINS_17__hash_value_typeINS_12basic_stringIcNS_11char_traitsIcEENS1_IcEEEENS_6vectorINSA_ImNS1_ImEEEENS1_ISC_EEEEEEPvEEEEEEEC2B8ne180100Ev, symObjAddr: 0x2842C, symBinAddr: 0x10002ACC4, symSize: 0x14 }
  - { offset: 0x604FA, size: 0x8, addend: 0x0, symName: __ZNSt3__117__compressed_pairINS_16__hash_node_baseIPNS_11__hash_nodeINS_17__hash_value_typeINS_12basic_stringIcNS_11char_traitsIcEENS_9allocatorIcEEEENS_6vectorINSA_ImNS7_ImEEEENS7_ISC_EEEEEEPvEEEENS7_ISH_EEEC2B8ne180100ILb1EvEEv, symObjAddr: 0x28440, symBinAddr: 0x10002ACD8, symSize: 0x34 }
  - { offset: 0x6052F, size: 0x8, addend: 0x0, symName: __ZNSt3__122__compressed_pair_elemINS_16__hash_node_baseIPNS_11__hash_nodeINS_17__hash_value_typeINS_12basic_stringIcNS_11char_traitsIcEENS_9allocatorIcEEEENS_6vectorINSA_ImNS7_ImEEEENS7_ISC_EEEEEEPvEEEELi0ELb0EEC2B8ne180100ENS_16__value_init_tagE, symObjAddr: 0x28474, symBinAddr: 0x10002AD0C, symSize: 0x2C }
  - { offset: 0x60563, size: 0x8, addend: 0x0, symName: __ZNSt3__122__compressed_pair_elemINS_9allocatorINS_11__hash_nodeINS_17__hash_value_typeINS_12basic_stringIcNS_11char_traitsIcEENS1_IcEEEENS_6vectorINS9_ImNS1_ImEEEENS1_ISB_EEEEEEPvEEEELi1ELb1EEC2B8ne180100ENS_16__value_init_tagE, symObjAddr: 0x284A0, symBinAddr: 0x10002AD38, symSize: 0x2C }
  - { offset: 0x60597, size: 0x8, addend: 0x0, symName: __ZNSt3__116__hash_node_baseIPNS_11__hash_nodeINS_17__hash_value_typeINS_12basic_stringIcNS_11char_traitsIcEENS_9allocatorIcEEEENS_6vectorINS9_ImNS6_ImEEEENS6_ISB_EEEEEEPvEEEC1B8ne180100Ev, symObjAddr: 0x284CC, symBinAddr: 0x10002AD64, symSize: 0x2C }
  - { offset: 0x605C1, size: 0x8, addend: 0x0, symName: __ZNSt3__116__hash_node_baseIPNS_11__hash_nodeINS_17__hash_value_typeINS_12basic_stringIcNS_11char_traitsIcEENS_9allocatorIcEEEENS_6vectorINS9_ImNS6_ImEEEENS6_ISB_EEEEEEPvEEEC2B8ne180100Ev, symObjAddr: 0x284F8, symBinAddr: 0x10002AD90, symSize: 0x18 }
  - { offset: 0x605EB, size: 0x8, addend: 0x0, symName: __ZNSt3__19allocatorINS_11__hash_nodeINS_17__hash_value_typeINS_12basic_stringIcNS_11char_traitsIcEENS0_IcEEEENS_6vectorINS8_ImNS0_ImEEEENS0_ISA_EEEEEEPvEEEC2B8ne180100Ev, symObjAddr: 0x28510, symBinAddr: 0x10002ADA8, symSize: 0x2C }
  - { offset: 0x60615, size: 0x8, addend: 0x0, symName: __ZNSt3__116__non_trivial_ifILb1ENS_9allocatorINS_11__hash_nodeINS_17__hash_value_typeINS_12basic_stringIcNS_11char_traitsIcEENS1_IcEEEENS_6vectorINS9_ImNS1_ImEEEENS1_ISB_EEEEEEPvEEEEEC2B8ne180100Ev, symObjAddr: 0x2853C, symBinAddr: 0x10002ADD4, symSize: 0x14 }
  - { offset: 0x6063F, size: 0x8, addend: 0x0, symName: __ZNSt3__117__compressed_pairImNS_22__unordered_map_hasherINS_12basic_stringIcNS_11char_traitsIcEENS_9allocatorIcEEEENS_17__hash_value_typeIS7_NS_6vectorINS9_ImNS5_ImEEEENS5_ISB_EEEEEENS_4hashIS7_EENS_8equal_toIS7_EELb1EEEEC2B8ne180100IiNS_18__default_init_tagEEEOT_OT0_, symObjAddr: 0x28550, symBinAddr: 0x10002ADE8, symSize: 0x40 }
  - { offset: 0x60697, size: 0x8, addend: 0x0, symName: __ZNSt3__122__compressed_pair_elemINS_22__unordered_map_hasherINS_12basic_stringIcNS_11char_traitsIcEENS_9allocatorIcEEEENS_17__hash_value_typeIS7_NS_6vectorINS9_ImNS5_ImEEEENS5_ISB_EEEEEENS_4hashIS7_EENS_8equal_toIS7_EELb1EEELi1ELb1EEC2B8ne180100ENS_18__default_init_tagE, symObjAddr: 0x28590, symBinAddr: 0x10002AE28, symSize: 0x2C }
  - { offset: 0x606CB, size: 0x8, addend: 0x0, symName: __ZNSt3__122__unordered_map_hasherINS_12basic_stringIcNS_11char_traitsIcEENS_9allocatorIcEEEENS_17__hash_value_typeIS6_NS_6vectorINS8_ImNS4_ImEEEENS4_ISA_EEEEEENS_4hashIS6_EENS_8equal_toIS6_EELb1EEC2B8ne180100Ev, symObjAddr: 0x285BC, symBinAddr: 0x10002AE54, symSize: 0x14 }
  - { offset: 0x606F5, size: 0x8, addend: 0x0, symName: __ZNSt3__117__compressed_pairIfNS_21__unordered_map_equalINS_12basic_stringIcNS_11char_traitsIcEENS_9allocatorIcEEEENS_17__hash_value_typeIS7_NS_6vectorINS9_ImNS5_ImEEEENS5_ISB_EEEEEENS_8equal_toIS7_EENS_4hashIS7_EELb1EEEEC2B8ne180100IfNS_18__default_init_tagEEEOT_OT0_, symObjAddr: 0x285D0, symBinAddr: 0x10002AE68, symSize: 0x40 }
  - { offset: 0x6074D, size: 0x8, addend: 0x0, symName: __ZNSt3__122__compressed_pair_elemINS_21__unordered_map_equalINS_12basic_stringIcNS_11char_traitsIcEENS_9allocatorIcEEEENS_17__hash_value_typeIS7_NS_6vectorINS9_ImNS5_ImEEEENS5_ISB_EEEEEENS_8equal_toIS7_EENS_4hashIS7_EELb1EEELi1ELb1EEC2B8ne180100ENS_18__default_init_tagE, symObjAddr: 0x28610, symBinAddr: 0x10002AEA8, symSize: 0x2C }
  - { offset: 0x60781, size: 0x8, addend: 0x0, symName: __ZNSt3__121__unordered_map_equalINS_12basic_stringIcNS_11char_traitsIcEENS_9allocatorIcEEEENS_17__hash_value_typeIS6_NS_6vectorINS8_ImNS4_ImEEEENS4_ISA_EEEEEENS_8equal_toIS6_EENS_4hashIS6_EELb1EEC2B8ne180100Ev, symObjAddr: 0x2863C, symBinAddr: 0x10002AED4, symSize: 0x14 }
